
examinationsprojekt.elf:     file format elf32-littlearm

Sections:
Idx Name          Size      VMA       LMA       File off  Algn
  0 .text         000069a4  00080000  00080000  00008000  2**2
                  CONTENTS, ALLOC, LOAD, READONLY, CODE
  1 .ARM.exidx    00000008  000869a4  000869a4  0000e9a4  2**2
                  CONTENTS, ALLOC, LOAD, READONLY, DATA
  2 .relocate     000009b0  20070000  000869ac  00010000  2**3
                  CONTENTS, ALLOC, LOAD, CODE
  3 .bss          00008428  200709b0  00087360  000109b0  2**3
                  ALLOC
  4 .stack        00002000  20078dd8  0008f788  000109b0  2**0
                  ALLOC
  5 .ARM.attributes 00000029  00000000  00000000  000109b0  2**0
                  CONTENTS, READONLY
  6 .comment      0000005b  00000000  00000000  000109d9  2**0
                  CONTENTS, READONLY
  7 .debug_info   000188b8  00000000  00000000  00010a34  2**0
                  CONTENTS, READONLY, DEBUGGING
  8 .debug_abbrev 000041e6  00000000  00000000  000292ec  2**0
                  CONTENTS, READONLY, DEBUGGING
  9 .debug_loc    00008e8b  00000000  00000000  0002d4d2  2**0
                  CONTENTS, READONLY, DEBUGGING
 10 .debug_aranges 00001090  00000000  00000000  0003635d  2**0
                  CONTENTS, READONLY, DEBUGGING
 11 .debug_ranges 00000f60  00000000  00000000  000373ed  2**0
                  CONTENTS, READONLY, DEBUGGING
 12 .debug_macro  0001d2f4  00000000  00000000  0003834d  2**0
                  CONTENTS, READONLY, DEBUGGING
 13 .debug_line   00019236  00000000  00000000  00055641  2**0
                  CONTENTS, READONLY, DEBUGGING
 14 .debug_str    0006a832  00000000  00000000  0006e877  2**0
                  CONTENTS, READONLY, DEBUGGING
 15 .debug_frame  000033e8  00000000  00000000  000d90ac  2**2
                  CONTENTS, READONLY, DEBUGGING

Disassembly of section .text:

00080000 <_sfixed>:
   80000:	2007add8 	.word	0x2007add8
   80004:	0008270d 	.word	0x0008270d
   80008:	00082709 	.word	0x00082709
   8000c:	00082709 	.word	0x00082709
   80010:	00082709 	.word	0x00082709
   80014:	00082709 	.word	0x00082709
   80018:	00082709 	.word	0x00082709
	...
   8002c:	00080cf9 	.word	0x00080cf9
   80030:	00082709 	.word	0x00082709
   80034:	00000000 	.word	0x00000000
   80038:	00080d75 	.word	0x00080d75
   8003c:	00080db1 	.word	0x00080db1
   80040:	00082709 	.word	0x00082709
   80044:	00082709 	.word	0x00082709
   80048:	00082709 	.word	0x00082709
   8004c:	00082709 	.word	0x00082709
   80050:	00082709 	.word	0x00082709
   80054:	00082709 	.word	0x00082709
   80058:	00082709 	.word	0x00082709
   8005c:	00082709 	.word	0x00082709
   80060:	00082709 	.word	0x00082709
   80064:	00082709 	.word	0x00082709
   80068:	00000000 	.word	0x00000000
   8006c:	00082579 	.word	0x00082579
   80070:	0008258d 	.word	0x0008258d
   80074:	000825a1 	.word	0x000825a1
   80078:	000825b5 	.word	0x000825b5
	...
   80084:	0008021d 	.word	0x0008021d
   80088:	00082709 	.word	0x00082709
   8008c:	00082709 	.word	0x00082709
   80090:	00082709 	.word	0x00082709
   80094:	00082709 	.word	0x00082709
   80098:	00082709 	.word	0x00082709
   8009c:	00082709 	.word	0x00082709
   800a0:	00082709 	.word	0x00082709
   800a4:	00000000 	.word	0x00000000
   800a8:	00082709 	.word	0x00082709
   800ac:	00082709 	.word	0x00082709
   800b0:	00082709 	.word	0x00082709
   800b4:	00082709 	.word	0x00082709
   800b8:	00082709 	.word	0x00082709
   800bc:	00082709 	.word	0x00082709
   800c0:	00082709 	.word	0x00082709
   800c4:	00082709 	.word	0x00082709
   800c8:	00082709 	.word	0x00082709
   800cc:	00082709 	.word	0x00082709
   800d0:	00082709 	.word	0x00082709
   800d4:	00082709 	.word	0x00082709
   800d8:	00082709 	.word	0x00082709
   800dc:	00082709 	.word	0x00082709
   800e0:	00082709 	.word	0x00082709
   800e4:	00082709 	.word	0x00082709
   800e8:	00082709 	.word	0x00082709
   800ec:	00082709 	.word	0x00082709
   800f0:	00082709 	.word	0x00082709

000800f4 <__do_global_dtors_aux>:
   800f4:	b510      	push	{r4, lr}
   800f6:	4c05      	ldr	r4, [pc, #20]	; (8010c <__do_global_dtors_aux+0x18>)
   800f8:	7823      	ldrb	r3, [r4, #0]
   800fa:	b933      	cbnz	r3, 8010a <__do_global_dtors_aux+0x16>
   800fc:	4b04      	ldr	r3, [pc, #16]	; (80110 <__do_global_dtors_aux+0x1c>)
   800fe:	b113      	cbz	r3, 80106 <__do_global_dtors_aux+0x12>
   80100:	4804      	ldr	r0, [pc, #16]	; (80114 <__do_global_dtors_aux+0x20>)
   80102:	f3af 8000 	nop.w
   80106:	2301      	movs	r3, #1
   80108:	7023      	strb	r3, [r4, #0]
   8010a:	bd10      	pop	{r4, pc}
   8010c:	200709b0 	.word	0x200709b0
   80110:	00000000 	.word	0x00000000
   80114:	000869ac 	.word	0x000869ac

00080118 <frame_dummy>:
   80118:	4b08      	ldr	r3, [pc, #32]	; (8013c <frame_dummy+0x24>)
   8011a:	b510      	push	{r4, lr}
   8011c:	b11b      	cbz	r3, 80126 <frame_dummy+0xe>
   8011e:	4808      	ldr	r0, [pc, #32]	; (80140 <frame_dummy+0x28>)
   80120:	4908      	ldr	r1, [pc, #32]	; (80144 <frame_dummy+0x2c>)
   80122:	f3af 8000 	nop.w
   80126:	4808      	ldr	r0, [pc, #32]	; (80148 <frame_dummy+0x30>)
   80128:	6803      	ldr	r3, [r0, #0]
   8012a:	b903      	cbnz	r3, 8012e <frame_dummy+0x16>
   8012c:	bd10      	pop	{r4, pc}
   8012e:	4b07      	ldr	r3, [pc, #28]	; (8014c <frame_dummy+0x34>)
   80130:	2b00      	cmp	r3, #0
   80132:	d0fb      	beq.n	8012c <frame_dummy+0x14>
   80134:	e8bd 4010 	ldmia.w	sp!, {r4, lr}
   80138:	4718      	bx	r3
   8013a:	bf00      	nop
   8013c:	00000000 	.word	0x00000000
   80140:	000869ac 	.word	0x000869ac
   80144:	200709b4 	.word	0x200709b4
   80148:	000869ac 	.word	0x000869ac
   8014c:	00000000 	.word	0x00000000

00080150 <adc_config>:

#include <asf.h>
#include "adc_func.h"

void adc_config(void)
{
   80150:	b538      	push	{r3, r4, r5, lr}
	pmc_enable_periph_clk(ID_ADC);
   80152:	2025      	movs	r0, #37	; 0x25
   80154:	4b0e      	ldr	r3, [pc, #56]	; (80190 <adc_config+0x40>)
   80156:	4798      	blx	r3
	adc_init(ADC, sysclk_get_main_hz(), 20000000, 0);
   80158:	4c0e      	ldr	r4, [pc, #56]	; (80194 <adc_config+0x44>)
   8015a:	4620      	mov	r0, r4
   8015c:	490e      	ldr	r1, [pc, #56]	; (80198 <adc_config+0x48>)
   8015e:	4a0f      	ldr	r2, [pc, #60]	; (8019c <adc_config+0x4c>)
   80160:	2300      	movs	r3, #0
   80162:	4d0f      	ldr	r5, [pc, #60]	; (801a0 <adc_config+0x50>)
   80164:	47a8      	blx	r5
	adc_configure_timing(ADC, 0, 0, 0);
   80166:	4620      	mov	r0, r4
   80168:	2100      	movs	r1, #0
   8016a:	460a      	mov	r2, r1
   8016c:	460b      	mov	r3, r1
   8016e:	4d0d      	ldr	r5, [pc, #52]	; (801a4 <adc_config+0x54>)
   80170:	47a8      	blx	r5
	adc_set_resolution(ADC, ADC_MR_LOWRES);
   80172:	4620      	mov	r0, r4
   80174:	2110      	movs	r1, #16
   80176:	4b0c      	ldr	r3, [pc, #48]	; (801a8 <adc_config+0x58>)
   80178:	4798      	blx	r3
	adc_enable_channel(ADC, ADC_CHANNEL_10);
   8017a:	4620      	mov	r0, r4
   8017c:	210a      	movs	r1, #10
   8017e:	4b0b      	ldr	r3, [pc, #44]	; (801ac <adc_config+0x5c>)
   80180:	4798      	blx	r3
	adc_configure_trigger(ADC, ADC_TRIG_SW, 0);
   80182:	4620      	mov	r0, r4
   80184:	2100      	movs	r1, #0
   80186:	460a      	mov	r2, r1
   80188:	4b09      	ldr	r3, [pc, #36]	; (801b0 <adc_config+0x60>)
   8018a:	4798      	blx	r3
   8018c:	bd38      	pop	{r3, r4, r5, pc}
   8018e:	bf00      	nop
   80190:	000826b5 	.word	0x000826b5
   80194:	400c0000 	.word	0x400c0000
   80198:	0a037a00 	.word	0x0a037a00
   8019c:	01312d00 	.word	0x01312d00
   801a0:	0008041d 	.word	0x0008041d
   801a4:	00080471 	.word	0x00080471
   801a8:	00080451 	.word	0x00080451
   801ac:	00080499 	.word	0x00080499
   801b0:	00080461 	.word	0x00080461

000801b4 <_read>:
int __attribute__((weak))
_read (int file, char * ptr, int len)
{
	int nChars = 0;

	if (file != 0) {
   801b4:	b9a8      	cbnz	r0, 801e2 <_read+0x2e>
int __attribute__((weak))
_read (int file, char * ptr, int len); // Remove GCC compiler warning

int __attribute__((weak))
_read (int file, char * ptr, int len)
{
   801b6:	e92d 41f0 	stmdb	sp!, {r4, r5, r6, r7, r8, lr}
   801ba:	460c      	mov	r4, r1
   801bc:	4690      	mov	r8, r2

	if (file != 0) {
		return -1;
	}

	for (; len > 0; --len) {
   801be:	2a00      	cmp	r2, #0
   801c0:	dd0a      	ble.n	801d8 <_read+0x24>
   801c2:	188f      	adds	r7, r1, r2
		ptr_get(stdio_base, ptr);
   801c4:	4e08      	ldr	r6, [pc, #32]	; (801e8 <_read+0x34>)
   801c6:	4d09      	ldr	r5, [pc, #36]	; (801ec <_read+0x38>)
   801c8:	6830      	ldr	r0, [r6, #0]
   801ca:	4621      	mov	r1, r4
   801cc:	682b      	ldr	r3, [r5, #0]
   801ce:	4798      	blx	r3
		ptr++;
   801d0:	3401      	adds	r4, #1

	if (file != 0) {
		return -1;
	}

	for (; len > 0; --len) {
   801d2:	42bc      	cmp	r4, r7
   801d4:	d1f8      	bne.n	801c8 <_read+0x14>
   801d6:	e001      	b.n	801dc <_read+0x28>
   801d8:	f04f 0800 	mov.w	r8, #0
		ptr_get(stdio_base, ptr);
		ptr++;
		nChars++;
	}
	return nChars;
   801dc:	4640      	mov	r0, r8
   801de:	e8bd 81f0 	ldmia.w	sp!, {r4, r5, r6, r7, r8, pc}
_read (int file, char * ptr, int len)
{
	int nChars = 0;

	if (file != 0) {
		return -1;
   801e2:	f04f 30ff 	mov.w	r0, #4294967295
   801e6:	4770      	bx	lr
   801e8:	20078dd0 	.word	0x20078dd0
   801ec:	20078dc8 	.word	0x20078dc8

000801f0 <usart_write>:
 * \retval 0 on success.
 * \retval 1 on failure.
 */
uint32_t usart_write(Usart *p_usart, uint32_t c)
{
	if (!(p_usart->US_CSR & US_CSR_TXRDY)) {
   801f0:	6943      	ldr	r3, [r0, #20]
   801f2:	f013 0f02 	tst.w	r3, #2
		return 1;
	}

	p_usart->US_THR = US_THR_TXCHR(c);
   801f6:	bf1d      	ittte	ne
   801f8:	f3c1 0108 	ubfxne	r1, r1, #0, #9
   801fc:	61c1      	strne	r1, [r0, #28]
	return 0;
   801fe:	2000      	movne	r0, #0
 * \retval 1 on failure.
 */
uint32_t usart_write(Usart *p_usart, uint32_t c)
{
	if (!(p_usart->US_CSR & US_CSR_TXRDY)) {
		return 1;
   80200:	2001      	moveq	r0, #1
	}

	p_usart->US_THR = US_THR_TXCHR(c);
	return 0;
}
   80202:	4770      	bx	lr

00080204 <usart_read>:
 * \retval 0 on success.
 * \retval 1 if no data is available or errors.
 */
uint32_t usart_read(Usart *p_usart, uint32_t *c)
{
	if (!(p_usart->US_CSR & US_CSR_RXRDY)) {
   80204:	6943      	ldr	r3, [r0, #20]
   80206:	f013 0f01 	tst.w	r3, #1
   8020a:	d005      	beq.n	80218 <usart_read+0x14>
		return 1;
	}

	/* Read character */
	*c = p_usart->US_RHR & US_RHR_RXCHR_Msk;
   8020c:	6983      	ldr	r3, [r0, #24]
   8020e:	f3c3 0308 	ubfx	r3, r3, #0, #9
   80212:	600b      	str	r3, [r1, #0]

	return 0;
   80214:	2000      	movs	r0, #0
   80216:	4770      	bx	lr
 * \retval 1 if no data is available or errors.
 */
uint32_t usart_read(Usart *p_usart, uint32_t *c)
{
	if (!(p_usart->US_CSR & US_CSR_RXRDY)) {
		return 1;
   80218:	2001      	movs	r0, #1

	/* Read character */
	*c = p_usart->US_RHR & US_RHR_RXCHR_Msk;

	return 0;
}
   8021a:	4770      	bx	lr

0008021c <USART0_Handler>:
#if SAMD || SAMR21 || SAML21
void USART_HOST_ISR_VECT(uint8_t instance)
#else
USART_HOST_ISR_VECT()
#endif
{
   8021c:	b500      	push	{lr}
   8021e:	b083      	sub	sp, #12
	uint8_t temp;
#if SAMD || SAMR21 || SAML21
	usart_serial_read_packet(&host_uart_module, &temp, 1);
#else
	usart_serial_read_packet(USART_HOST, &temp, 1);
   80220:	4811      	ldr	r0, [pc, #68]	; (80268 <USART0_Handler+0x4c>)
   80222:	f10d 0107 	add.w	r1, sp, #7
   80226:	2201      	movs	r2, #1
   80228:	4b10      	ldr	r3, [pc, #64]	; (8026c <USART0_Handler+0x50>)
   8022a:	4798      	blx	r3
  This function disables IRQ interrupts by setting the I-bit in the CPSR.
  Can only be executed in Privileged modes.
 */
__attribute__( ( always_inline ) ) __STATIC_INLINE void __disable_irq(void)
{
  __ASM volatile ("cpsid i" : : : "memory");
   8022c:	b672      	cpsid	i
    This function ensures the apparent order of the explicit memory operations before
    and after the instruction, without ensuring their completion.
 */
__attribute__( ( always_inline ) ) __STATIC_INLINE void __DMB(void)
{
  __ASM volatile ("dmb");
   8022e:	f3bf 8f5f 	dmb	sy
#endif

	/* Introducing critical section to avoid buffer corruption. */
	cpu_irq_disable();
   80232:	2200      	movs	r2, #0
   80234:	4b0e      	ldr	r3, [pc, #56]	; (80270 <USART0_Handler+0x54>)
   80236:	701a      	strb	r2, [r3, #0]

	/* The number of data in the receive buffer is incremented and the
	 * buffer is updated. */

	serial_rx_buf[serial_rx_buf_tail] = temp;
   80238:	4b0e      	ldr	r3, [pc, #56]	; (80274 <USART0_Handler+0x58>)
   8023a:	781b      	ldrb	r3, [r3, #0]
   8023c:	f89d 1007 	ldrb.w	r1, [sp, #7]
   80240:	4a0d      	ldr	r2, [pc, #52]	; (80278 <USART0_Handler+0x5c>)
   80242:	54d1      	strb	r1, [r2, r3]

	if ((SERIAL_RX_BUF_SIZE_HOST - 1) == serial_rx_buf_tail) {
   80244:	2b9b      	cmp	r3, #155	; 0x9b
   80246:	d103      	bne.n	80250 <USART0_Handler+0x34>
		/* Reached the end of buffer, revert back to beginning of
		 * buffer. */
		serial_rx_buf_tail = 0x00;
   80248:	2200      	movs	r2, #0
   8024a:	4b0a      	ldr	r3, [pc, #40]	; (80274 <USART0_Handler+0x58>)
   8024c:	701a      	strb	r2, [r3, #0]
   8024e:	e002      	b.n	80256 <USART0_Handler+0x3a>
	} else {
		serial_rx_buf_tail++;
   80250:	3301      	adds	r3, #1
   80252:	4a08      	ldr	r2, [pc, #32]	; (80274 <USART0_Handler+0x58>)
   80254:	7013      	strb	r3, [r2, #0]
	}

	cpu_irq_enable();
   80256:	2201      	movs	r2, #1
   80258:	4b05      	ldr	r3, [pc, #20]	; (80270 <USART0_Handler+0x54>)
   8025a:	701a      	strb	r2, [r3, #0]
   8025c:	f3bf 8f5f 	dmb	sy
  This function enables IRQ interrupts by clearing the I-bit in the CPSR.
  Can only be executed in Privileged modes.
 */
__attribute__( ( always_inline ) ) __STATIC_INLINE void __enable_irq(void)
{
  __ASM volatile ("cpsie i" : : : "memory");
   80260:	b662      	cpsie	i
}
   80262:	b003      	add	sp, #12
   80264:	f85d fb04 	ldr.w	pc, [sp], #4
   80268:	40098000 	.word	0x40098000
   8026c:	00080359 	.word	0x00080359
   80270:	20070142 	.word	0x20070142
   80274:	20070a68 	.word	0x20070a68
   80278:	200709cc 	.word	0x200709cc

0008027c <task_idle>:
 */ 
#include <asf.h>
#include "task_idle.h"

void task_idle(void *pvParameters)
{
   8027c:	b570      	push	{r4, r5, r6, lr}
   8027e:	b082      	sub	sp, #8
	portTickType xLastWakeTime;
	const portTickType xTimeIncrement = 50;
	
	xLastWakeTime = xTaskGetTickCount();
   80280:	4b05      	ldr	r3, [pc, #20]	; (80298 <task_idle+0x1c>)
   80282:	4798      	blx	r3
   80284:	ac02      	add	r4, sp, #8
   80286:	f824 0d02 	strh.w	r0, [r4, #-2]!
	while(1){
		vTaskDelayUntil(&xLastWakeTime, xTimeIncrement);
   8028a:	2632      	movs	r6, #50	; 0x32
   8028c:	4d03      	ldr	r5, [pc, #12]	; (8029c <task_idle+0x20>)
   8028e:	4620      	mov	r0, r4
   80290:	4631      	mov	r1, r6
   80292:	47a8      	blx	r5
	}
   80294:	e7fb      	b.n	8028e <task_idle+0x12>
   80296:	bf00      	nop
   80298:	000817b9 	.word	0x000817b9
   8029c:	00081a09 	.word	0x00081a09

000802a0 <matlab_recieve_values>:
#include "sync.h"
#include "uart_recieve_values.h"
#define BUF_LEN 16

void matlab_recieve_values(void)
{
   802a0:	e92d 41f0 	stmdb	sp!, {r4, r5, r6, r7, r8, lr}
   802a4:	b084      	sub	sp, #16
	char buffer[BUF_LEN] = {0};
   802a6:	2400      	movs	r4, #0
   802a8:	9400      	str	r4, [sp, #0]
   802aa:	9401      	str	r4, [sp, #4]
   802ac:	9402      	str	r4, [sp, #8]
   802ae:	9403      	str	r4, [sp, #12]
	
	for (int i = 0; i < CONV_ARR_LENGTH; i++)
	{
		gets(buffer);
   802b0:	f8df 8050 	ldr.w	r8, [pc, #80]	; 80304 <matlab_recieve_values+0x64>
		*(p_adc_distance + i) = atoi(buffer);
   802b4:	4f0e      	ldr	r7, [pc, #56]	; (802f0 <matlab_recieve_values+0x50>)
   802b6:	4e0f      	ldr	r6, [pc, #60]	; (802f4 <matlab_recieve_values+0x54>)
{
	char buffer[BUF_LEN] = {0};
	
	for (int i = 0; i < CONV_ARR_LENGTH; i++)
	{
		gets(buffer);
   802b8:	4668      	mov	r0, sp
   802ba:	47c0      	blx	r8
		*(p_adc_distance + i) = atoi(buffer);
   802bc:	683d      	ldr	r5, [r7, #0]
   802be:	4668      	mov	r0, sp
   802c0:	47b0      	blx	r6
   802c2:	5328      	strh	r0, [r5, r4]
   802c4:	3402      	adds	r4, #2

void matlab_recieve_values(void)
{
	char buffer[BUF_LEN] = {0};
	
	for (int i = 0; i < CONV_ARR_LENGTH; i++)
   802c6:	2cc8      	cmp	r4, #200	; 0xc8
   802c8:	d1f6      	bne.n	802b8 <matlab_recieve_values+0x18>
   802ca:	2400      	movs	r4, #0
	}
	
	/* send back the array to make sure its alright */
	for (int i = 0; i < CONV_ARR_LENGTH; i++)
	{
		itoa(*(p_adc_distance + i), buffer, 10);
   802cc:	4f08      	ldr	r7, [pc, #32]	; (802f0 <matlab_recieve_values+0x50>)
   802ce:	4e0a      	ldr	r6, [pc, #40]	; (802f8 <matlab_recieve_values+0x58>)
		printf(buffer);
   802d0:	4d0a      	ldr	r5, [pc, #40]	; (802fc <matlab_recieve_values+0x5c>)
	}
	
	/* send back the array to make sure its alright */
	for (int i = 0; i < CONV_ARR_LENGTH; i++)
	{
		itoa(*(p_adc_distance + i), buffer, 10);
   802d2:	683b      	ldr	r3, [r7, #0]
   802d4:	5b18      	ldrh	r0, [r3, r4]
   802d6:	4669      	mov	r1, sp
   802d8:	220a      	movs	r2, #10
   802da:	47b0      	blx	r6
		printf(buffer);
   802dc:	4668      	mov	r0, sp
   802de:	47a8      	blx	r5
		printf("\n");
   802e0:	4807      	ldr	r0, [pc, #28]	; (80300 <matlab_recieve_values+0x60>)
   802e2:	47a8      	blx	r5
   802e4:	3402      	adds	r4, #2
		gets(buffer);
		*(p_adc_distance + i) = atoi(buffer);
	}
	
	/* send back the array to make sure its alright */
	for (int i = 0; i < CONV_ARR_LENGTH; i++)
   802e6:	2cc8      	cmp	r4, #200	; 0xc8
   802e8:	d1f3      	bne.n	802d2 <matlab_recieve_values+0x32>
	{
		itoa(*(p_adc_distance + i), buffer, 10);
		printf(buffer);
		printf("\n");
	}
}
   802ea:	b004      	add	sp, #16
   802ec:	e8bd 81f0 	ldmia.w	sp!, {r4, r5, r6, r7, r8, pc}
   802f0:	2007012c 	.word	0x2007012c
   802f4:	000833b9 	.word	0x000833b9
   802f8:	000834c5 	.word	0x000834c5
   802fc:	0008346d 	.word	0x0008346d
   80300:	000867e4 	.word	0x000867e4
   80304:	0008340d 	.word	0x0008340d

00080308 <_write>:
int __attribute__((weak))
_write (int file, const char *ptr, int len)
{
	int nChars = 0;

	if ((file != 1) && (file != 2) && (file!=3)) {
   80308:	3801      	subs	r0, #1
   8030a:	2802      	cmp	r0, #2
   8030c:	d818      	bhi.n	80340 <_write+0x38>
int __attribute__((weak))
_write (int file, const char *ptr, int len);

int __attribute__((weak))
_write (int file, const char *ptr, int len)
{
   8030e:	e92d 41f0 	stmdb	sp!, {r4, r5, r6, r7, r8, lr}
   80312:	460e      	mov	r6, r1
   80314:	4614      	mov	r4, r2

	if ((file != 1) && (file != 2) && (file!=3)) {
		return -1;
	}

	for (; len != 0; --len) {
   80316:	b182      	cbz	r2, 8033a <_write+0x32>
   80318:	460d      	mov	r5, r1
		if (ptr_put(stdio_base, *ptr++) < 0) {
   8031a:	f8df 8038 	ldr.w	r8, [pc, #56]	; 80354 <_write+0x4c>
   8031e:	4f0c      	ldr	r7, [pc, #48]	; (80350 <_write+0x48>)
   80320:	f8d8 0000 	ldr.w	r0, [r8]
   80324:	f815 1b01 	ldrb.w	r1, [r5], #1
   80328:	683b      	ldr	r3, [r7, #0]
   8032a:	4798      	blx	r3
   8032c:	2800      	cmp	r0, #0
   8032e:	db0a      	blt.n	80346 <_write+0x3e>
   80330:	1ba8      	subs	r0, r5, r6

	if ((file != 1) && (file != 2) && (file!=3)) {
		return -1;
	}

	for (; len != 0; --len) {
   80332:	3c01      	subs	r4, #1
   80334:	d1f4      	bne.n	80320 <_write+0x18>
   80336:	e8bd 81f0 	ldmia.w	sp!, {r4, r5, r6, r7, r8, pc}
   8033a:	2000      	movs	r0, #0
		if (ptr_put(stdio_base, *ptr++) < 0) {
			return -1;
		}
		++nChars;
	}
	return nChars;
   8033c:	e8bd 81f0 	ldmia.w	sp!, {r4, r5, r6, r7, r8, pc}
_write (int file, const char *ptr, int len)
{
	int nChars = 0;

	if ((file != 1) && (file != 2) && (file!=3)) {
		return -1;
   80340:	f04f 30ff 	mov.w	r0, #4294967295
			return -1;
		}
		++nChars;
	}
	return nChars;
}
   80344:	4770      	bx	lr
		return -1;
	}

	for (; len != 0; --len) {
		if (ptr_put(stdio_base, *ptr++) < 0) {
			return -1;
   80346:	f04f 30ff 	mov.w	r0, #4294967295
		}
		++nChars;
	}
	return nChars;
}
   8034a:	e8bd 81f0 	ldmia.w	sp!, {r4, r5, r6, r7, r8, pc}
   8034e:	bf00      	nop
   80350:	20078dcc 	.word	0x20078dcc
   80354:	20078dd0 	.word	0x20078dd0

00080358 <usart_serial_read_packet>:
 *
 */
status_code_t usart_serial_read_packet(usart_if usart, uint8_t *data,
		size_t len)
{
	while (len) {
   80358:	2a00      	cmp	r2, #0
   8035a:	d04e      	beq.n	803fa <usart_serial_read_packet+0xa2>
 * \param len    Length of data
 *
 */
status_code_t usart_serial_read_packet(usart_if usart, uint8_t *data,
		size_t len)
{
   8035c:	e92d 4ff0 	stmdb	sp!, {r4, r5, r6, r7, r8, r9, sl, fp, lr}
   80360:	b085      	sub	sp, #20
   80362:	4606      	mov	r6, r0
   80364:	460d      	mov	r5, r1
   80366:	4617      	mov	r7, r2

	/* Avoid Cppcheck Warning */
	UNUSED(val);

#ifdef UART
	if (UART == (Uart*)p_usart) {
   80368:	f8df a0a4 	ldr.w	sl, [pc, #164]	; 80410 <usart_serial_read_packet+0xb8>
		while (uart_read((Uart*)p_usart, data));
   8036c:	f8df 90a4 	ldr.w	r9, [pc, #164]	; 80414 <usart_serial_read_packet+0xbc>
   80370:	f8cd a000 	str.w	sl, [sp]
		while (usart_read(p_usart, &val));
		*data = (uint8_t)(val & 0xFF);
	}
#else
# ifdef USART0
	if (USART0 == p_usart) {
   80374:	f8df b0a0 	ldr.w	fp, [pc, #160]	; 80418 <usart_serial_read_packet+0xc0>
		while (usart_read(p_usart, &val));
   80378:	4c21      	ldr	r4, [pc, #132]	; (80400 <usart_serial_read_packet+0xa8>)
   8037a:	f8cd b004 	str.w	fp, [sp, #4]
 * \param data   Data to read
 *
 */
static inline void usart_serial_getchar(usart_if p_usart, uint8_t *data)
{
	uint32_t val = 0;
   8037e:	2300      	movs	r3, #0
   80380:	9303      	str	r3, [sp, #12]

	/* Avoid Cppcheck Warning */
	UNUSED(val);

#ifdef UART
	if (UART == (Uart*)p_usart) {
   80382:	4556      	cmp	r6, sl
   80384:	d105      	bne.n	80392 <usart_serial_read_packet+0x3a>
		while (uart_read((Uart*)p_usart, data));
   80386:	9800      	ldr	r0, [sp, #0]
   80388:	4629      	mov	r1, r5
   8038a:	47c8      	blx	r9
   8038c:	2800      	cmp	r0, #0
   8038e:	d1fa      	bne.n	80386 <usart_serial_read_packet+0x2e>
   80390:	e015      	b.n	803be <usart_serial_read_packet+0x66>
		while (usart_read(p_usart, &val));
		*data = (uint8_t)(val & 0xFF);
	}
#else
# ifdef USART0
	if (USART0 == p_usart) {
   80392:	455e      	cmp	r6, fp
   80394:	d107      	bne.n	803a6 <usart_serial_read_packet+0x4e>
		while (usart_read(p_usart, &val));
   80396:	9801      	ldr	r0, [sp, #4]
   80398:	a903      	add	r1, sp, #12
   8039a:	47a0      	blx	r4
   8039c:	2800      	cmp	r0, #0
   8039e:	d1fa      	bne.n	80396 <usart_serial_read_packet+0x3e>
		*data = (uint8_t)(val & 0xFF);
   803a0:	9b03      	ldr	r3, [sp, #12]
   803a2:	702b      	strb	r3, [r5, #0]
   803a4:	e017      	b.n	803d6 <usart_serial_read_packet+0x7e>
	}
# endif
# ifdef USART1
	if (USART1 == p_usart) {
   803a6:	4b17      	ldr	r3, [pc, #92]	; (80404 <usart_serial_read_packet+0xac>)
   803a8:	429e      	cmp	r6, r3
   803aa:	d108      	bne.n	803be <usart_serial_read_packet+0x66>
		while (usart_read(p_usart, &val));
   803ac:	4698      	mov	r8, r3
   803ae:	4640      	mov	r0, r8
   803b0:	a903      	add	r1, sp, #12
   803b2:	47a0      	blx	r4
   803b4:	2800      	cmp	r0, #0
   803b6:	d1fa      	bne.n	803ae <usart_serial_read_packet+0x56>
		*data = (uint8_t)(val & 0xFF);
   803b8:	9b03      	ldr	r3, [sp, #12]
   803ba:	702b      	strb	r3, [r5, #0]
   803bc:	e016      	b.n	803ec <usart_serial_read_packet+0x94>
	}
# endif
# ifdef USART2
	if (USART2 == p_usart) {
   803be:	4b12      	ldr	r3, [pc, #72]	; (80408 <usart_serial_read_packet+0xb0>)
   803c0:	429e      	cmp	r6, r3
   803c2:	d108      	bne.n	803d6 <usart_serial_read_packet+0x7e>
		while (usart_read(p_usart, &val));
   803c4:	4698      	mov	r8, r3
   803c6:	4640      	mov	r0, r8
   803c8:	a903      	add	r1, sp, #12
   803ca:	47a0      	blx	r4
   803cc:	2800      	cmp	r0, #0
   803ce:	d1fa      	bne.n	803c6 <usart_serial_read_packet+0x6e>
		*data = (uint8_t)(val & 0xFF);
   803d0:	9b03      	ldr	r3, [sp, #12]
   803d2:	702b      	strb	r3, [r5, #0]
   803d4:	e00a      	b.n	803ec <usart_serial_read_packet+0x94>
	}
# endif
# ifdef USART3
	if (USART3 == p_usart) {
   803d6:	4b0d      	ldr	r3, [pc, #52]	; (8040c <usart_serial_read_packet+0xb4>)
   803d8:	429e      	cmp	r6, r3
   803da:	d107      	bne.n	803ec <usart_serial_read_packet+0x94>
		while (usart_read(p_usart, &val));
   803dc:	4698      	mov	r8, r3
   803de:	4640      	mov	r0, r8
   803e0:	a903      	add	r1, sp, #12
   803e2:	47a0      	blx	r4
   803e4:	2800      	cmp	r0, #0
   803e6:	d1fa      	bne.n	803de <usart_serial_read_packet+0x86>
		*data = (uint8_t)(val & 0xFF);
   803e8:	9b03      	ldr	r3, [sp, #12]
   803ea:	702b      	strb	r3, [r5, #0]
	while (len) {
		usart_serial_getchar(usart, data);
		len--;
		data++;
   803ec:	3501      	adds	r5, #1
 *
 */
status_code_t usart_serial_read_packet(usart_if usart, uint8_t *data,
		size_t len)
{
	while (len) {
   803ee:	3f01      	subs	r7, #1
   803f0:	d1c5      	bne.n	8037e <usart_serial_read_packet+0x26>
		usart_serial_getchar(usart, data);
		len--;
		data++;
	}
	return STATUS_OK;
}
   803f2:	2000      	movs	r0, #0
   803f4:	b005      	add	sp, #20
   803f6:	e8bd 8ff0 	ldmia.w	sp!, {r4, r5, r6, r7, r8, r9, sl, fp, pc}
   803fa:	2000      	movs	r0, #0
   803fc:	4770      	bx	lr
   803fe:	bf00      	nop
   80400:	00080205 	.word	0x00080205
   80404:	4009c000 	.word	0x4009c000
   80408:	400a0000 	.word	0x400a0000
   8040c:	400a4000 	.word	0x400a4000
   80410:	400e0800 	.word	0x400e0800
   80414:	00080c0d 	.word	0x00080c0d
   80418:	40098000 	.word	0x40098000

0008041c <adc_init>:
 *
 * \return 0 on success.
 */
uint32_t adc_init(Adc *p_adc, const uint32_t ul_mck,
		const uint32_t ul_adc_clock, const enum adc_startup_time startup)
{
   8041c:	b430      	push	{r4, r5}
	uint32_t ul_prescal;

	/*  Reset the controller. */
	p_adc->ADC_CR = ADC_CR_SWRST;
   8041e:	2401      	movs	r4, #1
   80420:	6004      	str	r4, [r0, #0]

	/* Reset Mode Register. */
	p_adc->ADC_MR = 0;
   80422:	2400      	movs	r4, #0
   80424:	6044      	str	r4, [r0, #4]

	/* Reset PDC transfer. */
	p_adc->ADC_PTCR = (ADC_PTCR_RXTDIS | ADC_PTCR_TXTDIS);
   80426:	f240 2502 	movw	r5, #514	; 0x202
   8042a:	f8c0 5120 	str.w	r5, [r0, #288]	; 0x120
	p_adc->ADC_RCR = 0;
   8042e:	f8c0 4104 	str.w	r4, [r0, #260]	; 0x104
	p_adc->ADC_RNCR = 0;
   80432:	f8c0 4114 	str.w	r4, [r0, #276]	; 0x114

	ul_prescal = ul_mck / (2 * ul_adc_clock) - 1;
	p_adc->ADC_MR |= ADC_MR_PRESCAL(ul_prescal) | startup;
   80436:	6845      	ldr	r5, [r0, #4]
   80438:	432b      	orrs	r3, r5
	/* Reset PDC transfer. */
	p_adc->ADC_PTCR = (ADC_PTCR_RXTDIS | ADC_PTCR_TXTDIS);
	p_adc->ADC_RCR = 0;
	p_adc->ADC_RNCR = 0;

	ul_prescal = ul_mck / (2 * ul_adc_clock) - 1;
   8043a:	0052      	lsls	r2, r2, #1
   8043c:	fbb1 f1f2 	udiv	r1, r1, r2
   80440:	1e4a      	subs	r2, r1, #1
	p_adc->ADC_MR |= ADC_MR_PRESCAL(ul_prescal) | startup;
   80442:	0212      	lsls	r2, r2, #8
   80444:	b292      	uxth	r2, r2
   80446:	4313      	orrs	r3, r2
   80448:	6043      	str	r3, [r0, #4]
	return 0;
}
   8044a:	4620      	mov	r0, r4
   8044c:	bc30      	pop	{r4, r5}
   8044e:	4770      	bx	lr

00080450 <adc_set_resolution>:
		p_adc->ADC_MR &= ~ADC_MR_LOWRES;
		p_adc->ADC_EMR |= resolution;
		break;
	}
#else
	p_adc->ADC_MR &= ~ADC_MR_LOWRES;
   80450:	6843      	ldr	r3, [r0, #4]
   80452:	f023 0310 	bic.w	r3, r3, #16
   80456:	6043      	str	r3, [r0, #4]
	p_adc->ADC_MR |= resolution;
   80458:	6843      	ldr	r3, [r0, #4]
   8045a:	4319      	orrs	r1, r3
   8045c:	6041      	str	r1, [r0, #4]
   8045e:	4770      	bx	lr

00080460 <adc_configure_trigger>:
 *
 */
void adc_configure_trigger(Adc *p_adc, const enum adc_trigger_t trigger,
		uint8_t uc_freerun)
{
	p_adc->ADC_MR |= trigger | ((uc_freerun << 7) & ADC_MR_FREERUN);
   80460:	6843      	ldr	r3, [r0, #4]
   80462:	4319      	orrs	r1, r3
   80464:	01d2      	lsls	r2, r2, #7
   80466:	b2d2      	uxtb	r2, r2
   80468:	4311      	orrs	r1, r2
   8046a:	6041      	str	r1, [r0, #4]
   8046c:	4770      	bx	lr
   8046e:	bf00      	nop

00080470 <adc_configure_timing>:
 * \param uc_settling Analog settling time = (uc_settling + 1) / ADC clock.
 * \param uc_transfer Data transfer time = (uc_transfer * 2 + 3) / ADC clock.
 */
void adc_configure_timing(Adc *p_adc, const uint8_t uc_tracking,
		const enum adc_settling_time_t settling,const uint8_t uc_transfer)
{
   80470:	b410      	push	{r4}
	p_adc->ADC_MR |= ADC_MR_TRANSFER(uc_transfer)
   80472:	6844      	ldr	r4, [r0, #4]
   80474:	4322      	orrs	r2, r4
			| settling | ADC_MR_TRACKTIM(uc_tracking);
   80476:	0609      	lsls	r1, r1, #24
   80478:	f001 6170 	and.w	r1, r1, #251658240	; 0xf000000
   8047c:	430a      	orrs	r2, r1
 * \param uc_transfer Data transfer time = (uc_transfer * 2 + 3) / ADC clock.
 */
void adc_configure_timing(Adc *p_adc, const uint8_t uc_tracking,
		const enum adc_settling_time_t settling,const uint8_t uc_transfer)
{
	p_adc->ADC_MR |= ADC_MR_TRANSFER(uc_transfer)
   8047e:	071b      	lsls	r3, r3, #28
   80480:	f003 5340 	and.w	r3, r3, #805306368	; 0x30000000
   80484:	4313      	orrs	r3, r2
   80486:	6043      	str	r3, [r0, #4]
			| settling | ADC_MR_TRACKTIM(uc_tracking);
}
   80488:	f85d 4b04 	ldr.w	r4, [sp], #4
   8048c:	4770      	bx	lr
   8048e:	bf00      	nop

00080490 <adc_start>:
 * \param p_adc Pointer to an ADC instance.
 */

void adc_start(Adc *p_adc)
{
	p_adc->ADC_CR = ADC_CR_START;
   80490:	2302      	movs	r3, #2
   80492:	6003      	str	r3, [r0, #0]
   80494:	4770      	bx	lr
   80496:	bf00      	nop

00080498 <adc_enable_channel>:
 * \param p_adc Pointer to an ADC instance.
 * \param adc_ch ADC channel number.
 */
void adc_enable_channel(Adc *p_adc, const enum adc_channel_num_t adc_ch)
{
	p_adc->ADC_CHER = 1 << adc_ch;
   80498:	2301      	movs	r3, #1
   8049a:	408b      	lsls	r3, r1
   8049c:	6103      	str	r3, [r0, #16]
   8049e:	4770      	bx	lr

000804a0 <adc_get_latest_value>:
 *
 * \return ADC latest value.
 */
uint32_t adc_get_latest_value(const Adc *p_adc)
{
	return p_adc->ADC_LCDR;
   804a0:	6a00      	ldr	r0, [r0, #32]
}
   804a2:	4770      	bx	lr

000804a4 <adc_get_status>:
 *
 * \return ADC status structure.
 */
uint32_t adc_get_status(const Adc *p_adc)
{
	return p_adc->ADC_ISR;
   804a4:	6b00      	ldr	r0, [r0, #48]	; 0x30
}
   804a6:	4770      	bx	lr

000804a8 <pwm_clocks_generate>:
 *
 * \retval Return the value to be set in the PWM Clock Register (PWM Mode Register for
 * SAM3N/SAM4N/SAM4C/SAM4CP/SAM4CM) or PWM_INVALID_ARGUMENT if the configuration cannot be met.
 */
static uint32_t pwm_clocks_generate(uint32_t ul_frequency, uint32_t ul_mck)
{
   804a8:	b4f0      	push	{r4, r5, r6, r7}
   804aa:	b08c      	sub	sp, #48	; 0x30
   804ac:	4607      	mov	r7, r0
   804ae:	460e      	mov	r6, r1
	uint32_t ul_divisors[PWM_CLOCK_PRE_MAX] =
   804b0:	ac01      	add	r4, sp, #4
   804b2:	4d11      	ldr	r5, [pc, #68]	; (804f8 <pwm_clocks_generate+0x50>)
   804b4:	cd0f      	ldmia	r5!, {r0, r1, r2, r3}
   804b6:	c40f      	stmia	r4!, {r0, r1, r2, r3}
   804b8:	cd0f      	ldmia	r5!, {r0, r1, r2, r3}
   804ba:	c40f      	stmia	r4!, {r0, r1, r2, r3}
   804bc:	e895 0007 	ldmia.w	r5, {r0, r1, r2}
   804c0:	e884 0007 	stmia.w	r4, {r0, r1, r2}
   804c4:	aa01      	add	r2, sp, #4
			{1, 2, 4, 8, 16, 32, 64, 128, 256, 512, 1024 };
	uint32_t ul_pre = 0;
   804c6:	2000      	movs	r0, #0
	uint32_t ul_div;

	/* Find prescaler and divisor values */
	do {
		ul_div = (ul_mck / ul_divisors[ul_pre]) / ul_frequency;
   804c8:	f852 3b04 	ldr.w	r3, [r2], #4
   804cc:	fbb6 f3f3 	udiv	r3, r6, r3
   804d0:	fbb3 f3f7 	udiv	r3, r3, r7
		if (ul_div <= PWM_CLOCK_DIV_MAX) {
   804d4:	f5b3 7f80 	cmp.w	r3, #256	; 0x100
   804d8:	d905      	bls.n	804e6 <pwm_clocks_generate+0x3e>
			break;
		}
		ul_pre++;
   804da:	3001      	adds	r0, #1
	} while (ul_pre < PWM_CLOCK_PRE_MAX);
   804dc:	280b      	cmp	r0, #11
   804de:	d1f3      	bne.n	804c8 <pwm_clocks_generate+0x20>

	/* Return result */
	if (ul_pre < PWM_CLOCK_PRE_MAX) {
		return ul_div | (ul_pre << 8);
	} else {
		return PWM_INVALID_ARGUMENT;
   804e0:	f64f 70ff 	movw	r0, #65535	; 0xffff
   804e4:	e005      	b.n	804f2 <pwm_clocks_generate+0x4a>
		}
		ul_pre++;
	} while (ul_pre < PWM_CLOCK_PRE_MAX);

	/* Return result */
	if (ul_pre < PWM_CLOCK_PRE_MAX) {
   804e6:	280a      	cmp	r0, #10
		return ul_div | (ul_pre << 8);
   804e8:	bf94      	ite	ls
   804ea:	ea43 2000 	orrls.w	r0, r3, r0, lsl #8
	} else {
		return PWM_INVALID_ARGUMENT;
   804ee:	f64f 70ff 	movwhi	r0, #65535	; 0xffff
	}
}
   804f2:	b00c      	add	sp, #48	; 0x30
   804f4:	bcf0      	pop	{r4, r5, r6, r7}
   804f6:	4770      	bx	lr
   804f8:	00086790 	.word	0x00086790

000804fc <pwm_init>:
 * \param clock_config PWM clock configuration.
 *
 * \retval 0 if initialization succeeds, otherwise fails.
 */
uint32_t pwm_init(Pwm *p_pwm, pwm_clock_t *clock_config)
{
   804fc:	b570      	push	{r4, r5, r6, lr}
   804fe:	4606      	mov	r6, r0
   80500:	460c      	mov	r4, r1
	uint32_t clock = 0;
	uint32_t result;

	/* Clock A */
	if (clock_config->ul_clka != 0) {
   80502:	6808      	ldr	r0, [r1, #0]
   80504:	b140      	cbz	r0, 80518 <pwm_init+0x1c>
		result = pwm_clocks_generate(clock_config->ul_clka, clock_config->ul_mck);
   80506:	6889      	ldr	r1, [r1, #8]
   80508:	4b0e      	ldr	r3, [pc, #56]	; (80544 <pwm_init+0x48>)
   8050a:	4798      	blx	r3
   8050c:	4605      	mov	r5, r0
		if (result == PWM_INVALID_ARGUMENT) {
   8050e:	f64f 73ff 	movw	r3, #65535	; 0xffff
   80512:	4298      	cmp	r0, r3
   80514:	d101      	bne.n	8051a <pwm_init+0x1e>
   80516:	e00e      	b.n	80536 <pwm_init+0x3a>
 *
 * \retval 0 if initialization succeeds, otherwise fails.
 */
uint32_t pwm_init(Pwm *p_pwm, pwm_clock_t *clock_config)
{
	uint32_t clock = 0;
   80518:	2500      	movs	r5, #0

		clock = result;
	}

	/* Clock B */
	if (clock_config->ul_clkb != 0) {
   8051a:	6860      	ldr	r0, [r4, #4]
   8051c:	b140      	cbz	r0, 80530 <pwm_init+0x34>
		result = pwm_clocks_generate(clock_config->ul_clkb, clock_config->ul_mck);
   8051e:	68a1      	ldr	r1, [r4, #8]
   80520:	4b08      	ldr	r3, [pc, #32]	; (80544 <pwm_init+0x48>)
   80522:	4798      	blx	r3

		if (result == PWM_INVALID_ARGUMENT) {
   80524:	f64f 73ff 	movw	r3, #65535	; 0xffff
   80528:	4298      	cmp	r0, r3
   8052a:	d007      	beq.n	8053c <pwm_init+0x40>
			return result;
		}

		clock |= (result << 16);
   8052c:	ea45 4500 	orr.w	r5, r5, r0, lsl #16
	}
#if (SAM3N || SAM4N || SAM4C || SAM4CP || SAM4CM)
	p_pwm->PWM_MR = clock;
#else
	p_pwm->PWM_CLK = clock;
   80530:	6035      	str	r5, [r6, #0]
#endif
	return 0;
   80532:	2000      	movs	r0, #0
   80534:	bd70      	pop	{r4, r5, r6, pc}

	/* Clock A */
	if (clock_config->ul_clka != 0) {
		result = pwm_clocks_generate(clock_config->ul_clka, clock_config->ul_mck);
		if (result == PWM_INVALID_ARGUMENT) {
			return result;
   80536:	f64f 70ff 	movw	r0, #65535	; 0xffff
   8053a:	bd70      	pop	{r4, r5, r6, pc}
	/* Clock B */
	if (clock_config->ul_clkb != 0) {
		result = pwm_clocks_generate(clock_config->ul_clkb, clock_config->ul_mck);

		if (result == PWM_INVALID_ARGUMENT) {
			return result;
   8053c:	f64f 70ff 	movw	r0, #65535	; 0xffff
	p_pwm->PWM_MR = clock;
#else
	p_pwm->PWM_CLK = clock;
#endif
	return 0;
}
   80540:	bd70      	pop	{r4, r5, r6, pc}
   80542:	bf00      	nop
   80544:	000804a9 	.word	0x000804a9

00080548 <pwm_channel_init>:
 * \param p_channel Configurations of the specified PWM channel.
 *
 * \retval 0 if initialization succeeds, otherwise fails.
 */
uint32_t pwm_channel_init(Pwm *p_pwm, pwm_channel_t *p_channel)
{
   80548:	b470      	push	{r4, r5, r6}
	uint32_t tmp_reg = 0;
	uint32_t ch_num = p_channel->channel;
   8054a:	680b      	ldr	r3, [r1, #0]

	/* Channel Mode/Clock Register */
	tmp_reg = (p_channel->ul_prescaler & 0xF) |
			(p_channel->polarity << 9) |
   8054c:	8a8a      	ldrh	r2, [r1, #20]
{
	uint32_t tmp_reg = 0;
	uint32_t ch_num = p_channel->channel;

	/* Channel Mode/Clock Register */
	tmp_reg = (p_channel->ul_prescaler & 0xF) |
   8054e:	684c      	ldr	r4, [r1, #4]
   80550:	f004 040f 	and.w	r4, r4, #15
   80554:	4322      	orrs	r2, r4
			(p_channel->polarity << 9) |
#if (SAM3U || SAM3S || SAM3XA || SAM4S || SAM4E || SAMV70 || SAMV71 || SAME70 || SAMS70)
			(p_channel->counter_event) |
			(p_channel->b_deadtime_generator << 16) |
			(p_channel->b_pwmh_output_inverted << 17) |
			(p_channel->b_pwml_output_inverted << 18) |
   80556:	890c      	ldrh	r4, [r1, #8]
   80558:	4322      	orrs	r2, r4
	uint32_t tmp_reg = 0;
	uint32_t ch_num = p_channel->channel;

	/* Channel Mode/Clock Register */
	tmp_reg = (p_channel->ul_prescaler & 0xF) |
			(p_channel->polarity << 9) |
   8055a:	7a8c      	ldrb	r4, [r1, #10]
   8055c:	ea42 2244 	orr.w	r2, r2, r4, lsl #9
#if (SAM3U || SAM3S || SAM3XA || SAM4S || SAM4E || SAMV70 || SAMV71 || SAME70 || SAMS70)
			(p_channel->counter_event) |
			(p_channel->b_deadtime_generator << 16) |
   80560:	7d8c      	ldrb	r4, [r1, #22]
   80562:	ea42 4204 	orr.w	r2, r2, r4, lsl #16
			(p_channel->b_pwmh_output_inverted << 17) |
   80566:	7dcc      	ldrb	r4, [r1, #23]
   80568:	ea42 4244 	orr.w	r2, r2, r4, lsl #17
			(p_channel->b_pwml_output_inverted << 18) |
   8056c:	7e0c      	ldrb	r4, [r1, #24]
{
	uint32_t tmp_reg = 0;
	uint32_t ch_num = p_channel->channel;

	/* Channel Mode/Clock Register */
	tmp_reg = (p_channel->ul_prescaler & 0xF) |
   8056e:	ea42 4284 	orr.w	r2, r2, r4, lsl #18
   80572:	eb00 1443 	add.w	r4, r0, r3, lsl #5
			(p_channel->b_deadtime_generator << 16) |
			(p_channel->b_pwmh_output_inverted << 17) |
			(p_channel->b_pwml_output_inverted << 18) |
#endif
			(p_channel->alignment);
	p_pwm->PWM_CH_NUM[ch_num].PWM_CMR = tmp_reg;
   80576:	f8c4 2200 	str.w	r2, [r4, #512]	; 0x200

	/* Channel Duty Cycle Register */
	p_pwm->PWM_CH_NUM[ch_num].PWM_CDTY = p_channel->ul_duty;
   8057a:	68ca      	ldr	r2, [r1, #12]
   8057c:	f8c4 2204 	str.w	r2, [r4, #516]	; 0x204

	/* Channel Period Register */
	p_pwm->PWM_CH_NUM[ch_num].PWM_CPRD = p_channel->ul_period;
   80580:	690a      	ldr	r2, [r1, #16]
   80582:	f8c4 220c 	str.w	r2, [r4, #524]	; 0x20c
	
#if (SAM3U || SAM3S || SAM3XA || SAM4S || SAM4E || SAMV70 || SAMV71 || SAME70 || SAMS70)
	/* Channel Dead Time Register */
	if (p_channel->b_deadtime_generator) {
   80586:	7d8a      	ldrb	r2, [r1, #22]
   80588:	b13a      	cbz	r2, 8059a <pwm_channel_init+0x52>
		p_pwm->PWM_CH_NUM[ch_num].PWM_DT =
				PWM_DT_DTL(p_channel->
   8058a:	8b8c      	ldrh	r4, [r1, #28]
				us_deadtime_pwml) | PWM_DT_DTH(p_channel->
   8058c:	8b4a      	ldrh	r2, [r1, #26]
   8058e:	ea42 4204 	orr.w	r2, r2, r4, lsl #16
	p_pwm->PWM_CH_NUM[ch_num].PWM_CPRD = p_channel->ul_period;
	
#if (SAM3U || SAM3S || SAM3XA || SAM4S || SAM4E || SAMV70 || SAMV71 || SAME70 || SAMS70)
	/* Channel Dead Time Register */
	if (p_channel->b_deadtime_generator) {
		p_pwm->PWM_CH_NUM[ch_num].PWM_DT =
   80592:	eb00 1443 	add.w	r4, r0, r3, lsl #5
   80596:	f8c4 2218 	str.w	r2, [r4, #536]	; 0x218
				us_deadtime_pwml) | PWM_DT_DTH(p_channel->
				us_deadtime_pwmh);
	}

	/* Output Selection Register */
	tmp_reg  = p_pwm->PWM_OS & (~((PWM_OS_OSH0 | PWM_OS_OSL0) << ch_num));
   8059a:	6c84      	ldr	r4, [r0, #72]	; 0x48
   8059c:	f04f 1201 	mov.w	r2, #65537	; 0x10001
   805a0:	409a      	lsls	r2, r3
   805a2:	43d2      	mvns	r2, r2
   805a4:	ea02 0504 	and.w	r5, r2, r4
	tmp_reg |= ((p_channel->output_selection.b_override_pwmh) << ch_num) |
			(((p_channel->output_selection.b_override_pwml) << ch_num)
   805a8:	7fcc      	ldrb	r4, [r1, #31]
   805aa:	fa04 f603 	lsl.w	r6, r4, r3
				us_deadtime_pwmh);
	}

	/* Output Selection Register */
	tmp_reg  = p_pwm->PWM_OS & (~((PWM_OS_OSH0 | PWM_OS_OSL0) << ch_num));
	tmp_reg |= ((p_channel->output_selection.b_override_pwmh) << ch_num) |
   805ae:	7f8c      	ldrb	r4, [r1, #30]
   805b0:	409c      	lsls	r4, r3
   805b2:	ea44 4406 	orr.w	r4, r4, r6, lsl #16
   805b6:	432c      	orrs	r4, r5
			(((p_channel->output_selection.b_override_pwml) << ch_num)
					<< 16);
	p_pwm->PWM_OS = tmp_reg;
   805b8:	6484      	str	r4, [r0, #72]	; 0x48

	/* Output Override Value Register */
	tmp_reg  = p_pwm->PWM_OOV & (~((PWM_OOV_OOVH0 | PWM_OOV_OOVL0) << ch_num));
   805ba:	6c44      	ldr	r4, [r0, #68]	; 0x44
   805bc:	4014      	ands	r4, r2
	tmp_reg |= ((p_channel->output_selection.override_level_pwmh) << ch_num) |
			(((p_channel->output_selection.override_level_pwml) << ch_num)
   805be:	f891 2021 	ldrb.w	r2, [r1, #33]	; 0x21
   805c2:	fa02 f503 	lsl.w	r5, r2, r3
					<< 16);
	p_pwm->PWM_OS = tmp_reg;

	/* Output Override Value Register */
	tmp_reg  = p_pwm->PWM_OOV & (~((PWM_OOV_OOVH0 | PWM_OOV_OOVL0) << ch_num));
	tmp_reg |= ((p_channel->output_selection.override_level_pwmh) << ch_num) |
   805c6:	f891 2020 	ldrb.w	r2, [r1, #32]
   805ca:	409a      	lsls	r2, r3
   805cc:	ea42 4205 	orr.w	r2, r2, r5, lsl #16
   805d0:	4322      	orrs	r2, r4
			(((p_channel->output_selection.override_level_pwml) << ch_num)
					<< 16);
	p_pwm->PWM_OOV = tmp_reg;
   805d2:	6442      	str	r2, [r0, #68]	; 0x44

	/* Sync Channels Mode Register */
	uint32_t channel = (1 << ch_num);
   805d4:	2201      	movs	r2, #1
   805d6:	409a      	lsls	r2, r3
	if (p_channel->b_sync_ch) {
   805d8:	f891 4022 	ldrb.w	r4, [r1, #34]	; 0x22
   805dc:	b11c      	cbz	r4, 805e6 <pwm_channel_init+0x9e>
		p_pwm->PWM_SCM |= channel;
   805de:	6a04      	ldr	r4, [r0, #32]
   805e0:	4314      	orrs	r4, r2
   805e2:	6204      	str	r4, [r0, #32]
   805e4:	e003      	b.n	805ee <pwm_channel_init+0xa6>
	} else {
		p_pwm->PWM_SCM &= ~((uint32_t) channel);
   805e6:	6a04      	ldr	r4, [r0, #32]
   805e8:	ea24 0402 	bic.w	r4, r4, r2
   805ec:	6204      	str	r4, [r0, #32]
		} else {
			p_pwm->PWM_FPV1 &= (~((0x01 << ch_num) << 16));
		}
	}
#else
	if (p_channel->ul_fault_output_pwmh == PWM_HIGH) {
   805ee:	f891 4024 	ldrb.w	r4, [r1, #36]	; 0x24
   805f2:	2c01      	cmp	r4, #1
		p_pwm->PWM_FPV |= (0x01 << ch_num);
   805f4:	6e84      	ldr	r4, [r0, #104]	; 0x68
   805f6:	bf0c      	ite	eq
   805f8:	4314      	orreq	r4, r2
	} else {
		p_pwm->PWM_FPV &= (~(0x01 << ch_num));
   805fa:	4394      	bicne	r4, r2
   805fc:	6684      	str	r4, [r0, #104]	; 0x68
	}
	if (p_channel->ul_fault_output_pwml == PWM_HIGH) {
   805fe:	f891 4025 	ldrb.w	r4, [r1, #37]	; 0x25
   80602:	2c01      	cmp	r4, #1
		p_pwm->PWM_FPV |= ((0x01 << ch_num) << 16);
   80604:	6e84      	ldr	r4, [r0, #104]	; 0x68
   80606:	bf0c      	ite	eq
   80608:	ea44 4202 	orreq.w	r2, r4, r2, lsl #16
	} else {
		p_pwm->PWM_FPV &= (~((0x01 << ch_num) << 16));
   8060c:	ea24 4202 	bicne.w	r2, r4, r2, lsl #16
   80610:	6682      	str	r2, [r0, #104]	; 0x68
	}
#endif
	/* Fault Protection Enable Register */
	uint32_t fault_enable_reg = 0;
#if (SAM3XA)
	if (ch_num < 4) {
   80612:	2b03      	cmp	r3, #3
   80614:	d80b      	bhi.n	8062e <pwm_channel_init+0xe6>
		ch_num *= 8;
		fault_enable_reg = p_pwm->PWM_FPE1;
   80616:	6ec4      	ldr	r4, [r0, #108]	; 0x6c
#endif
	/* Fault Protection Enable Register */
	uint32_t fault_enable_reg = 0;
#if (SAM3XA)
	if (ch_num < 4) {
		ch_num *= 8;
   80618:	00dd      	lsls	r5, r3, #3
		fault_enable_reg = p_pwm->PWM_FPE1;
		fault_enable_reg &= ~(0xFF << ch_num);
   8061a:	22ff      	movs	r2, #255	; 0xff
   8061c:	40aa      	lsls	r2, r5
   8061e:	ea24 0202 	bic.w	r2, r4, r2
		fault_enable_reg |= ((p_channel->fault_id) << ch_num);
   80622:	f891 3023 	ldrb.w	r3, [r1, #35]	; 0x23
   80626:	40ab      	lsls	r3, r5
   80628:	4313      	orrs	r3, r2
		p_pwm->PWM_FPE1 = fault_enable_reg;
   8062a:	66c3      	str	r3, [r0, #108]	; 0x6c
   8062c:	e00c      	b.n	80648 <pwm_channel_init+0x100>
	} else {
		ch_num -= 4;
   8062e:	3b04      	subs	r3, #4
		ch_num *= 8;
		fault_enable_reg = p_pwm->PWM_FPE2;
   80630:	6f02      	ldr	r2, [r0, #112]	; 0x70
		fault_enable_reg &= ~(0xFF << ch_num);
		fault_enable_reg |= ((p_channel->fault_id) << ch_num);
		p_pwm->PWM_FPE1 = fault_enable_reg;
	} else {
		ch_num -= 4;
		ch_num *= 8;
   80632:	00db      	lsls	r3, r3, #3
		fault_enable_reg = p_pwm->PWM_FPE2;
		fault_enable_reg &= ~(0xFF << ch_num);
   80634:	24ff      	movs	r4, #255	; 0xff
   80636:	409c      	lsls	r4, r3
   80638:	ea22 0404 	bic.w	r4, r2, r4
		fault_enable_reg |= ((p_channel->fault_id) << ch_num);
   8063c:	f891 2023 	ldrb.w	r2, [r1, #35]	; 0x23
   80640:	fa02 f303 	lsl.w	r3, r2, r3
   80644:	4323      	orrs	r3, r4
		p_pwm->PWM_FPE2 = fault_enable_reg;
   80646:	6703      	str	r3, [r0, #112]	; 0x70
	p_pwm->PWM_CH_NUM[ch_num].PWM_CMR &= (~PWM_CMR_PPM);
	p_pwm->PWM_CH_NUM[ch_num].PWM_CMR |= (p_channel->ul_ppm_mode & PWM_CMR_PPM);
#endif

	return 0;
}
   80648:	2000      	movs	r0, #0
   8064a:	bc70      	pop	{r4, r5, r6}
   8064c:	4770      	bx	lr
   8064e:	bf00      	nop

00080650 <pwm_channel_update_duty>:
 *
 * \retval 0 if changing succeeds, otherwise fails.
 */
uint32_t pwm_channel_update_duty(Pwm *p_pwm, pwm_channel_t *p_channel,
		uint32_t ul_duty)
{
   80650:	b410      	push	{r4}
	uint32_t ch_num = p_channel->channel;
   80652:	680c      	ldr	r4, [r1, #0]

		/** Check parameter */
	if (p_channel->ul_period < ul_duty) {
   80654:	690b      	ldr	r3, [r1, #16]
   80656:	4293      	cmp	r3, r2
   80658:	d306      	bcc.n	80668 <pwm_channel_update_duty+0x18>
		return PWM_INVALID_ARGUMENT;
	} else {
		/* Save new duty cycle value */
		p_channel->ul_duty = ul_duty;
   8065a:	60ca      	str	r2, [r1, #12]
		mode &= ~PWM_CMR_CPD;
		p_pwm->PWM_CH_NUM[ch_num].PWM_CMR = mode;

		p_pwm->PWM_CH_NUM[ch_num].PWM_CUPD = ul_duty;
#else
		p_pwm->PWM_CH_NUM[ch_num].PWM_CDTYUPD = ul_duty;
   8065c:	eb00 1044 	add.w	r0, r0, r4, lsl #5
   80660:	f8c0 2208 	str.w	r2, [r0, #520]	; 0x208
#endif
	}

	return 0;
   80664:	2000      	movs	r0, #0
   80666:	e001      	b.n	8066c <pwm_channel_update_duty+0x1c>
{
	uint32_t ch_num = p_channel->channel;

		/** Check parameter */
	if (p_channel->ul_period < ul_duty) {
		return PWM_INVALID_ARGUMENT;
   80668:	f64f 70ff 	movw	r0, #65535	; 0xffff
		p_pwm->PWM_CH_NUM[ch_num].PWM_CDTYUPD = ul_duty;
#endif
	}

	return 0;
}
   8066c:	f85d 4b04 	ldr.w	r4, [sp], #4
   80670:	4770      	bx	lr
   80672:	bf00      	nop

00080674 <pwm_channel_enable>:
 * \param p_pwm Pointer to a PWM instance.
 * \param ul_channel PWM channel number to enable.
 */
void pwm_channel_enable(Pwm *p_pwm, uint32_t ul_channel)
{
	p_pwm->PWM_ENA = (1 << ul_channel);
   80674:	2301      	movs	r3, #1
   80676:	408b      	lsls	r3, r1
   80678:	6043      	str	r3, [r0, #4]
   8067a:	4770      	bx	lr

0008067c <usart_serial_getchar>:
 * \param p_usart   Base address of the USART instance.
 * \param data   Data to read
 *
 */
static inline void usart_serial_getchar(usart_if p_usart, uint8_t *data)
{
   8067c:	b5f0      	push	{r4, r5, r6, r7, lr}
   8067e:	b083      	sub	sp, #12
   80680:	4604      	mov	r4, r0
   80682:	460d      	mov	r5, r1
	uint32_t val = 0;
   80684:	2300      	movs	r3, #0
   80686:	9301      	str	r3, [sp, #4]

	/* Avoid Cppcheck Warning */
	UNUSED(val);

#ifdef UART
	if (UART == (Uart*)p_usart) {
   80688:	4b1f      	ldr	r3, [pc, #124]	; (80708 <usart_serial_getchar+0x8c>)
   8068a:	4298      	cmp	r0, r3
   8068c:	d107      	bne.n	8069e <usart_serial_getchar+0x22>
		while (uart_read((Uart*)p_usart, data));
   8068e:	461f      	mov	r7, r3
   80690:	4e1e      	ldr	r6, [pc, #120]	; (8070c <usart_serial_getchar+0x90>)
   80692:	4638      	mov	r0, r7
   80694:	4629      	mov	r1, r5
   80696:	47b0      	blx	r6
   80698:	2800      	cmp	r0, #0
   8069a:	d1fa      	bne.n	80692 <usart_serial_getchar+0x16>
   8069c:	e019      	b.n	806d2 <usart_serial_getchar+0x56>
		while (usart_read(p_usart, &val));
		*data = (uint8_t)(val & 0xFF);
	}
#else
# ifdef USART0
	if (USART0 == p_usart) {
   8069e:	4b1c      	ldr	r3, [pc, #112]	; (80710 <usart_serial_getchar+0x94>)
   806a0:	4298      	cmp	r0, r3
   806a2:	d109      	bne.n	806b8 <usart_serial_getchar+0x3c>
		while (usart_read(p_usart, &val));
   806a4:	461f      	mov	r7, r3
   806a6:	4e1b      	ldr	r6, [pc, #108]	; (80714 <usart_serial_getchar+0x98>)
   806a8:	4638      	mov	r0, r7
   806aa:	a901      	add	r1, sp, #4
   806ac:	47b0      	blx	r6
   806ae:	2800      	cmp	r0, #0
   806b0:	d1fa      	bne.n	806a8 <usart_serial_getchar+0x2c>
		*data = (uint8_t)(val & 0xFF);
   806b2:	9b01      	ldr	r3, [sp, #4]
   806b4:	702b      	strb	r3, [r5, #0]
   806b6:	e019      	b.n	806ec <usart_serial_getchar+0x70>
	}
# endif
# ifdef USART1
	if (USART1 == p_usart) {
   806b8:	4b17      	ldr	r3, [pc, #92]	; (80718 <usart_serial_getchar+0x9c>)
   806ba:	4298      	cmp	r0, r3
   806bc:	d109      	bne.n	806d2 <usart_serial_getchar+0x56>
		while (usart_read(p_usart, &val));
   806be:	461e      	mov	r6, r3
   806c0:	4c14      	ldr	r4, [pc, #80]	; (80714 <usart_serial_getchar+0x98>)
   806c2:	4630      	mov	r0, r6
   806c4:	a901      	add	r1, sp, #4
   806c6:	47a0      	blx	r4
   806c8:	2800      	cmp	r0, #0
   806ca:	d1fa      	bne.n	806c2 <usart_serial_getchar+0x46>
		*data = (uint8_t)(val & 0xFF);
   806cc:	9b01      	ldr	r3, [sp, #4]
   806ce:	702b      	strb	r3, [r5, #0]
   806d0:	e018      	b.n	80704 <usart_serial_getchar+0x88>
	}
# endif
# ifdef USART2
	if (USART2 == p_usart) {
   806d2:	4b12      	ldr	r3, [pc, #72]	; (8071c <usart_serial_getchar+0xa0>)
   806d4:	429c      	cmp	r4, r3
   806d6:	d109      	bne.n	806ec <usart_serial_getchar+0x70>
		while (usart_read(p_usart, &val));
   806d8:	461e      	mov	r6, r3
   806da:	4c0e      	ldr	r4, [pc, #56]	; (80714 <usart_serial_getchar+0x98>)
   806dc:	4630      	mov	r0, r6
   806de:	a901      	add	r1, sp, #4
   806e0:	47a0      	blx	r4
   806e2:	2800      	cmp	r0, #0
   806e4:	d1fa      	bne.n	806dc <usart_serial_getchar+0x60>
		*data = (uint8_t)(val & 0xFF);
   806e6:	9b01      	ldr	r3, [sp, #4]
   806e8:	702b      	strb	r3, [r5, #0]
   806ea:	e00b      	b.n	80704 <usart_serial_getchar+0x88>
	}
# endif
# ifdef USART3
	if (USART3 == p_usart) {
   806ec:	4b0c      	ldr	r3, [pc, #48]	; (80720 <usart_serial_getchar+0xa4>)
   806ee:	429c      	cmp	r4, r3
   806f0:	d108      	bne.n	80704 <usart_serial_getchar+0x88>
		while (usart_read(p_usart, &val));
   806f2:	461e      	mov	r6, r3
   806f4:	4c07      	ldr	r4, [pc, #28]	; (80714 <usart_serial_getchar+0x98>)
   806f6:	4630      	mov	r0, r6
   806f8:	a901      	add	r1, sp, #4
   806fa:	47a0      	blx	r4
   806fc:	2800      	cmp	r0, #0
   806fe:	d1fa      	bne.n	806f6 <usart_serial_getchar+0x7a>
		*data = (uint8_t)(val & 0xFF);
   80700:	9b01      	ldr	r3, [sp, #4]
   80702:	702b      	strb	r3, [r5, #0]
		*data = (uint8_t)(val & 0xFF);
	}
# endif
#endif /* ifdef USART */

}
   80704:	b003      	add	sp, #12
   80706:	bdf0      	pop	{r4, r5, r6, r7, pc}
   80708:	400e0800 	.word	0x400e0800
   8070c:	00080c0d 	.word	0x00080c0d
   80710:	40098000 	.word	0x40098000
   80714:	00080205 	.word	0x00080205
   80718:	4009c000 	.word	0x4009c000
   8071c:	400a0000 	.word	0x400a0000
   80720:	400a4000 	.word	0x400a4000

00080724 <usart_serial_putchar>:
 *   \retval 1  The character was written.
 *   \retval 0  The function timed out before the USART transmitter became
 * ready to send.
 */
static inline int usart_serial_putchar(usart_if p_usart, const uint8_t c)
{
   80724:	b570      	push	{r4, r5, r6, lr}
   80726:	460c      	mov	r4, r1
#ifdef UART
	if (UART == (Uart*)p_usart) {
   80728:	4b1e      	ldr	r3, [pc, #120]	; (807a4 <usart_serial_putchar+0x80>)
   8072a:	4298      	cmp	r0, r3
   8072c:	d108      	bne.n	80740 <usart_serial_putchar+0x1c>
		while (uart_write((Uart*)p_usart, c)!=0);
   8072e:	461e      	mov	r6, r3
   80730:	4d1d      	ldr	r5, [pc, #116]	; (807a8 <usart_serial_putchar+0x84>)
   80732:	4630      	mov	r0, r6
   80734:	4621      	mov	r1, r4
   80736:	47a8      	blx	r5
   80738:	2800      	cmp	r0, #0
   8073a:	d1fa      	bne.n	80732 <usart_serial_putchar+0xe>
		return 1;
   8073c:	2001      	movs	r0, #1
   8073e:	bd70      	pop	{r4, r5, r6, pc}
		while (usart_write(p_usart, c)!=0);
		return 1;
	}
#else
# ifdef USART0
	if (USART0 == p_usart) {
   80740:	4b1a      	ldr	r3, [pc, #104]	; (807ac <usart_serial_putchar+0x88>)
   80742:	4298      	cmp	r0, r3
   80744:	d108      	bne.n	80758 <usart_serial_putchar+0x34>
		while (usart_write(p_usart, c)!=0);
   80746:	461e      	mov	r6, r3
   80748:	4d19      	ldr	r5, [pc, #100]	; (807b0 <usart_serial_putchar+0x8c>)
   8074a:	4630      	mov	r0, r6
   8074c:	4621      	mov	r1, r4
   8074e:	47a8      	blx	r5
   80750:	2800      	cmp	r0, #0
   80752:	d1fa      	bne.n	8074a <usart_serial_putchar+0x26>
		return 1;
   80754:	2001      	movs	r0, #1
   80756:	bd70      	pop	{r4, r5, r6, pc}
	}
# endif
# ifdef USART1
	if (USART1 == p_usart) {
   80758:	4b16      	ldr	r3, [pc, #88]	; (807b4 <usart_serial_putchar+0x90>)
   8075a:	4298      	cmp	r0, r3
   8075c:	d108      	bne.n	80770 <usart_serial_putchar+0x4c>
		while (usart_write(p_usart, c)!=0);
   8075e:	461e      	mov	r6, r3
   80760:	4d13      	ldr	r5, [pc, #76]	; (807b0 <usart_serial_putchar+0x8c>)
   80762:	4630      	mov	r0, r6
   80764:	4621      	mov	r1, r4
   80766:	47a8      	blx	r5
   80768:	2800      	cmp	r0, #0
   8076a:	d1fa      	bne.n	80762 <usart_serial_putchar+0x3e>
		return 1;
   8076c:	2001      	movs	r0, #1
   8076e:	bd70      	pop	{r4, r5, r6, pc}
	}
# endif
# ifdef USART2
	if (USART2 == p_usart) {
   80770:	4b11      	ldr	r3, [pc, #68]	; (807b8 <usart_serial_putchar+0x94>)
   80772:	4298      	cmp	r0, r3
   80774:	d108      	bne.n	80788 <usart_serial_putchar+0x64>
		while (usart_write(p_usart, c)!=0);
   80776:	461e      	mov	r6, r3
   80778:	4d0d      	ldr	r5, [pc, #52]	; (807b0 <usart_serial_putchar+0x8c>)
   8077a:	4630      	mov	r0, r6
   8077c:	4621      	mov	r1, r4
   8077e:	47a8      	blx	r5
   80780:	2800      	cmp	r0, #0
   80782:	d1fa      	bne.n	8077a <usart_serial_putchar+0x56>
		return 1;
   80784:	2001      	movs	r0, #1
   80786:	bd70      	pop	{r4, r5, r6, pc}
	}
# endif
# ifdef USART3
	if (USART3 == p_usart) {
   80788:	4b0c      	ldr	r3, [pc, #48]	; (807bc <usart_serial_putchar+0x98>)
   8078a:	4298      	cmp	r0, r3
   8078c:	d108      	bne.n	807a0 <usart_serial_putchar+0x7c>
		while (usart_write(p_usart, c)!=0);
   8078e:	461e      	mov	r6, r3
   80790:	4d07      	ldr	r5, [pc, #28]	; (807b0 <usart_serial_putchar+0x8c>)
   80792:	4630      	mov	r0, r6
   80794:	4621      	mov	r1, r4
   80796:	47a8      	blx	r5
   80798:	2800      	cmp	r0, #0
   8079a:	d1fa      	bne.n	80792 <usart_serial_putchar+0x6e>
		return 1;
   8079c:	2001      	movs	r0, #1
   8079e:	bd70      	pop	{r4, r5, r6, pc}
		return 1;
	}
# endif
#endif /* ifdef USART */

	return 0;
   807a0:	2000      	movs	r0, #0
}
   807a2:	bd70      	pop	{r4, r5, r6, pc}
   807a4:	400e0800 	.word	0x400e0800
   807a8:	00080bfd 	.word	0x00080bfd
   807ac:	40098000 	.word	0x40098000
   807b0:	000801f1 	.word	0x000801f1
   807b4:	4009c000 	.word	0x4009c000
   807b8:	400a0000 	.word	0x400a0000
   807bc:	400a4000 	.word	0x400a4000

000807c0 <main>:
	sysclk_enable_peripheral_clock(CONSOLE_UART_ID);
	stdio_serial_init(CONF_UART, &uart_serial_options);
}

int main (void)
{
   807c0:	b570      	push	{r4, r5, r6, lr}
   807c2:	b088      	sub	sp, #32
	/* Insert system clock initialization code here (sysclk_init()). */
	sysclk_init();
   807c4:	4b3b      	ldr	r3, [pc, #236]	; (808b4 <main+0xf4>)
   807c6:	4798      	blx	r3
	board_init();
   807c8:	4b3b      	ldr	r3, [pc, #236]	; (808b8 <main+0xf8>)
   807ca:	4798      	blx	r3
 *
 * \param ul_id Id (number) of the peripheral clock.
 */
static inline void sysclk_enable_peripheral_clock(uint32_t ul_id)
{
	pmc_enable_periph_clk(ul_id);
   807cc:	2008      	movs	r0, #8
   807ce:	4c3b      	ldr	r4, [pc, #236]	; (808bc <main+0xfc>)
   807d0:	47a0      	blx	r4
 * \param opt         Options needed to set up RS232 communication (see \ref usart_options_t).
 *
 */
static inline void stdio_serial_init(volatile void *usart, const usart_serial_options_t *opt)
{
	stdio_base = (void *)usart;
   807d2:	4d3b      	ldr	r5, [pc, #236]	; (808c0 <main+0x100>)
   807d4:	4b3b      	ldr	r3, [pc, #236]	; (808c4 <main+0x104>)
   807d6:	601d      	str	r5, [r3, #0]
	ptr_put = (int (*)(void volatile*,char))&usart_serial_putchar;
   807d8:	4a3b      	ldr	r2, [pc, #236]	; (808c8 <main+0x108>)
   807da:	4b3c      	ldr	r3, [pc, #240]	; (808cc <main+0x10c>)
   807dc:	601a      	str	r2, [r3, #0]
	ptr_get = (void (*)(void volatile*,char*))&usart_serial_getchar;
   807de:	4a3c      	ldr	r2, [pc, #240]	; (808d0 <main+0x110>)
   807e0:	4b3c      	ldr	r3, [pc, #240]	; (808d4 <main+0x114>)
   807e2:	601a      	str	r2, [r3, #0]
static inline void usart_serial_init(usart_if p_usart,
		usart_serial_options_t *opt)
{
#if ((!SAM4L) && (!SAMG55))
	sam_uart_opt_t uart_settings;
	uart_settings.ul_mck = sysclk_get_peripheral_hz();
   807e4:	4b3c      	ldr	r3, [pc, #240]	; (808d8 <main+0x118>)
   807e6:	9305      	str	r3, [sp, #20]
	uart_settings.ul_baudrate = opt->baudrate;
   807e8:	f44f 33e1 	mov.w	r3, #115200	; 0x1c200
   807ec:	9306      	str	r3, [sp, #24]
	uart_settings.ul_mode = opt->paritytype;
   807ee:	f44f 6300 	mov.w	r3, #2048	; 0x800
   807f2:	9307      	str	r3, [sp, #28]
   807f4:	2008      	movs	r0, #8
   807f6:	47a0      	blx	r4
	
#ifdef UART
	if (UART == (Uart*)p_usart) {
		sysclk_enable_peripheral_clock(ID_UART);
		/* Configure UART */
		uart_init((Uart*)p_usart, &uart_settings);
   807f8:	4628      	mov	r0, r5
   807fa:	a905      	add	r1, sp, #20
   807fc:	4b37      	ldr	r3, [pc, #220]	; (808dc <main+0x11c>)
   807fe:	4798      	blx	r3
	fdevopen((int (*)(char, FILE*))(_write),(int (*)(FILE*))(_read));
#  endif
#  if UC3 || SAM
	// For AVR32 and SAM GCC
	// Specify that stdout and stdin should not be buffered.
	setbuf(stdout, NULL);
   80800:	4e37      	ldr	r6, [pc, #220]	; (808e0 <main+0x120>)
   80802:	6833      	ldr	r3, [r6, #0]
   80804:	6898      	ldr	r0, [r3, #8]
   80806:	2100      	movs	r1, #0
   80808:	4d36      	ldr	r5, [pc, #216]	; (808e4 <main+0x124>)
   8080a:	47a8      	blx	r5
	setbuf(stdin, NULL);
   8080c:	6833      	ldr	r3, [r6, #0]
   8080e:	6858      	ldr	r0, [r3, #4]
   80810:	2100      	movs	r1, #0
   80812:	47a8      	blx	r5
   80814:	200b      	movs	r0, #11
   80816:	47a0      	blx	r4
   80818:	200c      	movs	r0, #12
   8081a:	47a0      	blx	r4
   8081c:	200d      	movs	r0, #13
   8081e:	47a0      	blx	r4
   80820:	200e      	movs	r0, #14
   80822:	47a0      	blx	r4
	configure_console();
	ioport_init();	
	motorshield_init();	
   80824:	4b30      	ldr	r3, [pc, #192]	; (808e8 <main+0x128>)
   80826:	4798      	blx	r3
	adc_config();
   80828:	4b30      	ldr	r3, [pc, #192]	; (808ec <main+0x12c>)
   8082a:	4798      	blx	r3
	pwm_config();
   8082c:	4b30      	ldr	r3, [pc, #192]	; (808f0 <main+0x130>)
   8082e:	4798      	blx	r3
		enum ioport_direction dir)
{
	Pio *base = arch_ioport_pin_to_base(pin);

	if (dir == IOPORT_DIR_OUTPUT) {
		base->PIO_OER = arch_ioport_pin_to_mask(pin);
   80830:	4b30      	ldr	r3, [pc, #192]	; (808f4 <main+0x134>)
   80832:	f04f 6280 	mov.w	r2, #67108864	; 0x4000000
   80836:	611a      	str	r2, [r3, #16]
	} else if (dir == IOPORT_DIR_INPUT) {
		base->PIO_ODR = arch_ioport_pin_to_mask(pin);
	}

	base->PIO_OWER = arch_ioport_pin_to_mask(pin);
   80838:	f8c3 20a0 	str.w	r2, [r3, #160]	; 0xa0
		enum ioport_direction dir)
{
	Pio *base = arch_ioport_pin_to_base(pin);

	if (dir == IOPORT_DIR_OUTPUT) {
		base->PIO_OER = arch_ioport_pin_to_mask(pin);
   8083c:	f44f 4280 	mov.w	r2, #16384	; 0x4000
   80840:	611a      	str	r2, [r3, #16]
	} else if (dir == IOPORT_DIR_INPUT) {
		base->PIO_ODR = arch_ioport_pin_to_mask(pin);
	}

	base->PIO_OWER = arch_ioport_pin_to_mask(pin);
   80842:	f8c3 20a0 	str.w	r2, [r3, #160]	; 0xa0

	
	ioport_set_pin_dir(PIO_PB26_IDX, IOPORT_DIR_OUTPUT);
	ioport_set_pin_dir(PIO_PB14_IDX, IOPORT_DIR_OUTPUT);
	
	matlab_recieve_values();
   80846:	4b2c      	ldr	r3, [pc, #176]	; (808f8 <main+0x138>)
   80848:	4798      	blx	r3
	
	vSemaphoreCreateBinary(sync);
   8084a:	2001      	movs	r0, #1
   8084c:	2100      	movs	r1, #0
   8084e:	2203      	movs	r2, #3
   80850:	4b2a      	ldr	r3, [pc, #168]	; (808fc <main+0x13c>)
   80852:	4798      	blx	r3
   80854:	4b2a      	ldr	r3, [pc, #168]	; (80900 <main+0x140>)
   80856:	6018      	str	r0, [r3, #0]
   80858:	b120      	cbz	r0, 80864 <main+0xa4>
   8085a:	2100      	movs	r1, #0
   8085c:	460a      	mov	r2, r1
   8085e:	460b      	mov	r3, r1
   80860:	4c28      	ldr	r4, [pc, #160]	; (80904 <main+0x144>)
   80862:	47a0      	blx	r4
	xTaskCreate(task_idle, (const signed char * const) "Idle", TASK_COM_STACKSIZE, NULL, 1, NULL);	
   80864:	2301      	movs	r3, #1
   80866:	9300      	str	r3, [sp, #0]
   80868:	2400      	movs	r4, #0
   8086a:	9401      	str	r4, [sp, #4]
   8086c:	9402      	str	r4, [sp, #8]
   8086e:	9403      	str	r4, [sp, #12]
   80870:	4825      	ldr	r0, [pc, #148]	; (80908 <main+0x148>)
   80872:	4926      	ldr	r1, [pc, #152]	; (8090c <main+0x14c>)
   80874:	f44f 7200 	mov.w	r2, #512	; 0x200
   80878:	4623      	mov	r3, r4
   8087a:	4d25      	ldr	r5, [pc, #148]	; (80910 <main+0x150>)
   8087c:	47a8      	blx	r5
	xTaskCreate(task_com, (const signed char * const) "Com", TASK_COM_STACKSIZE, NULL, 2, NULL);	
   8087e:	2602      	movs	r6, #2
   80880:	9600      	str	r6, [sp, #0]
   80882:	9401      	str	r4, [sp, #4]
   80884:	9402      	str	r4, [sp, #8]
   80886:	9403      	str	r4, [sp, #12]
   80888:	4822      	ldr	r0, [pc, #136]	; (80914 <main+0x154>)
   8088a:	4923      	ldr	r1, [pc, #140]	; (80918 <main+0x158>)
   8088c:	f44f 7200 	mov.w	r2, #512	; 0x200
   80890:	4623      	mov	r3, r4
   80892:	47a8      	blx	r5
	xTaskCreate(task_regulate, (const signed char * const) "Regulate", TASK_COM_STACKSIZE,NULL,2,NULL);
   80894:	9600      	str	r6, [sp, #0]
   80896:	9401      	str	r4, [sp, #4]
   80898:	9402      	str	r4, [sp, #8]
   8089a:	9403      	str	r4, [sp, #12]
   8089c:	481f      	ldr	r0, [pc, #124]	; (8091c <main+0x15c>)
   8089e:	4920      	ldr	r1, [pc, #128]	; (80920 <main+0x160>)
   808a0:	f44f 7200 	mov.w	r2, #512	; 0x200
   808a4:	4623      	mov	r3, r4
   808a6:	47a8      	blx	r5
	
	vTaskStartScheduler();	
   808a8:	4b1e      	ldr	r3, [pc, #120]	; (80924 <main+0x164>)
   808aa:	4798      	blx	r3
	
}
   808ac:	4620      	mov	r0, r4
   808ae:	b008      	add	sp, #32
   808b0:	bd70      	pop	{r4, r5, r6, pc}
   808b2:	bf00      	nop
   808b4:	0008223d 	.word	0x0008223d
   808b8:	000822a1 	.word	0x000822a1
   808bc:	000826b5 	.word	0x000826b5
   808c0:	400e0800 	.word	0x400e0800
   808c4:	20078dd0 	.word	0x20078dd0
   808c8:	00080725 	.word	0x00080725
   808cc:	20078dcc 	.word	0x20078dcc
   808d0:	0008067d 	.word	0x0008067d
   808d4:	20078dc8 	.word	0x20078dc8
   808d8:	0501bd00 	.word	0x0501bd00
   808dc:	00080bc5 	.word	0x00080bc5
   808e0:	20070570 	.word	0x20070570
   808e4:	00083685 	.word	0x00083685
   808e8:	00080929 	.word	0x00080929
   808ec:	00080151 	.word	0x00080151
   808f0:	00080975 	.word	0x00080975
   808f4:	400e1000 	.word	0x400e1000
   808f8:	000802a1 	.word	0x000802a1
   808fc:	0008111d 	.word	0x0008111d
   80900:	20070130 	.word	0x20070130
   80904:	00081175 	.word	0x00081175
   80908:	0008027d 	.word	0x0008027d
   8090c:	000867bc 	.word	0x000867bc
   80910:	00081539 	.word	0x00081539
   80914:	000809fd 	.word	0x000809fd
   80918:	000867c4 	.word	0x000867c4
   8091c:	00080a99 	.word	0x00080a99
   80920:	000867c8 	.word	0x000867c8
   80924:	0008173d 	.word	0x0008173d

00080928 <motorshield_init>:
	Pio *base = arch_ioport_pin_to_base(pin);

	if (dir == IOPORT_DIR_OUTPUT) {
		base->PIO_OER = arch_ioport_pin_to_mask(pin);
	} else if (dir == IOPORT_DIR_INPUT) {
		base->PIO_ODR = arch_ioport_pin_to_mask(pin);
   80928:	4b09      	ldr	r3, [pc, #36]	; (80950 <motorshield_init+0x28>)
   8092a:	f04f 6280 	mov.w	r2, #67108864	; 0x4000000
   8092e:	615a      	str	r2, [r3, #20]
	}

	base->PIO_OWER = arch_ioport_pin_to_mask(pin);
   80930:	f8c3 20a0 	str.w	r2, [r3, #160]	; 0xa0
		enum ioport_direction dir)
{
	Pio *base = arch_ioport_pin_to_base(pin);

	if (dir == IOPORT_DIR_OUTPUT) {
		base->PIO_OER = arch_ioport_pin_to_mask(pin);
   80934:	4a07      	ldr	r2, [pc, #28]	; (80954 <motorshield_init+0x2c>)
   80936:	f44f 0180 	mov.w	r1, #4194304	; 0x400000
   8093a:	6111      	str	r1, [r2, #16]
	} else if (dir == IOPORT_DIR_INPUT) {
		base->PIO_ODR = arch_ioport_pin_to_mask(pin);
	}

	base->PIO_OWER = arch_ioport_pin_to_mask(pin);
   8093c:	f8c2 10a0 	str.w	r1, [r2, #160]	; 0xa0
	Pio *base = arch_ioport_pin_to_base(pin);

	if (level) {
		base->PIO_SODR = arch_ioport_pin_to_mask(pin);
	} else {
		base->PIO_CODR = arch_ioport_pin_to_mask(pin);
   80940:	6351      	str	r1, [r2, #52]	; 0x34
		enum ioport_direction dir)
{
	Pio *base = arch_ioport_pin_to_base(pin);

	if (dir == IOPORT_DIR_OUTPUT) {
		base->PIO_OER = arch_ioport_pin_to_mask(pin);
   80942:	f04f 6200 	mov.w	r2, #134217728	; 0x8000000
   80946:	611a      	str	r2, [r3, #16]
	} else if (dir == IOPORT_DIR_INPUT) {
		base->PIO_ODR = arch_ioport_pin_to_mask(pin);
	}

	base->PIO_OWER = arch_ioport_pin_to_mask(pin);
   80948:	f8c3 20a0 	str.w	r2, [r3, #160]	; 0xa0
		bool level)
{
	Pio *base = arch_ioport_pin_to_base(pin);

	if (level) {
		base->PIO_SODR = arch_ioport_pin_to_mask(pin);
   8094c:	631a      	str	r2, [r3, #48]	; 0x30
   8094e:	4770      	bx	lr
   80950:	400e1000 	.word	0x400e1000
   80954:	400e1200 	.word	0x400e1200

00080958 <pwm_set_duty_cycle>:
		pwm_set_duty_cycle(0);		
	}
}

void pwm_set_duty_cycle(uint32_t dutycycle)
{
   80958:	b508      	push	{r3, lr}
   8095a:	4602      	mov	r2, r0
	pwm_channel_update_duty(PWM, &pwm_instance, dutycycle);
   8095c:	4802      	ldr	r0, [pc, #8]	; (80968 <pwm_set_duty_cycle+0x10>)
   8095e:	4903      	ldr	r1, [pc, #12]	; (8096c <pwm_set_duty_cycle+0x14>)
   80960:	4b03      	ldr	r3, [pc, #12]	; (80970 <pwm_set_duty_cycle+0x18>)
   80962:	4798      	blx	r3
   80964:	bd08      	pop	{r3, pc}
   80966:	bf00      	nop
   80968:	40094000 	.word	0x40094000
   8096c:	20070b34 	.word	0x20070b34
   80970:	00080651 	.word	0x00080651

00080974 <pwm_config>:
#include "pwm_func.h"

static pwm_channel_t pwm_instance;

void pwm_config(void)
{
   80974:	b530      	push	{r4, r5, lr}
   80976:	b085      	sub	sp, #20
	if(pmc_enable_periph_clk(ID_PWM) == 0) {		
   80978:	2024      	movs	r0, #36	; 0x24
   8097a:	4b15      	ldr	r3, [pc, #84]	; (809d0 <pwm_config+0x5c>)
   8097c:	4798      	blx	r3
   8097e:	bb28      	cbnz	r0, 809cc <pwm_config+0x58>
		pwm_clock_t pwmclock = {
   80980:	4b14      	ldr	r3, [pc, #80]	; (809d4 <pwm_config+0x60>)
   80982:	9301      	str	r3, [sp, #4]
   80984:	2400      	movs	r4, #0
   80986:	9402      	str	r4, [sp, #8]
   80988:	4b13      	ldr	r3, [pc, #76]	; (809d8 <pwm_config+0x64>)
   8098a:	9303      	str	r3, [sp, #12]
			.ul_clka = PWM_FREQUENCY * PWM_RESOLUTION,
			.ul_clkb = 0,
			.ul_mck = sysclk_get_cpu_hz()
		};
		pwm_init(PWM, &pwmclock);
   8098c:	4d13      	ldr	r5, [pc, #76]	; (809dc <pwm_config+0x68>)
   8098e:	4628      	mov	r0, r5
   80990:	a901      	add	r1, sp, #4
   80992:	4b13      	ldr	r3, [pc, #76]	; (809e0 <pwm_config+0x6c>)
   80994:	4798      	blx	r3
		pwm_instance.alignment = PWM_ALIGN_LEFT;
   80996:	4913      	ldr	r1, [pc, #76]	; (809e4 <pwm_config+0x70>)
   80998:	810c      	strh	r4, [r1, #8]
		pwm_instance.polarity = PWM_LOW;
   8099a:	728c      	strb	r4, [r1, #10]
		pwm_instance.ul_prescaler = PWM_CMR_CPRE_CLKA;
   8099c:	230b      	movs	r3, #11
   8099e:	604b      	str	r3, [r1, #4]
		pwm_instance.ul_period = PWM_RESOLUTION;
   809a0:	f240 33e7 	movw	r3, #999	; 0x3e7
   809a4:	610b      	str	r3, [r1, #16]
		pwm_instance.ul_duty = 0;
   809a6:	60cc      	str	r4, [r1, #12]
		pwm_instance.channel = PWM_CHANNEL_0;
   809a8:	600c      	str	r4, [r1, #0]
		pwm_channel_init(PWM, &pwm_instance);
   809aa:	4628      	mov	r0, r5
   809ac:	4b0e      	ldr	r3, [pc, #56]	; (809e8 <pwm_config+0x74>)
   809ae:	4798      	blx	r3
		
		pio_set_peripheral(PWM_PIO, PWM_PIO_PERIPHERAL, PWM_PIO_PIN);
   809b0:	480e      	ldr	r0, [pc, #56]	; (809ec <pwm_config+0x78>)
   809b2:	f04f 5180 	mov.w	r1, #268435456	; 0x10000000
   809b6:	f44f 3280 	mov.w	r2, #65536	; 0x10000
   809ba:	4b0d      	ldr	r3, [pc, #52]	; (809f0 <pwm_config+0x7c>)
   809bc:	4798      	blx	r3
		pwm_channel_enable(PWM, PWM_CHANNEL_0);
   809be:	4628      	mov	r0, r5
   809c0:	4621      	mov	r1, r4
   809c2:	4b0c      	ldr	r3, [pc, #48]	; (809f4 <pwm_config+0x80>)
   809c4:	4798      	blx	r3
		pwm_set_duty_cycle(0);		
   809c6:	4620      	mov	r0, r4
   809c8:	4b0b      	ldr	r3, [pc, #44]	; (809f8 <pwm_config+0x84>)
   809ca:	4798      	blx	r3
	}
}
   809cc:	b005      	add	sp, #20
   809ce:	bd30      	pop	{r4, r5, pc}
   809d0:	000826b5 	.word	0x000826b5
   809d4:	000f3e58 	.word	0x000f3e58
   809d8:	0501bd00 	.word	0x0501bd00
   809dc:	40094000 	.word	0x40094000
   809e0:	000804fd 	.word	0x000804fd
   809e4:	20070b34 	.word	0x20070b34
   809e8:	00080549 	.word	0x00080549
   809ec:	400e1000 	.word	0x400e1000
   809f0:	00082311 	.word	0x00082311
   809f4:	00080675 	.word	0x00080675
   809f8:	00080959 	.word	0x00080959

000809fc <task_com>:
 */ 
#include <asf.h>
#include "sync.h"

void task_com(void *pvParameters)
{	
   809fc:	e92d 47f0 	stmdb	sp!, {r4, r5, r6, r7, r8, r9, sl, lr}
   80a00:	b082      	sub	sp, #8
	portTickType xLastWakeTime;
	const portTickType xTimeIncrement = timer;
   80a02:	4b19      	ldr	r3, [pc, #100]	; (80a68 <task_com+0x6c>)
   80a04:	f8b3 9000 	ldrh.w	r9, [r3]
	
	xLastWakeTime = xTaskGetTickCount();
   80a08:	4b18      	ldr	r3, [pc, #96]	; (80a6c <task_com+0x70>)
   80a0a:	4798      	blx	r3
   80a0c:	f8ad 0006 	strh.w	r0, [sp, #6]
   80a10:	4c17      	ldr	r4, [pc, #92]	; (80a70 <task_com+0x74>)
   80a12:	f04f 6680 	mov.w	r6, #67108864	; 0x4000000
   80a16:	46b0      	mov	r8, r6
	while(1)
	{	
		/*	Set pin high for performance measurement	 */
		ioport_set_pin_level(PIO_PB26_IDX,HIGH);
		
		if(xSemaphoreTake(sync, portMAX_DELAY)){
   80a18:	4d16      	ldr	r5, [pc, #88]	; (80a74 <task_com+0x78>)
   80a1a:	4f17      	ldr	r7, [pc, #92]	; (80a78 <task_com+0x7c>)
   80a1c:	f8c4 8030 	str.w	r8, [r4, #48]	; 0x30
   80a20:	6828      	ldr	r0, [r5, #0]
   80a22:	2100      	movs	r1, #0
   80a24:	f64f 72ff 	movw	r2, #65535	; 0xffff
   80a28:	460b      	mov	r3, r1
   80a2a:	47b8      	blx	r7
   80a2c:	b1a0      	cbz	r0, 80a58 <task_com+0x5c>
			itoa(dac_value, str, 10);
   80a2e:	f8df a05c 	ldr.w	sl, [pc, #92]	; 80a8c <task_com+0x90>
   80a32:	4b12      	ldr	r3, [pc, #72]	; (80a7c <task_com+0x80>)
   80a34:	8818      	ldrh	r0, [r3, #0]
   80a36:	4651      	mov	r1, sl
   80a38:	220a      	movs	r2, #10
   80a3a:	4b11      	ldr	r3, [pc, #68]	; (80a80 <task_com+0x84>)
   80a3c:	4798      	blx	r3
			printf(str);
   80a3e:	4650      	mov	r0, sl
   80a40:	f8df a04c 	ldr.w	sl, [pc, #76]	; 80a90 <task_com+0x94>
   80a44:	47d0      	blx	sl
			printf("\n");
   80a46:	480f      	ldr	r0, [pc, #60]	; (80a84 <task_com+0x88>)
   80a48:	47d0      	blx	sl
			xSemaphoreGive(sync);
   80a4a:	6828      	ldr	r0, [r5, #0]
   80a4c:	2100      	movs	r1, #0
   80a4e:	460a      	mov	r2, r1
   80a50:	460b      	mov	r3, r1
   80a52:	f8df c040 	ldr.w	ip, [pc, #64]	; 80a94 <task_com+0x98>
   80a56:	47e0      	blx	ip
	} else {
		base->PIO_CODR = arch_ioport_pin_to_mask(pin);
   80a58:	6366      	str	r6, [r4, #52]	; 0x34
		}
		/*	Set pin low for performance measurement	 */
		ioport_set_pin_level(PIO_PB26_IDX,LOW);
		
		/* Sleep for some time */
		vTaskDelayUntil(&xLastWakeTime, xTimeIncrement);
   80a5a:	f10d 0006 	add.w	r0, sp, #6
   80a5e:	4649      	mov	r1, r9
   80a60:	4b09      	ldr	r3, [pc, #36]	; (80a88 <task_com+0x8c>)
   80a62:	4798      	blx	r3
		
		
	}
   80a64:	e7da      	b.n	80a1c <task_com+0x20>
   80a66:	bf00      	nop
   80a68:	20070134 	.word	0x20070134
   80a6c:	000817b9 	.word	0x000817b9
   80a70:	400e1000 	.word	0x400e1000
   80a74:	20070130 	.word	0x20070130
   80a78:	0008132d 	.word	0x0008132d
   80a7c:	20070136 	.word	0x20070136
   80a80:	000834c5 	.word	0x000834c5
   80a84:	000867e4 	.word	0x000867e4
   80a88:	00081a09 	.word	0x00081a09
   80a8c:	20070b5c 	.word	0x20070b5c
   80a90:	0008346d 	.word	0x0008346d
   80a94:	00081175 	.word	0x00081175

00080a98 <task_regulate>:
#include <asf.h>
#include "pwm_func.h"
#include "sync.h"

void task_regulate(void *pvParameters)
{
   80a98:	e92d 4ff0 	stmdb	sp!, {r4, r5, r6, r7, r8, r9, sl, fp, lr}
   80a9c:	b087      	sub	sp, #28
	uint16_t invalue;
	portTickType xLastWakeTime;
	const portTickType xTimeIncrement = timer;
   80a9e:	4b34      	ldr	r3, [pc, #208]	; (80b70 <task_regulate+0xd8>)
   80aa0:	881b      	ldrh	r3, [r3, #0]
   80aa2:	9303      	str	r3, [sp, #12]
	xLastWakeTime = xTaskGetTickCount();
   80aa4:	4b33      	ldr	r3, [pc, #204]	; (80b74 <task_regulate+0xdc>)
   80aa6:	4798      	blx	r3
   80aa8:	f8ad 0016 	strh.w	r0, [sp, #22]
	
	static float xbuff[4] = {0};
	int k;
	float temp = 0;
   80aac:	2300      	movs	r3, #0
   80aae:	469a      	mov	sl, r3
		bool level)
{
	Pio *base = arch_ioport_pin_to_base(pin);

	if (level) {
		base->PIO_SODR = arch_ioport_pin_to_mask(pin);
   80ab0:	f44f 4380 	mov.w	r3, #16384	; 0x4000
   80ab4:	9302      	str	r3, [sp, #8]
	
	while(1){
		ioport_set_pin_level(PIO_PB14_IDX,HIGH);
		adc_start(ADC);
		while ((adc_get_status(ADC) & 0x1<<24)==0);
   80ab6:	4f30      	ldr	r7, [pc, #192]	; (80b78 <task_regulate+0xe0>)
   80ab8:	4b30      	ldr	r3, [pc, #192]	; (80b7c <task_regulate+0xe4>)
   80aba:	9a02      	ldr	r2, [sp, #8]
   80abc:	631a      	str	r2, [r3, #48]	; 0x30
	int k;
	float temp = 0;
	
	while(1){
		ioport_set_pin_level(PIO_PB14_IDX,HIGH);
		adc_start(ADC);
   80abe:	4830      	ldr	r0, [pc, #192]	; (80b80 <task_regulate+0xe8>)
   80ac0:	4b30      	ldr	r3, [pc, #192]	; (80b84 <task_regulate+0xec>)
   80ac2:	4798      	blx	r3
		while ((adc_get_status(ADC) & 0x1<<24)==0);
   80ac4:	482e      	ldr	r0, [pc, #184]	; (80b80 <task_regulate+0xe8>)
   80ac6:	47b8      	blx	r7
   80ac8:	f010 7f80 	tst.w	r0, #16777216	; 0x1000000
   80acc:	d0fa      	beq.n	80ac4 <task_regulate+0x2c>
		invalue = adc_get_latest_value(ADC);
   80ace:	482c      	ldr	r0, [pc, #176]	; (80b80 <task_regulate+0xe8>)
   80ad0:	4b2d      	ldr	r3, [pc, #180]	; (80b88 <task_regulate+0xf0>)
   80ad2:	4798      	blx	r3
   80ad4:	b285      	uxth	r5, r0
		
		if(xSemaphoreTake(sync, portMAX_DELAY)){
   80ad6:	4b2d      	ldr	r3, [pc, #180]	; (80b8c <task_regulate+0xf4>)
   80ad8:	6818      	ldr	r0, [r3, #0]
   80ada:	2100      	movs	r1, #0
   80adc:	f64f 72ff 	movw	r2, #65535	; 0xffff
   80ae0:	460b      	mov	r3, r1
   80ae2:	4c2b      	ldr	r4, [pc, #172]	; (80b90 <task_regulate+0xf8>)
   80ae4:	47a0      	blx	r4
   80ae6:	2800      	cmp	r0, #0
   80ae8:	d02b      	beq.n	80b42 <task_regulate+0xaa>
			dac_value = invalue;
   80aea:	4b2a      	ldr	r3, [pc, #168]	; (80b94 <task_regulate+0xfc>)
   80aec:	801d      	strh	r5, [r3, #0]
			xSemaphoreGive(sync);
   80aee:	4b27      	ldr	r3, [pc, #156]	; (80b8c <task_regulate+0xf4>)
   80af0:	6818      	ldr	r0, [r3, #0]
   80af2:	2100      	movs	r1, #0
   80af4:	460a      	mov	r2, r1
   80af6:	460b      	mov	r3, r1
   80af8:	4c27      	ldr	r4, [pc, #156]	; (80b98 <task_regulate+0x100>)
   80afa:	47a0      	blx	r4
   80afc:	e021      	b.n	80b42 <task_regulate+0xaa>
			xbuff[k] = xbuff[k-1];
		}
		xbuff[0] = invalue;
		
		for(k = 0; k <= 3; k++){
			temp += 0.25*xbuff[k];
   80afe:	f855 ab04 	ldr.w	sl, [r5], #4
   80b02:	47b0      	blx	r6
   80b04:	e9cd 0100 	strd	r0, r1, [sp]
   80b08:	4650      	mov	r0, sl
   80b0a:	47b0      	blx	r6
   80b0c:	2200      	movs	r2, #0
   80b0e:	4b23      	ldr	r3, [pc, #140]	; (80b9c <task_regulate+0x104>)
   80b10:	47c0      	blx	r8
   80b12:	4602      	mov	r2, r0
   80b14:	460b      	mov	r3, r1
   80b16:	e9dd 0100 	ldrd	r0, r1, [sp]
   80b1a:	47c8      	blx	r9
   80b1c:	47d8      	blx	fp
		for(k = 3; k > 0; k--){
			xbuff[k] = xbuff[k-1];
		}
		xbuff[0] = invalue;
		
		for(k = 0; k <= 3; k++){
   80b1e:	42a5      	cmp	r5, r4
   80b20:	d1ed      	bne.n	80afe <task_regulate+0x66>
   80b22:	4682      	mov	sl, r0
			temp += 0.25*xbuff[k];
		}
		invalue = (uint16_t)temp;
   80b24:	4b1e      	ldr	r3, [pc, #120]	; (80ba0 <task_regulate+0x108>)
   80b26:	4798      	blx	r3
		
		pwm_set_duty_cycle(invalue);
   80b28:	b280      	uxth	r0, r0
   80b2a:	4b1e      	ldr	r3, [pc, #120]	; (80ba4 <task_regulate+0x10c>)
   80b2c:	4798      	blx	r3
	} else {
		base->PIO_CODR = arch_ioport_pin_to_mask(pin);
   80b2e:	4b13      	ldr	r3, [pc, #76]	; (80b7c <task_regulate+0xe4>)
   80b30:	f44f 4280 	mov.w	r2, #16384	; 0x4000
   80b34:	635a      	str	r2, [r3, #52]	; 0x34
		ioport_set_pin_level(PIO_PB14_IDX,LOW);
		vTaskDelayUntil(&xLastWakeTime, xTimeIncrement);
   80b36:	f10d 0016 	add.w	r0, sp, #22
   80b3a:	9903      	ldr	r1, [sp, #12]
   80b3c:	4b1a      	ldr	r3, [pc, #104]	; (80ba8 <task_regulate+0x110>)
   80b3e:	4798      	blx	r3
	}
   80b40:	e7ba      	b.n	80ab8 <task_regulate+0x20>
			dac_value = invalue;
			xSemaphoreGive(sync);
		}
		
		for(k = 3; k > 0; k--){
			xbuff[k] = xbuff[k-1];
   80b42:	4c1a      	ldr	r4, [pc, #104]	; (80bac <task_regulate+0x114>)
   80b44:	68a3      	ldr	r3, [r4, #8]
   80b46:	60e3      	str	r3, [r4, #12]
   80b48:	6863      	ldr	r3, [r4, #4]
   80b4a:	60a3      	str	r3, [r4, #8]
   80b4c:	6823      	ldr	r3, [r4, #0]
   80b4e:	6063      	str	r3, [r4, #4]
		}
		xbuff[0] = invalue;
   80b50:	4628      	mov	r0, r5
   80b52:	4b17      	ldr	r3, [pc, #92]	; (80bb0 <task_regulate+0x118>)
   80b54:	4798      	blx	r3
   80b56:	6020      	str	r0, [r4, #0]
   80b58:	4625      	mov	r5, r4
   80b5a:	3410      	adds	r4, #16
		
		for(k = 0; k <= 3; k++){
			temp += 0.25*xbuff[k];
   80b5c:	4e15      	ldr	r6, [pc, #84]	; (80bb4 <task_regulate+0x11c>)
   80b5e:	f8df 8058 	ldr.w	r8, [pc, #88]	; 80bb8 <task_regulate+0x120>
   80b62:	f8df 9058 	ldr.w	r9, [pc, #88]	; 80bbc <task_regulate+0x124>
   80b66:	f8df b058 	ldr.w	fp, [pc, #88]	; 80bc0 <task_regulate+0x128>
   80b6a:	4650      	mov	r0, sl
   80b6c:	e7c7      	b.n	80afe <task_regulate+0x66>
   80b6e:	bf00      	nop
   80b70:	20070134 	.word	0x20070134
   80b74:	000817b9 	.word	0x000817b9
   80b78:	000804a5 	.word	0x000804a5
   80b7c:	400e1000 	.word	0x400e1000
   80b80:	400c0000 	.word	0x400c0000
   80b84:	00080491 	.word	0x00080491
   80b88:	000804a1 	.word	0x000804a1
   80b8c:	20070130 	.word	0x20070130
   80b90:	0008132d 	.word	0x0008132d
   80b94:	20070136 	.word	0x20070136
   80b98:	00081175 	.word	0x00081175
   80b9c:	3fd00000 	.word	0x3fd00000
   80ba0:	00083379 	.word	0x00083379
   80ba4:	00080959 	.word	0x00080959
   80ba8:	00081a09 	.word	0x00081a09
   80bac:	20070b64 	.word	0x20070b64
   80bb0:	000832c9 	.word	0x000832c9
   80bb4:	00082bf1 	.word	0x00082bf1
   80bb8:	00082c99 	.word	0x00082c99
   80bbc:	00082935 	.word	0x00082935
   80bc0:	000830bd 	.word	0x000830bd

00080bc4 <uart_init>:
 *
 * \retval 0 Success.
 * \retval 1 Bad baud rate generator value.
 */
uint32_t uart_init(Uart *p_uart, const sam_uart_opt_t *p_uart_opt)
{
   80bc4:	b410      	push	{r4}
	uint32_t cd = 0;

	/* Reset and disable receiver & transmitter */
	p_uart->UART_CR = UART_CR_RSTRX | UART_CR_RSTTX
   80bc6:	23ac      	movs	r3, #172	; 0xac
   80bc8:	6003      	str	r3, [r0, #0]
			| UART_CR_RXDIS | UART_CR_TXDIS;

	/* Check and configure baudrate */
	/* Asynchronous, no oversampling */
	cd = (p_uart_opt->ul_mck / p_uart_opt->ul_baudrate) / UART_MCK_DIV;
   80bca:	680b      	ldr	r3, [r1, #0]
   80bcc:	684a      	ldr	r2, [r1, #4]
   80bce:	fbb3 f3f2 	udiv	r3, r3, r2
   80bd2:	091b      	lsrs	r3, r3, #4
	if (cd < UART_MCK_DIV_MIN_FACTOR || cd > UART_MCK_DIV_MAX_FACTOR)
   80bd4:	1e5c      	subs	r4, r3, #1
   80bd6:	f64f 72fe 	movw	r2, #65534	; 0xfffe
   80bda:	4294      	cmp	r4, r2
   80bdc:	d80a      	bhi.n	80bf4 <uart_init+0x30>
		return 1;

	p_uart->UART_BRGR = cd;
   80bde:	6203      	str	r3, [r0, #32]
	/* Configure mode */
	p_uart->UART_MR = p_uart_opt->ul_mode;
   80be0:	688b      	ldr	r3, [r1, #8]
   80be2:	6043      	str	r3, [r0, #4]

#if (!SAMV71 && !SAMV70 && !SAME70 && !SAMS70)
	/* Disable PDC channel */
	p_uart->UART_PTCR = UART_PTCR_RXTDIS | UART_PTCR_TXTDIS;
   80be4:	f240 2302 	movw	r3, #514	; 0x202
   80be8:	f8c0 3120 	str.w	r3, [r0, #288]	; 0x120
#endif

	/* Enable receiver and transmitter */
	p_uart->UART_CR = UART_CR_RXEN | UART_CR_TXEN;
   80bec:	2350      	movs	r3, #80	; 0x50
   80bee:	6003      	str	r3, [r0, #0]

	return 0;
   80bf0:	2000      	movs	r0, #0
   80bf2:	e000      	b.n	80bf6 <uart_init+0x32>

	/* Check and configure baudrate */
	/* Asynchronous, no oversampling */
	cd = (p_uart_opt->ul_mck / p_uart_opt->ul_baudrate) / UART_MCK_DIV;
	if (cd < UART_MCK_DIV_MIN_FACTOR || cd > UART_MCK_DIV_MAX_FACTOR)
		return 1;
   80bf4:	2001      	movs	r0, #1

	/* Enable receiver and transmitter */
	p_uart->UART_CR = UART_CR_RXEN | UART_CR_TXEN;

	return 0;
}
   80bf6:	f85d 4b04 	ldr.w	r4, [sp], #4
   80bfa:	4770      	bx	lr

00080bfc <uart_write>:
 * \retval 1 I/O Failure, UART is not ready.
 */
uint32_t uart_write(Uart *p_uart, const uint8_t uc_data)
{
	/* Check if the transmitter is ready */
	if (!(p_uart->UART_SR & UART_SR_TXRDY))
   80bfc:	6943      	ldr	r3, [r0, #20]
   80bfe:	f013 0f02 	tst.w	r3, #2
		return 1;

	/* Send character */
	p_uart->UART_THR = uc_data;
   80c02:	bf1a      	itte	ne
   80c04:	61c1      	strne	r1, [r0, #28]
	return 0;
   80c06:	2000      	movne	r0, #0
 */
uint32_t uart_write(Uart *p_uart, const uint8_t uc_data)
{
	/* Check if the transmitter is ready */
	if (!(p_uart->UART_SR & UART_SR_TXRDY))
		return 1;
   80c08:	2001      	moveq	r0, #1

	/* Send character */
	p_uart->UART_THR = uc_data;
	return 0;
}
   80c0a:	4770      	bx	lr

00080c0c <uart_read>:
 * \retval 1 I/O Failure, UART is not ready.
 */
uint32_t uart_read(Uart *p_uart, uint8_t *puc_data)
{
	/* Check if the receiver is ready */
	if ((p_uart->UART_SR & UART_SR_RXRDY) == 0)
   80c0c:	6943      	ldr	r3, [r0, #20]
   80c0e:	f013 0f01 	tst.w	r3, #1
		return 1;

	/* Read character */
	*puc_data = (uint8_t) p_uart->UART_RHR;
   80c12:	bf1d      	ittte	ne
   80c14:	6983      	ldrne	r3, [r0, #24]
   80c16:	700b      	strbne	r3, [r1, #0]
	return 0;
   80c18:	2000      	movne	r0, #0
 */
uint32_t uart_read(Uart *p_uart, uint8_t *puc_data)
{
	/* Check if the receiver is ready */
	if ((p_uart->UART_SR & UART_SR_RXRDY) == 0)
		return 1;
   80c1a:	2001      	moveq	r0, #1

	/* Read character */
	*puc_data = (uint8_t) p_uart->UART_RHR;
	return 0;
}
   80c1c:	4770      	bx	lr
   80c1e:	bf00      	nop

00080c20 <vListInitialise>:
void vListInitialise( xList *pxList )
{
	/* The list structure contains a list item which is used to mark the
	end of the list.  To initialise the list the list end is inserted
	as the only list entry. */
	pxList->pxIndex = ( xListItem * ) &( pxList->xListEnd );
   80c20:	f100 0308 	add.w	r3, r0, #8
   80c24:	6043      	str	r3, [r0, #4]

	/* The list end value is the highest possible value in the list to
	ensure it remains at the end of the list. */
	pxList->xListEnd.xItemValue = portMAX_DELAY;
   80c26:	f64f 72ff 	movw	r2, #65535	; 0xffff
   80c2a:	8102      	strh	r2, [r0, #8]

	/* The list end next and previous pointers point to itself so we know
	when the list is empty. */
	pxList->xListEnd.pxNext = ( xListItem * ) &( pxList->xListEnd );
   80c2c:	60c3      	str	r3, [r0, #12]
	pxList->xListEnd.pxPrevious = ( xListItem * ) &( pxList->xListEnd );
   80c2e:	6103      	str	r3, [r0, #16]

	pxList->uxNumberOfItems = ( unsigned portBASE_TYPE ) 0U;
   80c30:	2300      	movs	r3, #0
   80c32:	6003      	str	r3, [r0, #0]
   80c34:	4770      	bx	lr
   80c36:	bf00      	nop

00080c38 <vListInitialiseItem>:
/*-----------------------------------------------------------*/

void vListInitialiseItem( xListItem *pxItem )
{
	/* Make sure the list item is not recorded as being on a list. */
	pxItem->pvContainer = NULL;
   80c38:	2300      	movs	r3, #0
   80c3a:	6103      	str	r3, [r0, #16]
   80c3c:	4770      	bx	lr
   80c3e:	bf00      	nop

00080c40 <vListInsertEnd>:

	/* Insert a new list item into pxList, but rather than sort the list,
	makes the new list item the last item to be removed by a call to
	pvListGetOwnerOfNextEntry.  This means it has to be the item pointed to by
	the pxIndex member. */
	pxIndex = pxList->pxIndex;
   80c40:	6843      	ldr	r3, [r0, #4]

	pxNewListItem->pxNext = pxIndex->pxNext;
   80c42:	685a      	ldr	r2, [r3, #4]
   80c44:	604a      	str	r2, [r1, #4]
	pxNewListItem->pxPrevious = pxList->pxIndex;
   80c46:	6842      	ldr	r2, [r0, #4]
   80c48:	608a      	str	r2, [r1, #8]
	pxIndex->pxNext->pxPrevious = ( volatile xListItem * ) pxNewListItem;
   80c4a:	685a      	ldr	r2, [r3, #4]
   80c4c:	6091      	str	r1, [r2, #8]
	pxIndex->pxNext = ( volatile xListItem * ) pxNewListItem;
   80c4e:	6059      	str	r1, [r3, #4]
	pxList->pxIndex = ( volatile xListItem * ) pxNewListItem;
   80c50:	6041      	str	r1, [r0, #4]

	/* Remember which list the item is in. */
	pxNewListItem->pvContainer = ( void * ) pxList;
   80c52:	6108      	str	r0, [r1, #16]

	( pxList->uxNumberOfItems )++;
   80c54:	6803      	ldr	r3, [r0, #0]
   80c56:	3301      	adds	r3, #1
   80c58:	6003      	str	r3, [r0, #0]
   80c5a:	4770      	bx	lr

00080c5c <vListInsert>:
}
/*-----------------------------------------------------------*/

void vListInsert( xList *pxList, xListItem *pxNewListItem )
{
   80c5c:	b410      	push	{r4}
volatile xListItem *pxIterator;
portTickType xValueOfInsertion;

	/* Insert the new list item into the list, sorted in ulListItem order. */
	xValueOfInsertion = pxNewListItem->xItemValue;
   80c5e:	880c      	ldrh	r4, [r1, #0]
	are stored in ready lists (all of which have the same ulListItem value)
	get an equal share of the CPU.  However, if the xItemValue is the same as
	the back marker the iteration loop below will not end.  This means we need
	to guard against this by checking the value first and modifying the
	algorithm slightly if necessary. */
	if( xValueOfInsertion == portMAX_DELAY )
   80c60:	f64f 73ff 	movw	r3, #65535	; 0xffff
   80c64:	429c      	cmp	r4, r3
   80c66:	d101      	bne.n	80c6c <vListInsert+0x10>
	{
		pxIterator = pxList->xListEnd.pxPrevious;
   80c68:	6902      	ldr	r2, [r0, #16]
   80c6a:	e00c      	b.n	80c86 <vListInsert+0x2a>
			   before the scheduler has been started (are interrupts firing
			   before vTaskStartScheduler() has been called?).
		See http://www.freertos.org/FAQHelp.html for more tips.
		**********************************************************************/

		for( pxIterator = ( xListItem * ) &( pxList->xListEnd ); pxIterator->pxNext->xItemValue <= xValueOfInsertion; pxIterator = pxIterator->pxNext )
   80c6c:	f100 0208 	add.w	r2, r0, #8
   80c70:	68c3      	ldr	r3, [r0, #12]
   80c72:	881b      	ldrh	r3, [r3, #0]
   80c74:	b29b      	uxth	r3, r3
   80c76:	429c      	cmp	r4, r3
   80c78:	d305      	bcc.n	80c86 <vListInsert+0x2a>
   80c7a:	6852      	ldr	r2, [r2, #4]
   80c7c:	6853      	ldr	r3, [r2, #4]
   80c7e:	881b      	ldrh	r3, [r3, #0]
   80c80:	b29b      	uxth	r3, r3
   80c82:	429c      	cmp	r4, r3
   80c84:	d2f9      	bcs.n	80c7a <vListInsert+0x1e>
			/* There is nothing to do here, we are just iterating to the
			wanted insertion position. */
		}
	}

	pxNewListItem->pxNext = pxIterator->pxNext;
   80c86:	6853      	ldr	r3, [r2, #4]
   80c88:	604b      	str	r3, [r1, #4]
	pxNewListItem->pxNext->pxPrevious = ( volatile xListItem * ) pxNewListItem;
   80c8a:	6099      	str	r1, [r3, #8]
	pxNewListItem->pxPrevious = pxIterator;
   80c8c:	608a      	str	r2, [r1, #8]
	pxIterator->pxNext = ( volatile xListItem * ) pxNewListItem;
   80c8e:	6051      	str	r1, [r2, #4]

	/* Remember which list the item is in.  This allows fast removal of the
	item later. */
	pxNewListItem->pvContainer = ( void * ) pxList;
   80c90:	6108      	str	r0, [r1, #16]

	( pxList->uxNumberOfItems )++;
   80c92:	6803      	ldr	r3, [r0, #0]
   80c94:	3301      	adds	r3, #1
   80c96:	6003      	str	r3, [r0, #0]
}
   80c98:	f85d 4b04 	ldr.w	r4, [sp], #4
   80c9c:	4770      	bx	lr
   80c9e:	bf00      	nop

00080ca0 <uxListRemove>:

unsigned portBASE_TYPE uxListRemove( xListItem *pxItemToRemove )
{
xList * pxList;

	pxItemToRemove->pxNext->pxPrevious = pxItemToRemove->pxPrevious;
   80ca0:	6843      	ldr	r3, [r0, #4]
   80ca2:	6882      	ldr	r2, [r0, #8]
   80ca4:	609a      	str	r2, [r3, #8]
	pxItemToRemove->pxPrevious->pxNext = pxItemToRemove->pxNext;
   80ca6:	6883      	ldr	r3, [r0, #8]
   80ca8:	6842      	ldr	r2, [r0, #4]
   80caa:	605a      	str	r2, [r3, #4]

	/* The list item knows which list it is in.  Obtain the list from the list
	item. */
	pxList = ( xList * ) pxItemToRemove->pvContainer;
   80cac:	6903      	ldr	r3, [r0, #16]

	/* Make sure the index is left pointing to a valid item. */
	if( pxList->pxIndex == pxItemToRemove )
   80cae:	685a      	ldr	r2, [r3, #4]
   80cb0:	4282      	cmp	r2, r0
	{
		pxList->pxIndex = pxItemToRemove->pxPrevious;
   80cb2:	bf04      	itt	eq
   80cb4:	6882      	ldreq	r2, [r0, #8]
   80cb6:	605a      	streq	r2, [r3, #4]
	}

	pxItemToRemove->pvContainer = NULL;
   80cb8:	2200      	movs	r2, #0
   80cba:	6102      	str	r2, [r0, #16]
	( pxList->uxNumberOfItems )--;
   80cbc:	681a      	ldr	r2, [r3, #0]
   80cbe:	3a01      	subs	r2, #1
   80cc0:	601a      	str	r2, [r3, #0]

	return pxList->uxNumberOfItems;
   80cc2:	6818      	ldr	r0, [r3, #0]
}
   80cc4:	4770      	bx	lr
   80cc6:	bf00      	nop

00080cc8 <prvPortStartFirstTask>:
}
/*-----------------------------------------------------------*/

static void prvPortStartFirstTask( void )
{
	__asm volatile(
   80cc8:	4803      	ldr	r0, [pc, #12]	; (80cd8 <prvPortStartFirstTask+0x10>)
   80cca:	6800      	ldr	r0, [r0, #0]
   80ccc:	6800      	ldr	r0, [r0, #0]
   80cce:	f380 8808 	msr	MSP, r0
   80cd2:	b662      	cpsie	i
   80cd4:	df00      	svc	0
   80cd6:	bf00      	nop
   80cd8:	e000ed08 	.word	0xe000ed08

00080cdc <pxPortInitialiseStack>:
portSTACK_TYPE *pxPortInitialiseStack( portSTACK_TYPE *pxTopOfStack, pdTASK_CODE pxCode, void *pvParameters )
{
	/* Simulate the stack frame as it would be created by a context switch
	interrupt. */
	pxTopOfStack--; /* Offset added to account for the way the MCU uses the stack on entry/exit of interrupts. */
	*pxTopOfStack = portINITIAL_XPSR;	/* xPSR */
   80cdc:	f04f 7380 	mov.w	r3, #16777216	; 0x1000000
   80ce0:	f840 3c04 	str.w	r3, [r0, #-4]
	pxTopOfStack--;
	*pxTopOfStack = ( portSTACK_TYPE ) pxCode;	/* PC */
   80ce4:	f840 1c08 	str.w	r1, [r0, #-8]
	pxTopOfStack--;
	*pxTopOfStack = 0;	/* LR */
   80ce8:	2300      	movs	r3, #0
   80cea:	f840 3c0c 	str.w	r3, [r0, #-12]
	pxTopOfStack -= 5;	/* R12, R3, R2 and R1. */
	*pxTopOfStack = ( portSTACK_TYPE ) pvParameters;	/* R0 */
   80cee:	f840 2c20 	str.w	r2, [r0, #-32]
	pxTopOfStack -= 8;	/* R11, R10, R9, R8, R7, R6, R5 and R4. */

	return pxTopOfStack;
}
   80cf2:	3840      	subs	r0, #64	; 0x40
   80cf4:	4770      	bx	lr
   80cf6:	bf00      	nop

00080cf8 <SVC_Handler>:
/*-----------------------------------------------------------*/

__attribute__ (( naked )) void SVC_Handler( void )
{
	__asm volatile (
   80cf8:	4b06      	ldr	r3, [pc, #24]	; (80d14 <pxCurrentTCBConst2>)
   80cfa:	6819      	ldr	r1, [r3, #0]
   80cfc:	6808      	ldr	r0, [r1, #0]
   80cfe:	e8b0 0ff0 	ldmia.w	r0!, {r4, r5, r6, r7, r8, r9, sl, fp}
   80d02:	f380 8809 	msr	PSP, r0
   80d06:	f04f 0000 	mov.w	r0, #0
   80d0a:	f380 8811 	msr	BASEPRI, r0
   80d0e:	f04e 0e0d 	orr.w	lr, lr, #13
   80d12:	4770      	bx	lr

00080d14 <pxCurrentTCBConst2>:
   80d14:	20078cb4 	.word	0x20078cb4

00080d18 <vPortYieldFromISR>:
/*-----------------------------------------------------------*/

void vPortYieldFromISR( void )
{
	/* Set a PendSV to request a context switch. */
	portNVIC_INT_CTRL_REG = portNVIC_PENDSVSET_BIT;
   80d18:	f04f 5280 	mov.w	r2, #268435456	; 0x10000000
   80d1c:	4b01      	ldr	r3, [pc, #4]	; (80d24 <vPortYieldFromISR+0xc>)
   80d1e:	601a      	str	r2, [r3, #0]
   80d20:	4770      	bx	lr
   80d22:	bf00      	nop
   80d24:	e000ed04 	.word	0xe000ed04

00080d28 <ulPortSetInterruptMask>:
}
/*-----------------------------------------------------------*/

__attribute__(( naked )) unsigned long ulPortSetInterruptMask( void )
{
	__asm volatile														\
   80d28:	f3ef 8011 	mrs	r0, BASEPRI
   80d2c:	f04f 01a0 	mov.w	r1, #160	; 0xa0
   80d30:	f381 8811 	msr	BASEPRI, r1
   80d34:	4770      	bx	lr
	);

	/* This return will not be reached but is necessary to prevent compiler
	warnings. */
	return 0;
}
   80d36:	2000      	movs	r0, #0

00080d38 <vPortEnterCritical>:
	portNVIC_INT_CTRL_REG = portNVIC_PENDSVSET_BIT;
}
/*-----------------------------------------------------------*/

void vPortEnterCritical( void )
{
   80d38:	b508      	push	{r3, lr}
	portDISABLE_INTERRUPTS();
   80d3a:	4b03      	ldr	r3, [pc, #12]	; (80d48 <vPortEnterCritical+0x10>)
   80d3c:	4798      	blx	r3
	uxCriticalNesting++;
   80d3e:	4a03      	ldr	r2, [pc, #12]	; (80d4c <vPortEnterCritical+0x14>)
   80d40:	6813      	ldr	r3, [r2, #0]
   80d42:	3301      	adds	r3, #1
   80d44:	6013      	str	r3, [r2, #0]
   80d46:	bd08      	pop	{r3, pc}
   80d48:	00080d29 	.word	0x00080d29
   80d4c:	20070138 	.word	0x20070138

00080d50 <vPortClearInterruptMask>:
}
/*-----------------------------------------------------------*/

__attribute__(( naked )) void vPortClearInterruptMask( unsigned long ulNewMaskValue )
{
	__asm volatile													\
   80d50:	f380 8811 	msr	BASEPRI, r0
   80d54:	4770      	bx	lr
   80d56:	bf00      	nop

00080d58 <vPortExitCritical>:
	uxCriticalNesting++;
}
/*-----------------------------------------------------------*/

void vPortExitCritical( void )
{
   80d58:	b508      	push	{r3, lr}
	uxCriticalNesting--;
   80d5a:	4a04      	ldr	r2, [pc, #16]	; (80d6c <vPortExitCritical+0x14>)
   80d5c:	6813      	ldr	r3, [r2, #0]
   80d5e:	3b01      	subs	r3, #1
   80d60:	6013      	str	r3, [r2, #0]
	if( uxCriticalNesting == 0 )
   80d62:	b913      	cbnz	r3, 80d6a <vPortExitCritical+0x12>
	{
		portENABLE_INTERRUPTS();
   80d64:	2000      	movs	r0, #0
   80d66:	4b02      	ldr	r3, [pc, #8]	; (80d70 <vPortExitCritical+0x18>)
   80d68:	4798      	blx	r3
   80d6a:	bd08      	pop	{r3, pc}
   80d6c:	20070138 	.word	0x20070138
   80d70:	00080d51 	.word	0x00080d51

00080d74 <PendSV_Handler>:

__attribute__(( naked )) void PendSV_Handler( void )
{
	/* This is a naked function. */

	__asm volatile
   80d74:	f3ef 8009 	mrs	r0, PSP
   80d78:	4b0c      	ldr	r3, [pc, #48]	; (80dac <pxCurrentTCBConst>)
   80d7a:	681a      	ldr	r2, [r3, #0]
   80d7c:	e920 0ff0 	stmdb	r0!, {r4, r5, r6, r7, r8, r9, sl, fp}
   80d80:	6010      	str	r0, [r2, #0]
   80d82:	e92d 4008 	stmdb	sp!, {r3, lr}
   80d86:	f04f 00a0 	mov.w	r0, #160	; 0xa0
   80d8a:	f380 8811 	msr	BASEPRI, r0
   80d8e:	f000 fec9 	bl	81b24 <vTaskSwitchContext>
   80d92:	f04f 0000 	mov.w	r0, #0
   80d96:	f380 8811 	msr	BASEPRI, r0
   80d9a:	e8bd 4008 	ldmia.w	sp!, {r3, lr}
   80d9e:	6819      	ldr	r1, [r3, #0]
   80da0:	6808      	ldr	r0, [r1, #0]
   80da2:	e8b0 0ff0 	ldmia.w	r0!, {r4, r5, r6, r7, r8, r9, sl, fp}
   80da6:	f380 8809 	msr	PSP, r0
   80daa:	4770      	bx	lr

00080dac <pxCurrentTCBConst>:
   80dac:	20078cb4 	.word	0x20078cb4

00080db0 <SysTick_Handler>:
	);
}
/*-----------------------------------------------------------*/

void SysTick_Handler( void )
{
   80db0:	b508      	push	{r3, lr}
	/* If using preemption, also force a context switch. */
	#if configUSE_PREEMPTION == 1
		portNVIC_INT_CTRL_REG = portNVIC_PENDSVSET_BIT;
   80db2:	f04f 5280 	mov.w	r2, #268435456	; 0x10000000
   80db6:	4b05      	ldr	r3, [pc, #20]	; (80dcc <SysTick_Handler+0x1c>)
   80db8:	601a      	str	r2, [r3, #0]
	to generate the tick interrupt. */
	#if configUSE_TICKLESS_IDLE == 1
		portNVIC_SYSTICK_LOAD_REG = ulTimerReloadValueForOneTick;
	#endif

	( void ) portSET_INTERRUPT_MASK_FROM_ISR();
   80dba:	4b05      	ldr	r3, [pc, #20]	; (80dd0 <SysTick_Handler+0x20>)
   80dbc:	4798      	blx	r3
	{
		vTaskIncrementTick();
   80dbe:	4b05      	ldr	r3, [pc, #20]	; (80dd4 <SysTick_Handler+0x24>)
   80dc0:	4798      	blx	r3
	}
	portCLEAR_INTERRUPT_MASK_FROM_ISR( 0 );
   80dc2:	2000      	movs	r0, #0
   80dc4:	4b04      	ldr	r3, [pc, #16]	; (80dd8 <SysTick_Handler+0x28>)
   80dc6:	4798      	blx	r3
   80dc8:	bd08      	pop	{r3, pc}
   80dca:	bf00      	nop
   80dcc:	e000ed04 	.word	0xe000ed04
   80dd0:	00080d29 	.word	0x00080d29
   80dd4:	000817d9 	.word	0x000817d9
   80dd8:	00080d51 	.word	0x00080d51

00080ddc <vPortSetupTimerInterrupt>:
		ulStoppedTimerCompensation = 45UL / ( configCPU_CLOCK_HZ / configSYSTICK_CLOCK_HZ );
	}
	#endif /* configUSE_TICKLESS_IDLE */

	/* Configure SysTick to interrupt at the requested rate. */
	portNVIC_SYSTICK_LOAD_REG = ( configSYSTICK_CLOCK_HZ / configTICK_RATE_HZ ) - 1UL;;
   80ddc:	4a03      	ldr	r2, [pc, #12]	; (80dec <vPortSetupTimerInterrupt+0x10>)
   80dde:	4b04      	ldr	r3, [pc, #16]	; (80df0 <vPortSetupTimerInterrupt+0x14>)
   80de0:	601a      	str	r2, [r3, #0]
	portNVIC_SYSTICK_CTRL_REG = portNVIC_SYSTICK_CLK_BIT | portNVIC_SYSTICK_INT_BIT | portNVIC_SYSTICK_ENABLE_BIT;
   80de2:	2207      	movs	r2, #7
   80de4:	3b04      	subs	r3, #4
   80de6:	601a      	str	r2, [r3, #0]
   80de8:	4770      	bx	lr
   80dea:	bf00      	nop
   80dec:	0001481f 	.word	0x0001481f
   80df0:	e000e014 	.word	0xe000e014

00080df4 <xPortStartScheduler>:

/*
 * See header file for description.
 */
portBASE_TYPE xPortStartScheduler( void )
{
   80df4:	b510      	push	{r4, lr}
	/* configMAX_SYSCALL_INTERRUPT_PRIORITY must not be set to 0.
	See http://www.FreeRTOS.org/RTOS-Cortex-M3-M4.html */
	configASSERT( configMAX_SYSCALL_INTERRUPT_PRIORITY );

	/* Make PendSV, CallSV and SysTick the same priroity as the kernel. */
	portNVIC_SYSPRI2_REG |= portNVIC_PENDSV_PRI;
   80df6:	4b09      	ldr	r3, [pc, #36]	; (80e1c <xPortStartScheduler+0x28>)
   80df8:	681a      	ldr	r2, [r3, #0]
   80dfa:	f442 0270 	orr.w	r2, r2, #15728640	; 0xf00000
   80dfe:	601a      	str	r2, [r3, #0]
	portNVIC_SYSPRI2_REG |= portNVIC_SYSTICK_PRI;
   80e00:	681a      	ldr	r2, [r3, #0]
   80e02:	f042 4270 	orr.w	r2, r2, #4026531840	; 0xf0000000
   80e06:	601a      	str	r2, [r3, #0]

	/* Start the timer that generates the tick ISR.  Interrupts are disabled
	here already. */
	vPortSetupTimerInterrupt();
   80e08:	4b05      	ldr	r3, [pc, #20]	; (80e20 <xPortStartScheduler+0x2c>)
   80e0a:	4798      	blx	r3

	/* Initialise the critical nesting count ready for the first task. */
	uxCriticalNesting = 0;
   80e0c:	2400      	movs	r4, #0
   80e0e:	4b05      	ldr	r3, [pc, #20]	; (80e24 <xPortStartScheduler+0x30>)
   80e10:	601c      	str	r4, [r3, #0]

	/* Start the first task. */
	prvPortStartFirstTask();
   80e12:	4b05      	ldr	r3, [pc, #20]	; (80e28 <xPortStartScheduler+0x34>)
   80e14:	4798      	blx	r3

	/* Should not get here! */
	return 0;
}
   80e16:	4620      	mov	r0, r4
   80e18:	bd10      	pop	{r4, pc}
   80e1a:	bf00      	nop
   80e1c:	e000ed20 	.word	0xe000ed20
   80e20:	00080ddd 	.word	0x00080ddd
   80e24:	20070138 	.word	0x20070138
   80e28:	00080cc9 	.word	0x00080cc9

00080e2c <prvInsertBlockIntoFreeList>:
xBlockLink *pxIterator;
unsigned char *puc;

	/* Iterate through the list until a block is found that has a higher address
	than the block being inserted. */
	for( pxIterator = &xStart; pxIterator->pxNextFreeBlock < pxBlockToInsert; pxIterator = pxIterator->pxNextFreeBlock )
   80e2c:	4a13      	ldr	r2, [pc, #76]	; (80e7c <prvInsertBlockIntoFreeList+0x50>)
   80e2e:	e000      	b.n	80e32 <prvInsertBlockIntoFreeList+0x6>
   80e30:	461a      	mov	r2, r3
   80e32:	6813      	ldr	r3, [r2, #0]
   80e34:	4283      	cmp	r3, r0
   80e36:	d3fb      	bcc.n	80e30 <prvInsertBlockIntoFreeList+0x4>
	xFreeBytesRemaining -= heapSTRUCT_SIZE;
}
/*-----------------------------------------------------------*/

static void prvInsertBlockIntoFreeList( xBlockLink *pxBlockToInsert )
{
   80e38:	b430      	push	{r4, r5}
   80e3a:	4611      	mov	r1, r2
	}

	/* Do the block being inserted, and the block it is being inserted after
	make a contiguous block of memory? */	
	puc = ( unsigned char * ) pxIterator;
	if( ( puc + pxIterator->xBlockSize ) == ( unsigned char * ) pxBlockToInsert )
   80e3c:	6854      	ldr	r4, [r2, #4]
   80e3e:	1915      	adds	r5, r2, r4
   80e40:	4285      	cmp	r5, r0
   80e42:	d103      	bne.n	80e4c <prvInsertBlockIntoFreeList+0x20>
	{
		pxIterator->xBlockSize += pxBlockToInsert->xBlockSize;
   80e44:	6868      	ldr	r0, [r5, #4]
   80e46:	4404      	add	r4, r0
   80e48:	6054      	str	r4, [r2, #4]
   80e4a:	4610      	mov	r0, r2
	}

	/* Do the block being inserted, and the block it is being inserted before
	make a contiguous block of memory? */
	puc = ( unsigned char * ) pxBlockToInsert;
	if( ( puc + pxBlockToInsert->xBlockSize ) == ( unsigned char * ) pxIterator->pxNextFreeBlock )
   80e4c:	6842      	ldr	r2, [r0, #4]
   80e4e:	1884      	adds	r4, r0, r2
   80e50:	429c      	cmp	r4, r3
   80e52:	d10c      	bne.n	80e6e <prvInsertBlockIntoFreeList+0x42>
	{
		if( pxIterator->pxNextFreeBlock != pxEnd )
   80e54:	4b0a      	ldr	r3, [pc, #40]	; (80e80 <prvInsertBlockIntoFreeList+0x54>)
   80e56:	681b      	ldr	r3, [r3, #0]
   80e58:	429c      	cmp	r4, r3
   80e5a:	d006      	beq.n	80e6a <prvInsertBlockIntoFreeList+0x3e>
		{
			/* Form one big block from the two blocks. */
			pxBlockToInsert->xBlockSize += pxIterator->pxNextFreeBlock->xBlockSize;
   80e5c:	6863      	ldr	r3, [r4, #4]
   80e5e:	441a      	add	r2, r3
   80e60:	6042      	str	r2, [r0, #4]
			pxBlockToInsert->pxNextFreeBlock = pxIterator->pxNextFreeBlock->pxNextFreeBlock;
   80e62:	680b      	ldr	r3, [r1, #0]
   80e64:	681b      	ldr	r3, [r3, #0]
   80e66:	6003      	str	r3, [r0, #0]
   80e68:	e002      	b.n	80e70 <prvInsertBlockIntoFreeList+0x44>
		}
		else
		{
			pxBlockToInsert->pxNextFreeBlock = pxEnd;
   80e6a:	6004      	str	r4, [r0, #0]
   80e6c:	e000      	b.n	80e70 <prvInsertBlockIntoFreeList+0x44>
		}
	}
	else
	{
		pxBlockToInsert->pxNextFreeBlock = pxIterator->pxNextFreeBlock;		
   80e6e:	6003      	str	r3, [r0, #0]

	/* If the block being inserted plugged a gab, so was merged with the block
	before and the block after, then it's pxNextFreeBlock pointer will have
	already been set, and should not be set here as that would make it point
	to itself. */
	if( pxIterator != pxBlockToInsert )
   80e70:	4281      	cmp	r1, r0
	{
		pxIterator->pxNextFreeBlock = pxBlockToInsert;
   80e72:	bf18      	it	ne
   80e74:	6008      	strne	r0, [r1, #0]
	}
}
   80e76:	bc30      	pop	{r4, r5}
   80e78:	4770      	bx	lr
   80e7a:	bf00      	nop
   80e7c:	20078b7c 	.word	0x20078b7c
   80e80:	20078b78 	.word	0x20078b78

00080e84 <pvPortMalloc>:
/* STATIC FUNCTIONS ARE DEFINED AS MACROS TO MINIMIZE THE FUNCTION CALL DEPTH. */

/*-----------------------------------------------------------*/

void *pvPortMalloc( size_t xWantedSize )
{
   80e84:	b538      	push	{r3, r4, r5, lr}
   80e86:	4604      	mov	r4, r0
xBlockLink *pxBlock, *pxPreviousBlock, *pxNewBlockLink;
void *pvReturn = NULL;

	vTaskSuspendAll();
   80e88:	4b29      	ldr	r3, [pc, #164]	; (80f30 <pvPortMalloc+0xac>)
   80e8a:	4798      	blx	r3
	{
		/* If this is the first call to malloc then the heap will require
		initialisation to setup the list of free blocks. */
		if( pxEnd == NULL )
   80e8c:	4b29      	ldr	r3, [pc, #164]	; (80f34 <pvPortMalloc+0xb0>)
   80e8e:	681b      	ldr	r3, [r3, #0]
   80e90:	b99b      	cbnz	r3, 80eba <pvPortMalloc+0x36>
	/* Ensure the start of the heap is aligned. */
	configASSERT( ( ( ( unsigned long ) xHeap.ucHeap ) & ( ( unsigned long ) portBYTE_ALIGNMENT_MASK ) ) == 0UL );

	/* xStart is used to hold a pointer to the first item in the list of free
	blocks.  The void cast is used to prevent compiler warnings. */
	xStart.pxNextFreeBlock = ( void * ) xHeap.ucHeap;
   80e92:	4a29      	ldr	r2, [pc, #164]	; (80f38 <pvPortMalloc+0xb4>)
   80e94:	4b29      	ldr	r3, [pc, #164]	; (80f3c <pvPortMalloc+0xb8>)
   80e96:	6013      	str	r3, [r2, #0]
	xStart.xBlockSize = ( size_t ) 0;
   80e98:	2100      	movs	r1, #0
   80e9a:	6051      	str	r1, [r2, #4]

	/* pxEnd is used to mark the end of the list of free blocks and is inserted
	at the end of the heap space. */
	pucHeapEnd = xHeap.ucHeap + xTotalHeapSize;
	pucHeapEnd -= heapSTRUCT_SIZE;
	pxEnd = ( void * ) pucHeapEnd;
   80e9c:	f647 72f0 	movw	r2, #32752	; 0x7ff0
   80ea0:	1898      	adds	r0, r3, r2
   80ea2:	4d24      	ldr	r5, [pc, #144]	; (80f34 <pvPortMalloc+0xb0>)
   80ea4:	6028      	str	r0, [r5, #0]
	configASSERT( ( ( ( unsigned long ) pxEnd ) & ( ( unsigned long ) portBYTE_ALIGNMENT_MASK ) ) == 0UL );
	pxEnd->xBlockSize = 0;
   80ea6:	f647 75f4 	movw	r5, #32756	; 0x7ff4
   80eaa:	5159      	str	r1, [r3, r5]
	pxEnd->pxNextFreeBlock = NULL;
   80eac:	5099      	str	r1, [r3, r2]

	/* To start with there is a single free block that is sized to take up the
	entire heap space, minus the space taken by pxEnd. */
	pxFirstFreeBlock = ( void * ) xHeap.ucHeap;
	pxFirstFreeBlock->xBlockSize = xTotalHeapSize - heapSTRUCT_SIZE;
   80eae:	605a      	str	r2, [r3, #4]
	pxFirstFreeBlock->pxNextFreeBlock = pxEnd;
   80eb0:	6018      	str	r0, [r3, #0]

	/* The heap now contains pxEnd. */
	xFreeBytesRemaining -= heapSTRUCT_SIZE;
   80eb2:	4a23      	ldr	r2, [pc, #140]	; (80f40 <pvPortMalloc+0xbc>)
   80eb4:	6813      	ldr	r3, [r2, #0]
   80eb6:	3b10      	subs	r3, #16
   80eb8:	6013      	str	r3, [r2, #0]
			prvHeapInit();
		}

		/* The wanted size is increased so it can contain a xBlockLink
		structure in addition to the requested amount of bytes. */
		if( xWantedSize > 0 )
   80eba:	2c00      	cmp	r4, #0
   80ebc:	d02e      	beq.n	80f1c <pvPortMalloc+0x98>
		{
			xWantedSize += heapSTRUCT_SIZE;
   80ebe:	f104 0210 	add.w	r2, r4, #16

			/* Ensure that blocks are always aligned to the required number of 
			bytes. */
			if( xWantedSize & portBYTE_ALIGNMENT_MASK )
   80ec2:	f012 0f07 	tst.w	r2, #7
			{
				/* Byte alignment required. */
				xWantedSize += ( portBYTE_ALIGNMENT - ( xWantedSize & portBYTE_ALIGNMENT_MASK ) );
   80ec6:	bf1c      	itt	ne
   80ec8:	f022 0207 	bicne.w	r2, r2, #7
   80ecc:	3208      	addne	r2, #8
			}
		}

		if( ( xWantedSize > 0 ) && ( xWantedSize < xTotalHeapSize ) )
   80ece:	1e51      	subs	r1, r2, #1
   80ed0:	f647 73fe 	movw	r3, #32766	; 0x7ffe
   80ed4:	4299      	cmp	r1, r3
   80ed6:	d823      	bhi.n	80f20 <pvPortMalloc+0x9c>
		{
			/* Traverse the list from the start	(lowest address) block until one
			of adequate size is found. */
			pxPreviousBlock = &xStart;
			pxBlock = xStart.pxNextFreeBlock;
   80ed8:	4917      	ldr	r1, [pc, #92]	; (80f38 <pvPortMalloc+0xb4>)
   80eda:	680c      	ldr	r4, [r1, #0]
			while( ( pxBlock->xBlockSize < xWantedSize ) && ( pxBlock->pxNextFreeBlock != NULL ) )
   80edc:	e001      	b.n	80ee2 <pvPortMalloc+0x5e>
   80ede:	4621      	mov	r1, r4
			{
				pxPreviousBlock = pxBlock;
				pxBlock = pxBlock->pxNextFreeBlock;
   80ee0:	461c      	mov	r4, r3
		{
			/* Traverse the list from the start	(lowest address) block until one
			of adequate size is found. */
			pxPreviousBlock = &xStart;
			pxBlock = xStart.pxNextFreeBlock;
			while( ( pxBlock->xBlockSize < xWantedSize ) && ( pxBlock->pxNextFreeBlock != NULL ) )
   80ee2:	6863      	ldr	r3, [r4, #4]
   80ee4:	429a      	cmp	r2, r3
   80ee6:	d902      	bls.n	80eee <pvPortMalloc+0x6a>
   80ee8:	6823      	ldr	r3, [r4, #0]
   80eea:	2b00      	cmp	r3, #0
   80eec:	d1f7      	bne.n	80ede <pvPortMalloc+0x5a>
				pxBlock = pxBlock->pxNextFreeBlock;
			}

			/* If the end marker was reached then a block of adequate size was
			not found. */
			if( pxBlock != pxEnd )
   80eee:	4b11      	ldr	r3, [pc, #68]	; (80f34 <pvPortMalloc+0xb0>)
   80ef0:	681b      	ldr	r3, [r3, #0]
   80ef2:	429c      	cmp	r4, r3
   80ef4:	d016      	beq.n	80f24 <pvPortMalloc+0xa0>
			{
				/* Return the memory space - jumping over the xBlockLink structure
				at its start. */
				pvReturn = ( void * ) ( ( ( unsigned char * ) pxPreviousBlock->pxNextFreeBlock ) + heapSTRUCT_SIZE );
   80ef6:	680d      	ldr	r5, [r1, #0]
   80ef8:	3510      	adds	r5, #16

				/* This block is being returned for use so must be taken out of
				the	list of free blocks. */
				pxPreviousBlock->pxNextFreeBlock = pxBlock->pxNextFreeBlock;
   80efa:	6823      	ldr	r3, [r4, #0]
   80efc:	600b      	str	r3, [r1, #0]

				/* If the block is larger than required it can be split into two. */
				if( ( pxBlock->xBlockSize - xWantedSize ) > heapMINIMUM_BLOCK_SIZE )
   80efe:	6863      	ldr	r3, [r4, #4]
   80f00:	1a9b      	subs	r3, r3, r2
   80f02:	2b20      	cmp	r3, #32
   80f04:	d904      	bls.n	80f10 <pvPortMalloc+0x8c>
				{
					/* This block is to be split into two.  Create a new block
					following the number of bytes requested. The void cast is
					used to prevent byte alignment warnings from the compiler. */
					pxNewBlockLink = ( void * ) ( ( ( unsigned char * ) pxBlock ) + xWantedSize );
   80f06:	18a0      	adds	r0, r4, r2

					/* Calculate the sizes of two blocks split from the single
					block. */
					pxNewBlockLink->xBlockSize = pxBlock->xBlockSize - xWantedSize;
   80f08:	6043      	str	r3, [r0, #4]
					pxBlock->xBlockSize = xWantedSize;
   80f0a:	6062      	str	r2, [r4, #4]

					/* Insert the new block into the list of free blocks. */
					prvInsertBlockIntoFreeList( ( pxNewBlockLink ) );
   80f0c:	4b0d      	ldr	r3, [pc, #52]	; (80f44 <pvPortMalloc+0xc0>)
   80f0e:	4798      	blx	r3
				}

				xFreeBytesRemaining -= pxBlock->xBlockSize;
   80f10:	4a0b      	ldr	r2, [pc, #44]	; (80f40 <pvPortMalloc+0xbc>)
   80f12:	6813      	ldr	r3, [r2, #0]
   80f14:	6861      	ldr	r1, [r4, #4]
   80f16:	1a5b      	subs	r3, r3, r1
   80f18:	6013      	str	r3, [r2, #0]
   80f1a:	e004      	b.n	80f26 <pvPortMalloc+0xa2>
/*-----------------------------------------------------------*/

void *pvPortMalloc( size_t xWantedSize )
{
xBlockLink *pxBlock, *pxPreviousBlock, *pxNewBlockLink;
void *pvReturn = NULL;
   80f1c:	2500      	movs	r5, #0
   80f1e:	e002      	b.n	80f26 <pvPortMalloc+0xa2>
   80f20:	2500      	movs	r5, #0
   80f22:	e000      	b.n	80f26 <pvPortMalloc+0xa2>
   80f24:	2500      	movs	r5, #0

				xFreeBytesRemaining -= pxBlock->xBlockSize;
			}
		}
	}
	xTaskResumeAll();
   80f26:	4b08      	ldr	r3, [pc, #32]	; (80f48 <pvPortMalloc+0xc4>)
   80f28:	4798      	blx	r3
		}
	}
	#endif

	return pvReturn;
}
   80f2a:	4628      	mov	r0, r5
   80f2c:	bd38      	pop	{r3, r4, r5, pc}
   80f2e:	bf00      	nop
   80f30:	000817a9 	.word	0x000817a9
   80f34:	20078b78 	.word	0x20078b78
   80f38:	20078b7c 	.word	0x20078b7c
   80f3c:	20070b78 	.word	0x20070b78
   80f40:	2007013c 	.word	0x2007013c
   80f44:	00080e2d 	.word	0x00080e2d
   80f48:	00081905 	.word	0x00081905

00080f4c <vPortFree>:
void vPortFree( void *pv )
{
unsigned char *puc = ( unsigned char * ) pv;
xBlockLink *pxLink;

	if( pv != NULL )
   80f4c:	b180      	cbz	r0, 80f70 <vPortFree+0x24>
	return pvReturn;
}
/*-----------------------------------------------------------*/

void vPortFree( void *pv )
{
   80f4e:	b510      	push	{r4, lr}
   80f50:	4604      	mov	r4, r0
		puc -= heapSTRUCT_SIZE;

		/* This casting is to keep the compiler from issuing warnings. */
		pxLink = ( void * ) puc;

		vTaskSuspendAll();
   80f52:	4b08      	ldr	r3, [pc, #32]	; (80f74 <vPortFree+0x28>)
   80f54:	4798      	blx	r3
		{
			/* Add this block to the list of free blocks. */
			xFreeBytesRemaining += pxLink->xBlockSize;
   80f56:	4a08      	ldr	r2, [pc, #32]	; (80f78 <vPortFree+0x2c>)
   80f58:	6811      	ldr	r1, [r2, #0]
   80f5a:	f854 3c0c 	ldr.w	r3, [r4, #-12]
   80f5e:	440b      	add	r3, r1
   80f60:	6013      	str	r3, [r2, #0]
			prvInsertBlockIntoFreeList( ( ( xBlockLink * ) pxLink ) );			
   80f62:	f1a4 0010 	sub.w	r0, r4, #16
   80f66:	4b05      	ldr	r3, [pc, #20]	; (80f7c <vPortFree+0x30>)
   80f68:	4798      	blx	r3
		}
		xTaskResumeAll();
   80f6a:	4b05      	ldr	r3, [pc, #20]	; (80f80 <vPortFree+0x34>)
   80f6c:	4798      	blx	r3
   80f6e:	bd10      	pop	{r4, pc}
   80f70:	4770      	bx	lr
   80f72:	bf00      	nop
   80f74:	000817a9 	.word	0x000817a9
   80f78:	2007013c 	.word	0x2007013c
   80f7c:	00080e2d 	.word	0x00080e2d
   80f80:	00081905 	.word	0x00081905

00080f84 <prvCopyDataToQueue>:

#endif
/*-----------------------------------------------------------*/

static void prvCopyDataToQueue( xQUEUE *pxQueue, const void *pvItemToQueue, portBASE_TYPE xPosition )
{
   80f84:	b510      	push	{r4, lr}
   80f86:	4604      	mov	r4, r0
	if( pxQueue->uxItemSize == ( unsigned portBASE_TYPE ) 0 )
   80f88:	6c03      	ldr	r3, [r0, #64]	; 0x40
   80f8a:	b93b      	cbnz	r3, 80f9c <prvCopyDataToQueue+0x18>
	{
		#if ( configUSE_MUTEXES == 1 )
		{
			if( pxQueue->uxQueueType == queueQUEUE_IS_MUTEX )
   80f8c:	6803      	ldr	r3, [r0, #0]
   80f8e:	bb1b      	cbnz	r3, 80fd8 <prvCopyDataToQueue+0x54>
			{
				/* The mutex is no longer being held. */
				vTaskPriorityDisinherit( ( void * ) pxQueue->pxMutexHolder );
   80f90:	6840      	ldr	r0, [r0, #4]
   80f92:	4b13      	ldr	r3, [pc, #76]	; (80fe0 <prvCopyDataToQueue+0x5c>)
   80f94:	4798      	blx	r3
				pxQueue->pxMutexHolder = NULL;
   80f96:	2300      	movs	r3, #0
   80f98:	6063      	str	r3, [r4, #4]
   80f9a:	e01d      	b.n	80fd8 <prvCopyDataToQueue+0x54>
			}
		}
		#endif
	}
	else if( xPosition == queueSEND_TO_BACK )
   80f9c:	b96a      	cbnz	r2, 80fba <prvCopyDataToQueue+0x36>
	{
		memcpy( ( void * ) pxQueue->pcWriteTo, pvItemToQueue, ( unsigned ) pxQueue->uxItemSize );
   80f9e:	6880      	ldr	r0, [r0, #8]
   80fa0:	461a      	mov	r2, r3
   80fa2:	4b10      	ldr	r3, [pc, #64]	; (80fe4 <prvCopyDataToQueue+0x60>)
   80fa4:	4798      	blx	r3
		pxQueue->pcWriteTo += pxQueue->uxItemSize;
   80fa6:	68a2      	ldr	r2, [r4, #8]
   80fa8:	6c23      	ldr	r3, [r4, #64]	; 0x40
   80faa:	4413      	add	r3, r2
   80fac:	60a3      	str	r3, [r4, #8]
		if( pxQueue->pcWriteTo >= pxQueue->pcTail )
   80fae:	6862      	ldr	r2, [r4, #4]
   80fb0:	4293      	cmp	r3, r2
   80fb2:	d311      	bcc.n	80fd8 <prvCopyDataToQueue+0x54>
		{
			pxQueue->pcWriteTo = pxQueue->pcHead;
   80fb4:	6823      	ldr	r3, [r4, #0]
   80fb6:	60a3      	str	r3, [r4, #8]
   80fb8:	e00e      	b.n	80fd8 <prvCopyDataToQueue+0x54>
		}
	}
	else
	{
		memcpy( ( void * ) pxQueue->pcReadFrom, pvItemToQueue, ( unsigned ) pxQueue->uxItemSize );
   80fba:	68c0      	ldr	r0, [r0, #12]
   80fbc:	461a      	mov	r2, r3
   80fbe:	4b09      	ldr	r3, [pc, #36]	; (80fe4 <prvCopyDataToQueue+0x60>)
   80fc0:	4798      	blx	r3
		pxQueue->pcReadFrom -= pxQueue->uxItemSize;
   80fc2:	6c23      	ldr	r3, [r4, #64]	; 0x40
   80fc4:	425b      	negs	r3, r3
   80fc6:	68e2      	ldr	r2, [r4, #12]
   80fc8:	441a      	add	r2, r3
   80fca:	60e2      	str	r2, [r4, #12]
		if( pxQueue->pcReadFrom < pxQueue->pcHead )
   80fcc:	6821      	ldr	r1, [r4, #0]
   80fce:	428a      	cmp	r2, r1
   80fd0:	d202      	bcs.n	80fd8 <prvCopyDataToQueue+0x54>
		{
			pxQueue->pcReadFrom = ( pxQueue->pcTail - pxQueue->uxItemSize );
   80fd2:	6862      	ldr	r2, [r4, #4]
   80fd4:	4413      	add	r3, r2
   80fd6:	60e3      	str	r3, [r4, #12]
		}
	}

	++( pxQueue->uxMessagesWaiting );
   80fd8:	6ba3      	ldr	r3, [r4, #56]	; 0x38
   80fda:	3301      	adds	r3, #1
   80fdc:	63a3      	str	r3, [r4, #56]	; 0x38
   80fde:	bd10      	pop	{r4, pc}
   80fe0:	00081e65 	.word	0x00081e65
   80fe4:	000834c9 	.word	0x000834c9

00080fe8 <prvCopyDataFromQueue>:
}
/*-----------------------------------------------------------*/

static void prvCopyDataFromQueue( xQUEUE * const pxQueue, const void *pvBuffer )
{
   80fe8:	b538      	push	{r3, r4, r5, lr}
   80fea:	4603      	mov	r3, r0
	if( pxQueue->uxQueueType != queueQUEUE_IS_MUTEX )
   80fec:	6800      	ldr	r0, [r0, #0]
   80fee:	b158      	cbz	r0, 81008 <prvCopyDataFromQueue+0x20>
	{
		pxQueue->pcReadFrom += pxQueue->uxItemSize;
   80ff0:	6c1a      	ldr	r2, [r3, #64]	; 0x40
   80ff2:	68dc      	ldr	r4, [r3, #12]
   80ff4:	4414      	add	r4, r2
   80ff6:	60dc      	str	r4, [r3, #12]
		if( pxQueue->pcReadFrom >= pxQueue->pcTail )
   80ff8:	685d      	ldr	r5, [r3, #4]
   80ffa:	42ac      	cmp	r4, r5
		{
			pxQueue->pcReadFrom = pxQueue->pcHead;
   80ffc:	bf28      	it	cs
   80ffe:	60d8      	strcs	r0, [r3, #12]
   81000:	4608      	mov	r0, r1
		}
		memcpy( ( void * ) pvBuffer, ( void * ) pxQueue->pcReadFrom, ( unsigned ) pxQueue->uxItemSize );
   81002:	68d9      	ldr	r1, [r3, #12]
   81004:	4b01      	ldr	r3, [pc, #4]	; (8100c <prvCopyDataFromQueue+0x24>)
   81006:	4798      	blx	r3
   81008:	bd38      	pop	{r3, r4, r5, pc}
   8100a:	bf00      	nop
   8100c:	000834c9 	.word	0x000834c9

00081010 <prvUnlockQueue>:
	}
}
/*-----------------------------------------------------------*/

static void prvUnlockQueue( xQueueHandle pxQueue )
{
   81010:	b5f8      	push	{r3, r4, r5, r6, r7, lr}
   81012:	4604      	mov	r4, r0

	/* The lock counts contains the number of extra data items placed or
	removed from the queue while the queue was locked.  When a queue is
	locked items can be added or removed, but the event lists cannot be
	updated. */
	taskENTER_CRITICAL();
   81014:	4b1e      	ldr	r3, [pc, #120]	; (81090 <prvUnlockQueue+0x80>)
   81016:	4798      	blx	r3
	{
		/* See if data was added to the queue while it was locked. */
		while( pxQueue->xTxLock > queueLOCKED_UNMODIFIED )
   81018:	6ca3      	ldr	r3, [r4, #72]	; 0x48
   8101a:	2b00      	cmp	r3, #0
   8101c:	dd13      	ble.n	81046 <prvUnlockQueue+0x36>
		{
			/* Data was posted while the queue was locked.  Are any tasks
			blocked waiting for data to become available? */
			if( listLIST_IS_EMPTY( &( pxQueue->xTasksWaitingToReceive ) ) == pdFALSE )
   8101e:	6a63      	ldr	r3, [r4, #36]	; 0x24
   81020:	b91b      	cbnz	r3, 8102a <prvUnlockQueue+0x1a>
   81022:	e010      	b.n	81046 <prvUnlockQueue+0x36>
   81024:	6a63      	ldr	r3, [r4, #36]	; 0x24
   81026:	b923      	cbnz	r3, 81032 <prvUnlockQueue+0x22>
   81028:	e00d      	b.n	81046 <prvUnlockQueue+0x36>
			{
				/* Tasks that are removed from the event list will get added to
				the pending ready list as the scheduler is still suspended. */
				if( xTaskRemoveFromEventList( &( pxQueue->xTasksWaitingToReceive ) ) != pdFALSE )
   8102a:	f104 0624 	add.w	r6, r4, #36	; 0x24
   8102e:	4d19      	ldr	r5, [pc, #100]	; (81094 <prvUnlockQueue+0x84>)
				{
					/* The task waiting has a higher priority so record that a
					context	switch is required. */
					vTaskMissedYield();
   81030:	4f19      	ldr	r7, [pc, #100]	; (81098 <prvUnlockQueue+0x88>)
			blocked waiting for data to become available? */
			if( listLIST_IS_EMPTY( &( pxQueue->xTasksWaitingToReceive ) ) == pdFALSE )
			{
				/* Tasks that are removed from the event list will get added to
				the pending ready list as the scheduler is still suspended. */
				if( xTaskRemoveFromEventList( &( pxQueue->xTasksWaitingToReceive ) ) != pdFALSE )
   81032:	4630      	mov	r0, r6
   81034:	47a8      	blx	r5
   81036:	b100      	cbz	r0, 8103a <prvUnlockQueue+0x2a>
				{
					/* The task waiting has a higher priority so record that a
					context	switch is required. */
					vTaskMissedYield();
   81038:	47b8      	blx	r7
				}

				--( pxQueue->xTxLock );
   8103a:	6ca3      	ldr	r3, [r4, #72]	; 0x48
   8103c:	3b01      	subs	r3, #1
   8103e:	64a3      	str	r3, [r4, #72]	; 0x48
	locked items can be added or removed, but the event lists cannot be
	updated. */
	taskENTER_CRITICAL();
	{
		/* See if data was added to the queue while it was locked. */
		while( pxQueue->xTxLock > queueLOCKED_UNMODIFIED )
   81040:	6ca3      	ldr	r3, [r4, #72]	; 0x48
   81042:	2b00      	cmp	r3, #0
   81044:	dcee      	bgt.n	81024 <prvUnlockQueue+0x14>
			{
				break;
			}
		}

		pxQueue->xTxLock = queueUNLOCKED;
   81046:	f04f 33ff 	mov.w	r3, #4294967295
   8104a:	64a3      	str	r3, [r4, #72]	; 0x48
	}
	taskEXIT_CRITICAL();
   8104c:	4b13      	ldr	r3, [pc, #76]	; (8109c <prvUnlockQueue+0x8c>)
   8104e:	4798      	blx	r3

	/* Do the same for the Rx lock. */
	taskENTER_CRITICAL();
   81050:	4b0f      	ldr	r3, [pc, #60]	; (81090 <prvUnlockQueue+0x80>)
   81052:	4798      	blx	r3
	{
		while( pxQueue->xRxLock > queueLOCKED_UNMODIFIED )
   81054:	6c63      	ldr	r3, [r4, #68]	; 0x44
   81056:	2b00      	cmp	r3, #0
   81058:	dd13      	ble.n	81082 <prvUnlockQueue+0x72>
		{
			if( listLIST_IS_EMPTY( &( pxQueue->xTasksWaitingToSend ) ) == pdFALSE )
   8105a:	6923      	ldr	r3, [r4, #16]
   8105c:	b91b      	cbnz	r3, 81066 <prvUnlockQueue+0x56>
   8105e:	e010      	b.n	81082 <prvUnlockQueue+0x72>
   81060:	6923      	ldr	r3, [r4, #16]
   81062:	b923      	cbnz	r3, 8106e <prvUnlockQueue+0x5e>
   81064:	e00d      	b.n	81082 <prvUnlockQueue+0x72>
			{
				if( xTaskRemoveFromEventList( &( pxQueue->xTasksWaitingToSend ) ) != pdFALSE )
   81066:	f104 0610 	add.w	r6, r4, #16
   8106a:	4d0a      	ldr	r5, [pc, #40]	; (81094 <prvUnlockQueue+0x84>)
				{
					vTaskMissedYield();
   8106c:	4f0a      	ldr	r7, [pc, #40]	; (81098 <prvUnlockQueue+0x88>)
	{
		while( pxQueue->xRxLock > queueLOCKED_UNMODIFIED )
		{
			if( listLIST_IS_EMPTY( &( pxQueue->xTasksWaitingToSend ) ) == pdFALSE )
			{
				if( xTaskRemoveFromEventList( &( pxQueue->xTasksWaitingToSend ) ) != pdFALSE )
   8106e:	4630      	mov	r0, r6
   81070:	47a8      	blx	r5
   81072:	b100      	cbz	r0, 81076 <prvUnlockQueue+0x66>
				{
					vTaskMissedYield();
   81074:	47b8      	blx	r7
				}

				--( pxQueue->xRxLock );
   81076:	6c63      	ldr	r3, [r4, #68]	; 0x44
   81078:	3b01      	subs	r3, #1
   8107a:	6463      	str	r3, [r4, #68]	; 0x44
	taskEXIT_CRITICAL();

	/* Do the same for the Rx lock. */
	taskENTER_CRITICAL();
	{
		while( pxQueue->xRxLock > queueLOCKED_UNMODIFIED )
   8107c:	6c63      	ldr	r3, [r4, #68]	; 0x44
   8107e:	2b00      	cmp	r3, #0
   81080:	dcee      	bgt.n	81060 <prvUnlockQueue+0x50>
			{
				break;
			}
		}

		pxQueue->xRxLock = queueUNLOCKED;
   81082:	f04f 33ff 	mov.w	r3, #4294967295
   81086:	6463      	str	r3, [r4, #68]	; 0x44
	}
	taskEXIT_CRITICAL();
   81088:	4b04      	ldr	r3, [pc, #16]	; (8109c <prvUnlockQueue+0x8c>)
   8108a:	4798      	blx	r3
   8108c:	bdf8      	pop	{r3, r4, r5, r6, r7, pc}
   8108e:	bf00      	nop
   81090:	00080d39 	.word	0x00080d39
   81094:	00081c75 	.word	0x00081c75
   81098:	00081dad 	.word	0x00081dad
   8109c:	00080d59 	.word	0x00080d59

000810a0 <xQueueGenericReset>:
/*-----------------------------------------------------------
 * PUBLIC QUEUE MANAGEMENT API documented in queue.h
 *----------------------------------------------------------*/

portBASE_TYPE xQueueGenericReset( xQueueHandle pxQueue, portBASE_TYPE xNewQueue )
{
   810a0:	b538      	push	{r3, r4, r5, lr}
	configASSERT( pxQueue );
   810a2:	b918      	cbnz	r0, 810ac <xQueueGenericReset+0xc>
   810a4:	4b17      	ldr	r3, [pc, #92]	; (81104 <xQueueGenericReset+0x64>)
   810a6:	4798      	blx	r3
   810a8:	bf00      	nop
   810aa:	e7fd      	b.n	810a8 <xQueueGenericReset+0x8>
   810ac:	460d      	mov	r5, r1
   810ae:	4604      	mov	r4, r0

	taskENTER_CRITICAL();
   810b0:	4b15      	ldr	r3, [pc, #84]	; (81108 <xQueueGenericReset+0x68>)
   810b2:	4798      	blx	r3
	{
		pxQueue->pcTail = pxQueue->pcHead + ( pxQueue->uxLength * pxQueue->uxItemSize );
   810b4:	6822      	ldr	r2, [r4, #0]
   810b6:	6c21      	ldr	r1, [r4, #64]	; 0x40
   810b8:	6be3      	ldr	r3, [r4, #60]	; 0x3c
   810ba:	fb03 f301 	mul.w	r3, r3, r1
   810be:	18d0      	adds	r0, r2, r3
   810c0:	6060      	str	r0, [r4, #4]
		pxQueue->uxMessagesWaiting = ( unsigned portBASE_TYPE ) 0U;
   810c2:	2000      	movs	r0, #0
   810c4:	63a0      	str	r0, [r4, #56]	; 0x38
		pxQueue->pcWriteTo = pxQueue->pcHead;
   810c6:	60a2      	str	r2, [r4, #8]
		pxQueue->pcReadFrom = pxQueue->pcHead + ( ( pxQueue->uxLength - ( unsigned portBASE_TYPE ) 1U ) * pxQueue->uxItemSize );
   810c8:	1a5b      	subs	r3, r3, r1
   810ca:	4413      	add	r3, r2
   810cc:	60e3      	str	r3, [r4, #12]
		pxQueue->xRxLock = queueUNLOCKED;
   810ce:	f04f 33ff 	mov.w	r3, #4294967295
   810d2:	6463      	str	r3, [r4, #68]	; 0x44
		pxQueue->xTxLock = queueUNLOCKED;
   810d4:	64a3      	str	r3, [r4, #72]	; 0x48

		if( xNewQueue == pdFALSE )
   810d6:	b955      	cbnz	r5, 810ee <xQueueGenericReset+0x4e>
			/* If there are tasks blocked waiting to read from the queue, then
			the tasks will remain blocked as after this function exits the queue
			will still be empty.  If there are tasks blocked waiting to	write to
			the queue, then one should be unblocked as after this function exits
			it will be possible to write to it. */
			if( listLIST_IS_EMPTY( &( pxQueue->xTasksWaitingToSend ) ) == pdFALSE )
   810d8:	6923      	ldr	r3, [r4, #16]
   810da:	b17b      	cbz	r3, 810fc <xQueueGenericReset+0x5c>
			{
				if( xTaskRemoveFromEventList( &( pxQueue->xTasksWaitingToSend ) ) == pdTRUE )
   810dc:	f104 0010 	add.w	r0, r4, #16
   810e0:	4b0a      	ldr	r3, [pc, #40]	; (8110c <xQueueGenericReset+0x6c>)
   810e2:	4798      	blx	r3
   810e4:	2801      	cmp	r0, #1
   810e6:	d109      	bne.n	810fc <xQueueGenericReset+0x5c>
				{
					portYIELD_WITHIN_API();
   810e8:	4b09      	ldr	r3, [pc, #36]	; (81110 <xQueueGenericReset+0x70>)
   810ea:	4798      	blx	r3
   810ec:	e006      	b.n	810fc <xQueueGenericReset+0x5c>
			}
		}
		else
		{
			/* Ensure the event queues start in the correct state. */
			vListInitialise( &( pxQueue->xTasksWaitingToSend ) );
   810ee:	f104 0010 	add.w	r0, r4, #16
   810f2:	4d08      	ldr	r5, [pc, #32]	; (81114 <xQueueGenericReset+0x74>)
   810f4:	47a8      	blx	r5
			vListInitialise( &( pxQueue->xTasksWaitingToReceive ) );
   810f6:	f104 0024 	add.w	r0, r4, #36	; 0x24
   810fa:	47a8      	blx	r5
		}
	}
	taskEXIT_CRITICAL();
   810fc:	4b06      	ldr	r3, [pc, #24]	; (81118 <xQueueGenericReset+0x78>)
   810fe:	4798      	blx	r3

	/* A value is returned for calling semantic consistency with previous
	versions. */
	return pdPASS;
}
   81100:	2001      	movs	r0, #1
   81102:	bd38      	pop	{r3, r4, r5, pc}
   81104:	00080d29 	.word	0x00080d29
   81108:	00080d39 	.word	0x00080d39
   8110c:	00081c75 	.word	0x00081c75
   81110:	00080d19 	.word	0x00080d19
   81114:	00080c21 	.word	0x00080c21
   81118:	00080d59 	.word	0x00080d59

0008111c <xQueueGenericCreate>:
/*-----------------------------------------------------------*/

xQueueHandle xQueueGenericCreate( unsigned portBASE_TYPE uxQueueLength, unsigned portBASE_TYPE uxItemSize, unsigned char ucQueueType )
{
   8111c:	b5f8      	push	{r3, r4, r5, r6, r7, lr}
	/* Remove compiler warnings about unused parameters should
	configUSE_TRACE_FACILITY not be set to 1. */
	( void ) ucQueueType;

	/* Allocate the new queue structure. */
	if( uxQueueLength > ( unsigned portBASE_TYPE ) 0 )
   8111e:	b1a0      	cbz	r0, 8114a <xQueueGenericCreate+0x2e>
   81120:	460d      	mov	r5, r1
   81122:	4617      	mov	r7, r2
   81124:	4606      	mov	r6, r0
	{
		pxNewQueue = ( xQUEUE * ) pvPortMalloc( sizeof( xQUEUE ) );
   81126:	2050      	movs	r0, #80	; 0x50
   81128:	4b0e      	ldr	r3, [pc, #56]	; (81164 <xQueueGenericCreate+0x48>)
   8112a:	4798      	blx	r3
		if( pxNewQueue != NULL )
   8112c:	4604      	mov	r4, r0
   8112e:	b160      	cbz	r0, 8114a <xQueueGenericCreate+0x2e>
		{
			/* Create the list of pointers to queue items.  The queue is one byte
			longer than asked for to make wrap checking easier/faster. */
			xQueueSizeInBytes = ( size_t ) ( uxQueueLength * uxItemSize ) + ( size_t ) 1;
   81130:	fb05 f006 	mul.w	r0, r5, r6

			pxNewQueue->pcHead = ( signed char * ) pvPortMalloc( xQueueSizeInBytes );
   81134:	3001      	adds	r0, #1
   81136:	4b0b      	ldr	r3, [pc, #44]	; (81164 <xQueueGenericCreate+0x48>)
   81138:	4798      	blx	r3
   8113a:	6020      	str	r0, [r4, #0]
			if( pxNewQueue->pcHead != NULL )
   8113c:	b940      	cbnz	r0, 81150 <xQueueGenericCreate+0x34>
				xReturn = pxNewQueue;
			}
			else
			{
				traceQUEUE_CREATE_FAILED( ucQueueType );
				vPortFree( pxNewQueue );
   8113e:	4620      	mov	r0, r4
   81140:	4b09      	ldr	r3, [pc, #36]	; (81168 <xQueueGenericCreate+0x4c>)
   81142:	4798      	blx	r3
   81144:	e001      	b.n	8114a <xQueueGenericCreate+0x2e>
			}
		}
	}

	configASSERT( xReturn );
   81146:	bf00      	nop
   81148:	e7fd      	b.n	81146 <xQueueGenericCreate+0x2a>
   8114a:	4b08      	ldr	r3, [pc, #32]	; (8116c <xQueueGenericCreate+0x50>)
   8114c:	4798      	blx	r3
   8114e:	e7fa      	b.n	81146 <xQueueGenericCreate+0x2a>
			pxNewQueue->pcHead = ( signed char * ) pvPortMalloc( xQueueSizeInBytes );
			if( pxNewQueue->pcHead != NULL )
			{
				/* Initialise the queue members as described above where the
				queue type is defined. */
				pxNewQueue->uxLength = uxQueueLength;
   81150:	63e6      	str	r6, [r4, #60]	; 0x3c
				pxNewQueue->uxItemSize = uxItemSize;
   81152:	6425      	str	r5, [r4, #64]	; 0x40
				xQueueGenericReset( pxNewQueue, pdTRUE );
   81154:	4620      	mov	r0, r4
   81156:	2101      	movs	r1, #1
   81158:	4b05      	ldr	r3, [pc, #20]	; (81170 <xQueueGenericCreate+0x54>)
   8115a:	4798      	blx	r3
				#if ( configUSE_TRACE_FACILITY == 1 )
				{
					pxNewQueue->ucQueueType = ucQueueType;
   8115c:	f884 704d 	strb.w	r7, [r4, #77]	; 0x4d
	}

	configASSERT( xReturn );

	return xReturn;
}
   81160:	4620      	mov	r0, r4
   81162:	bdf8      	pop	{r3, r4, r5, r6, r7, pc}
   81164:	00080e85 	.word	0x00080e85
   81168:	00080f4d 	.word	0x00080f4d
   8116c:	00080d29 	.word	0x00080d29
   81170:	000810a1 	.word	0x000810a1

00081174 <xQueueGenericSend>:

#endif /* configUSE_COUNTING_SEMAPHORES */
/*-----------------------------------------------------------*/

signed portBASE_TYPE xQueueGenericSend( xQueueHandle pxQueue, const void * const pvItemToQueue, portTickType xTicksToWait, portBASE_TYPE xCopyPosition )
{
   81174:	e92d 4ff0 	stmdb	sp!, {r4, r5, r6, r7, r8, r9, sl, fp, lr}
   81178:	b085      	sub	sp, #20
   8117a:	9300      	str	r3, [sp, #0]
   8117c:	f8ad 2006 	strh.w	r2, [sp, #6]
signed portBASE_TYPE xEntryTimeSet = pdFALSE;
xTimeOutType xTimeOut;

	configASSERT( pxQueue );
   81180:	b918      	cbnz	r0, 8118a <xQueueGenericSend+0x16>
   81182:	4b3a      	ldr	r3, [pc, #232]	; (8126c <xQueueGenericSend+0xf8>)
   81184:	4798      	blx	r3
   81186:	bf00      	nop
   81188:	e7fd      	b.n	81186 <xQueueGenericSend+0x12>
   8118a:	468a      	mov	sl, r1
   8118c:	4604      	mov	r4, r0
	configASSERT( !( ( pvItemToQueue == NULL ) && ( pxQueue->uxItemSize != ( unsigned portBASE_TYPE ) 0U ) ) );
   8118e:	b929      	cbnz	r1, 8119c <xQueueGenericSend+0x28>
   81190:	6c03      	ldr	r3, [r0, #64]	; 0x40
   81192:	b12b      	cbz	r3, 811a0 <xQueueGenericSend+0x2c>
   81194:	4b35      	ldr	r3, [pc, #212]	; (8126c <xQueueGenericSend+0xf8>)
   81196:	4798      	blx	r3
   81198:	bf00      	nop
   8119a:	e7fd      	b.n	81198 <xQueueGenericSend+0x24>
   8119c:	2700      	movs	r7, #0
   8119e:	e000      	b.n	811a2 <xQueueGenericSend+0x2e>
   811a0:	2700      	movs	r7, #0
	/* This function relaxes the coding standard somewhat to allow return
	statements within the function itself.  This is done in the interest
	of execution time efficiency. */
	for( ;; )
	{
		taskENTER_CRITICAL();
   811a2:	4e33      	ldr	r6, [pc, #204]	; (81270 <xQueueGenericSend+0xfc>)
				}
				else if( xEntryTimeSet == pdFALSE )
				{
					/* The queue was full and a block time was specified so
					configure the timeout structure. */
					vTaskSetTimeOutState( &xTimeOut );
   811a4:	f8df b0f0 	ldr.w	fp, [pc, #240]	; 81298 <xQueueGenericSend+0x124>
					xEntryTimeSet = pdTRUE;
				}
			}
		}
		taskEXIT_CRITICAL();
   811a8:	4d32      	ldr	r5, [pc, #200]	; (81274 <xQueueGenericSend+0x100>)
	/* This function relaxes the coding standard somewhat to allow return
	statements within the function itself.  This is done in the interest
	of execution time efficiency. */
	for( ;; )
	{
		taskENTER_CRITICAL();
   811aa:	47b0      	blx	r6
		{
			/* Is there room on the queue now?  To be running we must be
			the highest priority task wanting to access the queue. */
			if( pxQueue->uxMessagesWaiting < pxQueue->uxLength )
   811ac:	6ba2      	ldr	r2, [r4, #56]	; 0x38
   811ae:	6be3      	ldr	r3, [r4, #60]	; 0x3c
   811b0:	429a      	cmp	r2, r3
   811b2:	d212      	bcs.n	811da <xQueueGenericSend+0x66>
			{
				traceQUEUE_SEND( pxQueue );
				prvCopyDataToQueue( pxQueue, pvItemToQueue, xCopyPosition );
   811b4:	4620      	mov	r0, r4
   811b6:	4651      	mov	r1, sl
   811b8:	9a00      	ldr	r2, [sp, #0]
   811ba:	4b2f      	ldr	r3, [pc, #188]	; (81278 <xQueueGenericSend+0x104>)
   811bc:	4798      	blx	r3

				/* If there was a task waiting for data to arrive on the
				queue then unblock it now. */
				if( listLIST_IS_EMPTY( &( pxQueue->xTasksWaitingToReceive ) ) == pdFALSE )
   811be:	6a63      	ldr	r3, [r4, #36]	; 0x24
   811c0:	b13b      	cbz	r3, 811d2 <xQueueGenericSend+0x5e>
				{
					if( xTaskRemoveFromEventList( &( pxQueue->xTasksWaitingToReceive ) ) == pdTRUE )
   811c2:	f104 0024 	add.w	r0, r4, #36	; 0x24
   811c6:	4b2d      	ldr	r3, [pc, #180]	; (8127c <xQueueGenericSend+0x108>)
   811c8:	4798      	blx	r3
   811ca:	2801      	cmp	r0, #1
   811cc:	d101      	bne.n	811d2 <xQueueGenericSend+0x5e>
					{
						/* The unblocked task has a priority higher than
						our own so yield immediately.  Yes it is ok to do
						this from within the critical section - the kernel
						takes care of that. */
						portYIELD_WITHIN_API();
   811ce:	4b2c      	ldr	r3, [pc, #176]	; (81280 <xQueueGenericSend+0x10c>)
   811d0:	4798      	blx	r3
					}
				}

				taskEXIT_CRITICAL();
   811d2:	4b28      	ldr	r3, [pc, #160]	; (81274 <xQueueGenericSend+0x100>)
   811d4:	4798      	blx	r3

				/* Return to the original privilege level before exiting the
				function. */
				return pdPASS;
   811d6:	2001      	movs	r0, #1
   811d8:	e045      	b.n	81266 <xQueueGenericSend+0xf2>
			}
			else
			{
				if( xTicksToWait == ( portTickType ) 0 )
   811da:	f8bd 3006 	ldrh.w	r3, [sp, #6]
   811de:	b91b      	cbnz	r3, 811e8 <xQueueGenericSend+0x74>
				{
					/* The queue was full and no block time is specified (or
					the block time has expired) so leave now. */
					taskEXIT_CRITICAL();
   811e0:	4b24      	ldr	r3, [pc, #144]	; (81274 <xQueueGenericSend+0x100>)
   811e2:	4798      	blx	r3

					/* Return to the original privilege level before exiting
					the function. */
					traceQUEUE_SEND_FAILED( pxQueue );
					return errQUEUE_FULL;
   811e4:	2000      	movs	r0, #0
   811e6:	e03e      	b.n	81266 <xQueueGenericSend+0xf2>
				}
				else if( xEntryTimeSet == pdFALSE )
   811e8:	b917      	cbnz	r7, 811f0 <xQueueGenericSend+0x7c>
				{
					/* The queue was full and a block time was specified so
					configure the timeout structure. */
					vTaskSetTimeOutState( &xTimeOut );
   811ea:	a802      	add	r0, sp, #8
   811ec:	47d8      	blx	fp
					xEntryTimeSet = pdTRUE;
   811ee:	2701      	movs	r7, #1
				}
			}
		}
		taskEXIT_CRITICAL();
   811f0:	47a8      	blx	r5

		/* Interrupts and other tasks can send to and receive from the queue
		now the critical section has been exited. */

		vTaskSuspendAll();
   811f2:	4b24      	ldr	r3, [pc, #144]	; (81284 <xQueueGenericSend+0x110>)
   811f4:	4798      	blx	r3
		prvLockQueue( pxQueue );
   811f6:	47b0      	blx	r6
   811f8:	6c63      	ldr	r3, [r4, #68]	; 0x44
   811fa:	f1b3 3fff 	cmp.w	r3, #4294967295
   811fe:	bf04      	itt	eq
   81200:	2300      	moveq	r3, #0
   81202:	6463      	streq	r3, [r4, #68]	; 0x44
   81204:	6ca3      	ldr	r3, [r4, #72]	; 0x48
   81206:	f1b3 3fff 	cmp.w	r3, #4294967295
   8120a:	bf04      	itt	eq
   8120c:	2300      	moveq	r3, #0
   8120e:	64a3      	streq	r3, [r4, #72]	; 0x48
   81210:	47a8      	blx	r5

		/* Update the timeout state to see if it has expired yet. */
		if( xTaskCheckForTimeOut( &xTimeOut, &xTicksToWait ) == pdFALSE )
   81212:	a802      	add	r0, sp, #8
   81214:	f10d 0106 	add.w	r1, sp, #6
   81218:	4b1b      	ldr	r3, [pc, #108]	; (81288 <xQueueGenericSend+0x114>)
   8121a:	4798      	blx	r3
   8121c:	b9e8      	cbnz	r0, 8125a <xQueueGenericSend+0xe6>

static signed portBASE_TYPE prvIsQueueFull( const xQueueHandle pxQueue )
{
signed portBASE_TYPE xReturn;

	taskENTER_CRITICAL();
   8121e:	47b0      	blx	r6
		xReturn = ( pxQueue->uxMessagesWaiting == pxQueue->uxLength );
   81220:	f8d4 9038 	ldr.w	r9, [r4, #56]	; 0x38
   81224:	f8d4 803c 	ldr.w	r8, [r4, #60]	; 0x3c
	taskEXIT_CRITICAL();
   81228:	47a8      	blx	r5
		prvLockQueue( pxQueue );

		/* Update the timeout state to see if it has expired yet. */
		if( xTaskCheckForTimeOut( &xTimeOut, &xTicksToWait ) == pdFALSE )
		{
			if( prvIsQueueFull( pxQueue ) != pdFALSE )
   8122a:	45c1      	cmp	r9, r8
   8122c:	d10f      	bne.n	8124e <xQueueGenericSend+0xda>
			{
				traceBLOCKING_ON_QUEUE_SEND( pxQueue );
				vTaskPlaceOnEventList( &( pxQueue->xTasksWaitingToSend ), xTicksToWait );
   8122e:	f104 0010 	add.w	r0, r4, #16
   81232:	f8bd 1006 	ldrh.w	r1, [sp, #6]
   81236:	4b15      	ldr	r3, [pc, #84]	; (8128c <xQueueGenericSend+0x118>)
   81238:	4798      	blx	r3
				/* Unlocking the queue means queue events can effect the
				event list.  It is possible	that interrupts occurring now
				remove this task from the event	list again - but as the
				scheduler is suspended the task will go onto the pending
				ready last instead of the actual ready list. */
				prvUnlockQueue( pxQueue );
   8123a:	4620      	mov	r0, r4
   8123c:	4b14      	ldr	r3, [pc, #80]	; (81290 <xQueueGenericSend+0x11c>)
   8123e:	4798      	blx	r3
				/* Resuming the scheduler will move tasks from the pending
				ready list into the ready list - so it is feasible that this
				task is already in a ready list before it yields - in which
				case the yield will not cause a context switch unless there
				is also a higher priority task in the pending ready list. */
				if( xTaskResumeAll() == pdFALSE )
   81240:	4b14      	ldr	r3, [pc, #80]	; (81294 <xQueueGenericSend+0x120>)
   81242:	4798      	blx	r3
   81244:	2800      	cmp	r0, #0
   81246:	d1b0      	bne.n	811aa <xQueueGenericSend+0x36>
				{
					portYIELD_WITHIN_API();
   81248:	4b0d      	ldr	r3, [pc, #52]	; (81280 <xQueueGenericSend+0x10c>)
   8124a:	4798      	blx	r3
   8124c:	e7ad      	b.n	811aa <xQueueGenericSend+0x36>
				}
			}
			else
			{
				/* Try again. */
				prvUnlockQueue( pxQueue );
   8124e:	4620      	mov	r0, r4
   81250:	4b0f      	ldr	r3, [pc, #60]	; (81290 <xQueueGenericSend+0x11c>)
   81252:	4798      	blx	r3
				( void ) xTaskResumeAll();
   81254:	4b0f      	ldr	r3, [pc, #60]	; (81294 <xQueueGenericSend+0x120>)
   81256:	4798      	blx	r3
   81258:	e7a7      	b.n	811aa <xQueueGenericSend+0x36>
			}
		}
		else
		{
			/* The timeout has expired. */
			prvUnlockQueue( pxQueue );
   8125a:	4620      	mov	r0, r4
   8125c:	4b0c      	ldr	r3, [pc, #48]	; (81290 <xQueueGenericSend+0x11c>)
   8125e:	4798      	blx	r3
			( void ) xTaskResumeAll();
   81260:	4b0c      	ldr	r3, [pc, #48]	; (81294 <xQueueGenericSend+0x120>)
   81262:	4798      	blx	r3

			/* Return to the original privilege level before exiting the
			function. */
			traceQUEUE_SEND_FAILED( pxQueue );
			return errQUEUE_FULL;
   81264:	2000      	movs	r0, #0
		}
	}
}
   81266:	b005      	add	sp, #20
   81268:	e8bd 8ff0 	ldmia.w	sp!, {r4, r5, r6, r7, r8, r9, sl, fp, pc}
   8126c:	00080d29 	.word	0x00080d29
   81270:	00080d39 	.word	0x00080d39
   81274:	00080d59 	.word	0x00080d59
   81278:	00080f85 	.word	0x00080f85
   8127c:	00081c75 	.word	0x00081c75
   81280:	00080d19 	.word	0x00080d19
   81284:	000817a9 	.word	0x000817a9
   81288:	00081d21 	.word	0x00081d21
   8128c:	00081bc9 	.word	0x00081bc9
   81290:	00081011 	.word	0x00081011
   81294:	00081905 	.word	0x00081905
   81298:	00081cf9 	.word	0x00081cf9

0008129c <xQueueGenericSendFromISR>:

#endif /* configUSE_ALTERNATIVE_API */
/*-----------------------------------------------------------*/

signed portBASE_TYPE xQueueGenericSendFromISR( xQueueHandle pxQueue, const void * const pvItemToQueue, signed portBASE_TYPE *pxHigherPriorityTaskWoken, portBASE_TYPE xCopyPosition )
{
   8129c:	e92d 41f0 	stmdb	sp!, {r4, r5, r6, r7, r8, lr}
signed portBASE_TYPE xReturn;
unsigned portBASE_TYPE uxSavedInterruptStatus;

	configASSERT( pxQueue );
   812a0:	b918      	cbnz	r0, 812aa <xQueueGenericSendFromISR+0xe>
   812a2:	4b1e      	ldr	r3, [pc, #120]	; (8131c <xQueueGenericSendFromISR+0x80>)
   812a4:	4798      	blx	r3
   812a6:	bf00      	nop
   812a8:	e7fd      	b.n	812a6 <xQueueGenericSendFromISR+0xa>
   812aa:	460e      	mov	r6, r1
   812ac:	4615      	mov	r5, r2
   812ae:	4698      	mov	r8, r3
   812b0:	4604      	mov	r4, r0
	configASSERT( !( ( pvItemToQueue == NULL ) && ( pxQueue->uxItemSize != ( unsigned portBASE_TYPE ) 0U ) ) );
   812b2:	b929      	cbnz	r1, 812c0 <xQueueGenericSendFromISR+0x24>
   812b4:	6c03      	ldr	r3, [r0, #64]	; 0x40
   812b6:	b11b      	cbz	r3, 812c0 <xQueueGenericSendFromISR+0x24>
   812b8:	4b18      	ldr	r3, [pc, #96]	; (8131c <xQueueGenericSendFromISR+0x80>)
   812ba:	4798      	blx	r3
   812bc:	bf00      	nop
   812be:	e7fd      	b.n	812bc <xQueueGenericSendFromISR+0x20>
	/* Similar to xQueueGenericSend, except we don't block if there is no room
	in the queue.  Also we don't directly wake a task that was blocked on a
	queue read, instead we return a flag to say whether a context switch is
	required or not (i.e. has a task with a higher priority than us been woken
	by this	post). */
	uxSavedInterruptStatus = portSET_INTERRUPT_MASK_FROM_ISR();
   812c0:	4b16      	ldr	r3, [pc, #88]	; (8131c <xQueueGenericSendFromISR+0x80>)
   812c2:	4798      	blx	r3
   812c4:	4607      	mov	r7, r0
	{
		if( pxQueue->uxMessagesWaiting < pxQueue->uxLength )
   812c6:	6ba2      	ldr	r2, [r4, #56]	; 0x38
   812c8:	6be3      	ldr	r3, [r4, #60]	; 0x3c
   812ca:	429a      	cmp	r2, r3
   812cc:	d218      	bcs.n	81300 <xQueueGenericSendFromISR+0x64>
		{
			traceQUEUE_SEND_FROM_ISR( pxQueue );

			prvCopyDataToQueue( pxQueue, pvItemToQueue, xCopyPosition );
   812ce:	4620      	mov	r0, r4
   812d0:	4631      	mov	r1, r6
   812d2:	4642      	mov	r2, r8
   812d4:	4b12      	ldr	r3, [pc, #72]	; (81320 <xQueueGenericSendFromISR+0x84>)
   812d6:	4798      	blx	r3

			/* If the queue is locked we do not alter the event list.  This will
			be done when the queue is unlocked later. */
			if( pxQueue->xTxLock == queueUNLOCKED )
   812d8:	6ca3      	ldr	r3, [r4, #72]	; 0x48
   812da:	f1b3 3fff 	cmp.w	r3, #4294967295
   812de:	d10a      	bne.n	812f6 <xQueueGenericSendFromISR+0x5a>
			{
				if( listLIST_IS_EMPTY( &( pxQueue->xTasksWaitingToReceive ) ) == pdFALSE )
   812e0:	6a63      	ldr	r3, [r4, #36]	; 0x24
   812e2:	b17b      	cbz	r3, 81304 <xQueueGenericSendFromISR+0x68>
				{
					if( xTaskRemoveFromEventList( &( pxQueue->xTasksWaitingToReceive ) ) != pdFALSE )
   812e4:	f104 0024 	add.w	r0, r4, #36	; 0x24
   812e8:	4b0e      	ldr	r3, [pc, #56]	; (81324 <xQueueGenericSendFromISR+0x88>)
   812ea:	4798      	blx	r3
   812ec:	b160      	cbz	r0, 81308 <xQueueGenericSendFromISR+0x6c>
					{
						/* The task waiting has a higher priority so record that a
						context	switch is required. */
						if( pxHigherPriorityTaskWoken != NULL )
   812ee:	b16d      	cbz	r5, 8130c <xQueueGenericSendFromISR+0x70>
						{
							*pxHigherPriorityTaskWoken = pdTRUE;
   812f0:	2401      	movs	r4, #1
   812f2:	602c      	str	r4, [r5, #0]
   812f4:	e00b      	b.n	8130e <xQueueGenericSendFromISR+0x72>
			}
			else
			{
				/* Increment the lock count so the task that unlocks the queue
				knows that data was posted while it was locked. */
				++( pxQueue->xTxLock );
   812f6:	6ca3      	ldr	r3, [r4, #72]	; 0x48
   812f8:	3301      	adds	r3, #1
   812fa:	64a3      	str	r3, [r4, #72]	; 0x48
			}

			xReturn = pdPASS;
   812fc:	2401      	movs	r4, #1
   812fe:	e006      	b.n	8130e <xQueueGenericSendFromISR+0x72>
		}
		else
		{
			traceQUEUE_SEND_FROM_ISR_FAILED( pxQueue );
			xReturn = errQUEUE_FULL;
   81300:	2400      	movs	r4, #0
   81302:	e004      	b.n	8130e <xQueueGenericSendFromISR+0x72>
				/* Increment the lock count so the task that unlocks the queue
				knows that data was posted while it was locked. */
				++( pxQueue->xTxLock );
			}

			xReturn = pdPASS;
   81304:	2401      	movs	r4, #1
   81306:	e002      	b.n	8130e <xQueueGenericSendFromISR+0x72>
   81308:	2401      	movs	r4, #1
   8130a:	e000      	b.n	8130e <xQueueGenericSendFromISR+0x72>
   8130c:	2401      	movs	r4, #1
		{
			traceQUEUE_SEND_FROM_ISR_FAILED( pxQueue );
			xReturn = errQUEUE_FULL;
		}
	}
	portCLEAR_INTERRUPT_MASK_FROM_ISR( uxSavedInterruptStatus );
   8130e:	4638      	mov	r0, r7
   81310:	4b05      	ldr	r3, [pc, #20]	; (81328 <xQueueGenericSendFromISR+0x8c>)
   81312:	4798      	blx	r3

	return xReturn;
}
   81314:	4620      	mov	r0, r4
   81316:	e8bd 81f0 	ldmia.w	sp!, {r4, r5, r6, r7, r8, pc}
   8131a:	bf00      	nop
   8131c:	00080d29 	.word	0x00080d29
   81320:	00080f85 	.word	0x00080f85
   81324:	00081c75 	.word	0x00081c75
   81328:	00080d51 	.word	0x00080d51

0008132c <xQueueGenericReceive>:
/*-----------------------------------------------------------*/

signed portBASE_TYPE xQueueGenericReceive( xQueueHandle pxQueue, void * const pvBuffer, portTickType xTicksToWait, portBASE_TYPE xJustPeeking )
{
   8132c:	e92d 4ff0 	stmdb	sp!, {r4, r5, r6, r7, r8, r9, sl, fp, lr}
   81330:	b085      	sub	sp, #20
   81332:	f8ad 2006 	strh.w	r2, [sp, #6]
signed portBASE_TYPE xEntryTimeSet = pdFALSE;
xTimeOutType xTimeOut;
signed char *pcOriginalReadPosition;

	configASSERT( pxQueue );
   81336:	b918      	cbnz	r0, 81340 <xQueueGenericReceive+0x14>
   81338:	4b47      	ldr	r3, [pc, #284]	; (81458 <xQueueGenericReceive+0x12c>)
   8133a:	4798      	blx	r3
   8133c:	bf00      	nop
   8133e:	e7fd      	b.n	8133c <xQueueGenericReceive+0x10>
   81340:	4689      	mov	r9, r1
   81342:	469a      	mov	sl, r3
   81344:	4604      	mov	r4, r0
	configASSERT( !( ( pvBuffer == NULL ) && ( pxQueue->uxItemSize != ( unsigned portBASE_TYPE ) 0U ) ) );
   81346:	b929      	cbnz	r1, 81354 <xQueueGenericReceive+0x28>
   81348:	6c03      	ldr	r3, [r0, #64]	; 0x40
   8134a:	b12b      	cbz	r3, 81358 <xQueueGenericReceive+0x2c>
   8134c:	4b42      	ldr	r3, [pc, #264]	; (81458 <xQueueGenericReceive+0x12c>)
   8134e:	4798      	blx	r3
   81350:	bf00      	nop
   81352:	e7fd      	b.n	81350 <xQueueGenericReceive+0x24>
   81354:	2700      	movs	r7, #0
   81356:	e000      	b.n	8135a <xQueueGenericReceive+0x2e>
   81358:	2700      	movs	r7, #0
	statements within the function itself.  This is done in the interest
	of execution time efficiency. */

	for( ;; )
	{
		taskENTER_CRITICAL();
   8135a:	4e40      	ldr	r6, [pc, #256]	; (8145c <xQueueGenericReceive+0x130>)
				}
				else if( xEntryTimeSet == pdFALSE )
				{
					/* The queue was empty and a block time was specified so
					configure the timeout structure. */
					vTaskSetTimeOutState( &xTimeOut );
   8135c:	f8df b12c 	ldr.w	fp, [pc, #300]	; 8148c <xQueueGenericReceive+0x160>
					xEntryTimeSet = pdTRUE;
				}
			}
		}
		taskEXIT_CRITICAL();
   81360:	4d3f      	ldr	r5, [pc, #252]	; (81460 <xQueueGenericReceive+0x134>)
	statements within the function itself.  This is done in the interest
	of execution time efficiency. */

	for( ;; )
	{
		taskENTER_CRITICAL();
   81362:	47b0      	blx	r6
		{
			/* Is there data in the queue now?  To be running we must be
			the highest priority task wanting to access the queue. */
			if( pxQueue->uxMessagesWaiting > ( unsigned portBASE_TYPE ) 0 )
   81364:	6ba3      	ldr	r3, [r4, #56]	; 0x38
   81366:	b343      	cbz	r3, 813ba <xQueueGenericReceive+0x8e>
			{
				/* Remember our read position in case we are just peeking. */
				pcOriginalReadPosition = pxQueue->pcReadFrom;
   81368:	68e5      	ldr	r5, [r4, #12]

				prvCopyDataFromQueue( pxQueue, pvBuffer );
   8136a:	4620      	mov	r0, r4
   8136c:	4649      	mov	r1, r9
   8136e:	4b3d      	ldr	r3, [pc, #244]	; (81464 <xQueueGenericReceive+0x138>)
   81370:	4798      	blx	r3

				if( xJustPeeking == pdFALSE )
   81372:	f1ba 0f00 	cmp.w	sl, #0
   81376:	d112      	bne.n	8139e <xQueueGenericReceive+0x72>
				{
					traceQUEUE_RECEIVE( pxQueue );

					/* We are actually removing data. */
					--( pxQueue->uxMessagesWaiting );
   81378:	6ba3      	ldr	r3, [r4, #56]	; 0x38
   8137a:	3b01      	subs	r3, #1
   8137c:	63a3      	str	r3, [r4, #56]	; 0x38

					#if ( configUSE_MUTEXES == 1 )
					{
						if( pxQueue->uxQueueType == queueQUEUE_IS_MUTEX )
   8137e:	6823      	ldr	r3, [r4, #0]
   81380:	b913      	cbnz	r3, 81388 <xQueueGenericReceive+0x5c>
						{
							/* Record the information required to implement
							priority inheritance should it become necessary. */
							pxQueue->pxMutexHolder = xTaskGetCurrentTaskHandle();
   81382:	4b39      	ldr	r3, [pc, #228]	; (81468 <xQueueGenericReceive+0x13c>)
   81384:	4798      	blx	r3
   81386:	6060      	str	r0, [r4, #4]
						}
					}
					#endif

					if( listLIST_IS_EMPTY( &( pxQueue->xTasksWaitingToSend ) ) == pdFALSE )
   81388:	6923      	ldr	r3, [r4, #16]
   8138a:	b193      	cbz	r3, 813b2 <xQueueGenericReceive+0x86>
					{
						if( xTaskRemoveFromEventList( &( pxQueue->xTasksWaitingToSend ) ) == pdTRUE )
   8138c:	f104 0010 	add.w	r0, r4, #16
   81390:	4b36      	ldr	r3, [pc, #216]	; (8146c <xQueueGenericReceive+0x140>)
   81392:	4798      	blx	r3
   81394:	2801      	cmp	r0, #1
   81396:	d10c      	bne.n	813b2 <xQueueGenericReceive+0x86>
						{
							portYIELD_WITHIN_API();
   81398:	4b35      	ldr	r3, [pc, #212]	; (81470 <xQueueGenericReceive+0x144>)
   8139a:	4798      	blx	r3
   8139c:	e009      	b.n	813b2 <xQueueGenericReceive+0x86>
				{
					traceQUEUE_PEEK( pxQueue );

					/* We are not removing the data, so reset our read
					pointer. */
					pxQueue->pcReadFrom = pcOriginalReadPosition;
   8139e:	60e5      	str	r5, [r4, #12]

					/* The data is being left in the queue, so see if there are
					any other tasks waiting for the data. */
					if( listLIST_IS_EMPTY( &( pxQueue->xTasksWaitingToReceive ) ) == pdFALSE )
   813a0:	6a63      	ldr	r3, [r4, #36]	; 0x24
   813a2:	b133      	cbz	r3, 813b2 <xQueueGenericReceive+0x86>
					{
						/* Tasks that are removed from the event list will get added to
						the pending ready list as the scheduler is still suspended. */
						if( xTaskRemoveFromEventList( &( pxQueue->xTasksWaitingToReceive ) ) != pdFALSE )
   813a4:	f104 0024 	add.w	r0, r4, #36	; 0x24
   813a8:	4b30      	ldr	r3, [pc, #192]	; (8146c <xQueueGenericReceive+0x140>)
   813aa:	4798      	blx	r3
   813ac:	b108      	cbz	r0, 813b2 <xQueueGenericReceive+0x86>
						{
							/* The task waiting has a higher priority than this task. */
							portYIELD_WITHIN_API();
   813ae:	4b30      	ldr	r3, [pc, #192]	; (81470 <xQueueGenericReceive+0x144>)
   813b0:	4798      	blx	r3
						}
					}
				}

				taskEXIT_CRITICAL();
   813b2:	4b2b      	ldr	r3, [pc, #172]	; (81460 <xQueueGenericReceive+0x134>)
   813b4:	4798      	blx	r3
				return pdPASS;
   813b6:	2001      	movs	r0, #1
   813b8:	e04b      	b.n	81452 <xQueueGenericReceive+0x126>
			}
			else
			{
				if( xTicksToWait == ( portTickType ) 0 )
   813ba:	f8bd 3006 	ldrh.w	r3, [sp, #6]
   813be:	b91b      	cbnz	r3, 813c8 <xQueueGenericReceive+0x9c>
				{
					/* The queue was empty and no block time is specified (or
					the block time has expired) so leave now. */
					taskEXIT_CRITICAL();
   813c0:	4b27      	ldr	r3, [pc, #156]	; (81460 <xQueueGenericReceive+0x134>)
   813c2:	4798      	blx	r3
					traceQUEUE_RECEIVE_FAILED( pxQueue );
					return errQUEUE_EMPTY;
   813c4:	2000      	movs	r0, #0
   813c6:	e044      	b.n	81452 <xQueueGenericReceive+0x126>
				}
				else if( xEntryTimeSet == pdFALSE )
   813c8:	b917      	cbnz	r7, 813d0 <xQueueGenericReceive+0xa4>
				{
					/* The queue was empty and a block time was specified so
					configure the timeout structure. */
					vTaskSetTimeOutState( &xTimeOut );
   813ca:	a802      	add	r0, sp, #8
   813cc:	47d8      	blx	fp
					xEntryTimeSet = pdTRUE;
   813ce:	2701      	movs	r7, #1
				}
			}
		}
		taskEXIT_CRITICAL();
   813d0:	47a8      	blx	r5

		/* Interrupts and other tasks can send to and receive from the queue
		now the critical section has been exited. */

		vTaskSuspendAll();
   813d2:	4b28      	ldr	r3, [pc, #160]	; (81474 <xQueueGenericReceive+0x148>)
   813d4:	4798      	blx	r3
		prvLockQueue( pxQueue );
   813d6:	47b0      	blx	r6
   813d8:	6c63      	ldr	r3, [r4, #68]	; 0x44
   813da:	f1b3 3fff 	cmp.w	r3, #4294967295
   813de:	bf04      	itt	eq
   813e0:	2300      	moveq	r3, #0
   813e2:	6463      	streq	r3, [r4, #68]	; 0x44
   813e4:	6ca3      	ldr	r3, [r4, #72]	; 0x48
   813e6:	f1b3 3fff 	cmp.w	r3, #4294967295
   813ea:	bf04      	itt	eq
   813ec:	2300      	moveq	r3, #0
   813ee:	64a3      	streq	r3, [r4, #72]	; 0x48
   813f0:	47a8      	blx	r5

		/* Update the timeout state to see if it has expired yet. */
		if( xTaskCheckForTimeOut( &xTimeOut, &xTicksToWait ) == pdFALSE )
   813f2:	a802      	add	r0, sp, #8
   813f4:	f10d 0106 	add.w	r1, sp, #6
   813f8:	4b1f      	ldr	r3, [pc, #124]	; (81478 <xQueueGenericReceive+0x14c>)
   813fa:	4798      	blx	r3
   813fc:	bb18      	cbnz	r0, 81446 <xQueueGenericReceive+0x11a>

static signed portBASE_TYPE prvIsQueueEmpty( const xQueueHandle pxQueue )
{
signed portBASE_TYPE xReturn;

	taskENTER_CRITICAL();
   813fe:	47b0      	blx	r6
		xReturn = ( pxQueue->uxMessagesWaiting == ( unsigned portBASE_TYPE ) 0 );
   81400:	f8d4 8038 	ldr.w	r8, [r4, #56]	; 0x38
	taskEXIT_CRITICAL();
   81404:	47a8      	blx	r5
		prvLockQueue( pxQueue );

		/* Update the timeout state to see if it has expired yet. */
		if( xTaskCheckForTimeOut( &xTimeOut, &xTicksToWait ) == pdFALSE )
		{
			if( prvIsQueueEmpty( pxQueue ) != pdFALSE )
   81406:	f1b8 0f00 	cmp.w	r8, #0
   8140a:	d116      	bne.n	8143a <xQueueGenericReceive+0x10e>
			{
				traceBLOCKING_ON_QUEUE_RECEIVE( pxQueue );

				#if ( configUSE_MUTEXES == 1 )
				{
					if( pxQueue->uxQueueType == queueQUEUE_IS_MUTEX )
   8140c:	6823      	ldr	r3, [r4, #0]
   8140e:	b923      	cbnz	r3, 8141a <xQueueGenericReceive+0xee>
					{
						portENTER_CRITICAL();
   81410:	47b0      	blx	r6
						{
							vTaskPriorityInherit( ( void * ) pxQueue->pxMutexHolder );
   81412:	6860      	ldr	r0, [r4, #4]
   81414:	4b19      	ldr	r3, [pc, #100]	; (8147c <xQueueGenericReceive+0x150>)
   81416:	4798      	blx	r3
						}
						portEXIT_CRITICAL();
   81418:	47a8      	blx	r5
					}
				}
				#endif

				vTaskPlaceOnEventList( &( pxQueue->xTasksWaitingToReceive ), xTicksToWait );
   8141a:	f104 0024 	add.w	r0, r4, #36	; 0x24
   8141e:	f8bd 1006 	ldrh.w	r1, [sp, #6]
   81422:	4b17      	ldr	r3, [pc, #92]	; (81480 <xQueueGenericReceive+0x154>)
   81424:	4798      	blx	r3
				prvUnlockQueue( pxQueue );
   81426:	4620      	mov	r0, r4
   81428:	4b16      	ldr	r3, [pc, #88]	; (81484 <xQueueGenericReceive+0x158>)
   8142a:	4798      	blx	r3
				if( xTaskResumeAll() == pdFALSE )
   8142c:	4b16      	ldr	r3, [pc, #88]	; (81488 <xQueueGenericReceive+0x15c>)
   8142e:	4798      	blx	r3
   81430:	2800      	cmp	r0, #0
   81432:	d196      	bne.n	81362 <xQueueGenericReceive+0x36>
				{
					portYIELD_WITHIN_API();
   81434:	4b0e      	ldr	r3, [pc, #56]	; (81470 <xQueueGenericReceive+0x144>)
   81436:	4798      	blx	r3
   81438:	e793      	b.n	81362 <xQueueGenericReceive+0x36>
				}
			}
			else
			{
				/* Try again. */
				prvUnlockQueue( pxQueue );
   8143a:	4620      	mov	r0, r4
   8143c:	4b11      	ldr	r3, [pc, #68]	; (81484 <xQueueGenericReceive+0x158>)
   8143e:	4798      	blx	r3
				( void ) xTaskResumeAll();
   81440:	4b11      	ldr	r3, [pc, #68]	; (81488 <xQueueGenericReceive+0x15c>)
   81442:	4798      	blx	r3
   81444:	e78d      	b.n	81362 <xQueueGenericReceive+0x36>
			}
		}
		else
		{
			prvUnlockQueue( pxQueue );
   81446:	4620      	mov	r0, r4
   81448:	4b0e      	ldr	r3, [pc, #56]	; (81484 <xQueueGenericReceive+0x158>)
   8144a:	4798      	blx	r3
			( void ) xTaskResumeAll();
   8144c:	4b0e      	ldr	r3, [pc, #56]	; (81488 <xQueueGenericReceive+0x15c>)
   8144e:	4798      	blx	r3
			traceQUEUE_RECEIVE_FAILED( pxQueue );
			return errQUEUE_EMPTY;
   81450:	2000      	movs	r0, #0
		}
	}
}
   81452:	b005      	add	sp, #20
   81454:	e8bd 8ff0 	ldmia.w	sp!, {r4, r5, r6, r7, r8, r9, sl, fp, pc}
   81458:	00080d29 	.word	0x00080d29
   8145c:	00080d39 	.word	0x00080d39
   81460:	00080d59 	.word	0x00080d59
   81464:	00080fe9 	.word	0x00080fe9
   81468:	00081db9 	.word	0x00081db9
   8146c:	00081c75 	.word	0x00081c75
   81470:	00080d19 	.word	0x00080d19
   81474:	000817a9 	.word	0x000817a9
   81478:	00081d21 	.word	0x00081d21
   8147c:	00081de5 	.word	0x00081de5
   81480:	00081bc9 	.word	0x00081bc9
   81484:	00081011 	.word	0x00081011
   81488:	00081905 	.word	0x00081905
   8148c:	00081cf9 	.word	0x00081cf9

00081490 <vQueueWaitForMessageRestricted>:
/*-----------------------------------------------------------*/

#if configUSE_TIMERS == 1

	void vQueueWaitForMessageRestricted( xQueueHandle pxQueue, portTickType xTicksToWait )
	{
   81490:	b538      	push	{r3, r4, r5, lr}
   81492:	4604      	mov	r4, r0
   81494:	460d      	mov	r5, r1
		will not actually cause the task to block, just place it on a blocked
		list.  It will not block until the scheduler is unlocked - at which
		time a yield will be performed.  If an item is added to the queue while
		the queue is locked, and the calling task blocks on the queue, then the
		calling task will be immediately unblocked when the queue is unlocked. */
		prvLockQueue( pxQueue );
   81496:	4b0d      	ldr	r3, [pc, #52]	; (814cc <vQueueWaitForMessageRestricted+0x3c>)
   81498:	4798      	blx	r3
   8149a:	6c63      	ldr	r3, [r4, #68]	; 0x44
   8149c:	f1b3 3fff 	cmp.w	r3, #4294967295
   814a0:	bf04      	itt	eq
   814a2:	2300      	moveq	r3, #0
   814a4:	6463      	streq	r3, [r4, #68]	; 0x44
   814a6:	6ca3      	ldr	r3, [r4, #72]	; 0x48
   814a8:	f1b3 3fff 	cmp.w	r3, #4294967295
   814ac:	bf04      	itt	eq
   814ae:	2300      	moveq	r3, #0
   814b0:	64a3      	streq	r3, [r4, #72]	; 0x48
   814b2:	4b07      	ldr	r3, [pc, #28]	; (814d0 <vQueueWaitForMessageRestricted+0x40>)
   814b4:	4798      	blx	r3
		if( pxQueue->uxMessagesWaiting == ( unsigned portBASE_TYPE ) 0U )
   814b6:	6ba3      	ldr	r3, [r4, #56]	; 0x38
   814b8:	b923      	cbnz	r3, 814c4 <vQueueWaitForMessageRestricted+0x34>
		{
			/* There is nothing in the queue, block for the specified period. */
			vTaskPlaceOnEventListRestricted( &( pxQueue->xTasksWaitingToReceive ), xTicksToWait );
   814ba:	f104 0024 	add.w	r0, r4, #36	; 0x24
   814be:	4629      	mov	r1, r5
   814c0:	4b04      	ldr	r3, [pc, #16]	; (814d4 <vQueueWaitForMessageRestricted+0x44>)
   814c2:	4798      	blx	r3
		}
		prvUnlockQueue( pxQueue );
   814c4:	4620      	mov	r0, r4
   814c6:	4b04      	ldr	r3, [pc, #16]	; (814d8 <vQueueWaitForMessageRestricted+0x48>)
   814c8:	4798      	blx	r3
   814ca:	bd38      	pop	{r3, r4, r5, pc}
   814cc:	00080d39 	.word	0x00080d39
   814d0:	00080d59 	.word	0x00080d59
   814d4:	00081c2d 	.word	0x00081c2d
   814d8:	00081011 	.word	0x00081011

000814dc <prvAddCurrentTaskToDelayedList>:
	#endif
}
/*-----------------------------------------------------------*/

static void prvAddCurrentTaskToDelayedList( portTickType xTimeToWake )
{
   814dc:	b510      	push	{r4, lr}
   814de:	4604      	mov	r4, r0
	/* The list item will be inserted in wake time order. */
	listSET_LIST_ITEM_VALUE( &( pxCurrentTCB->xGenericListItem ), xTimeToWake );
   814e0:	4b0f      	ldr	r3, [pc, #60]	; (81520 <prvAddCurrentTaskToDelayedList+0x44>)
   814e2:	681b      	ldr	r3, [r3, #0]
   814e4:	8098      	strh	r0, [r3, #4]

	if( xTimeToWake < xTickCount )
   814e6:	4b0f      	ldr	r3, [pc, #60]	; (81524 <prvAddCurrentTaskToDelayedList+0x48>)
   814e8:	881b      	ldrh	r3, [r3, #0]
   814ea:	b29b      	uxth	r3, r3
   814ec:	4298      	cmp	r0, r3
   814ee:	d207      	bcs.n	81500 <prvAddCurrentTaskToDelayedList+0x24>
	{
		/* Wake time has overflowed.  Place this item in the overflow list. */
		vListInsert( ( xList * ) pxOverflowDelayedTaskList, ( xListItem * ) &( pxCurrentTCB->xGenericListItem ) );
   814f0:	4b0d      	ldr	r3, [pc, #52]	; (81528 <prvAddCurrentTaskToDelayedList+0x4c>)
   814f2:	6818      	ldr	r0, [r3, #0]
   814f4:	4b0a      	ldr	r3, [pc, #40]	; (81520 <prvAddCurrentTaskToDelayedList+0x44>)
   814f6:	6819      	ldr	r1, [r3, #0]
   814f8:	3104      	adds	r1, #4
   814fa:	4b0c      	ldr	r3, [pc, #48]	; (8152c <prvAddCurrentTaskToDelayedList+0x50>)
   814fc:	4798      	blx	r3
   814fe:	bd10      	pop	{r4, pc}
	}
	else
	{
		/* The wake time has not overflowed, so we can use the current block list. */
		vListInsert( ( xList * ) pxDelayedTaskList, ( xListItem * ) &( pxCurrentTCB->xGenericListItem ) );
   81500:	4b0b      	ldr	r3, [pc, #44]	; (81530 <prvAddCurrentTaskToDelayedList+0x54>)
   81502:	6818      	ldr	r0, [r3, #0]
   81504:	4b06      	ldr	r3, [pc, #24]	; (81520 <prvAddCurrentTaskToDelayedList+0x44>)
   81506:	6819      	ldr	r1, [r3, #0]
   81508:	3104      	adds	r1, #4
   8150a:	4b08      	ldr	r3, [pc, #32]	; (8152c <prvAddCurrentTaskToDelayedList+0x50>)
   8150c:	4798      	blx	r3

		/* If the task entering the blocked state was placed at the head of the
		list of blocked tasks then xNextTaskUnblockTime needs to be updated
		too. */
		if( xTimeToWake < xNextTaskUnblockTime )
   8150e:	4b09      	ldr	r3, [pc, #36]	; (81534 <prvAddCurrentTaskToDelayedList+0x58>)
   81510:	881b      	ldrh	r3, [r3, #0]
   81512:	b29b      	uxth	r3, r3
   81514:	429c      	cmp	r4, r3
		{
			xNextTaskUnblockTime = xTimeToWake;
   81516:	bf3c      	itt	cc
   81518:	4b06      	ldrcc	r3, [pc, #24]	; (81534 <prvAddCurrentTaskToDelayedList+0x58>)
   8151a:	801c      	strhcc	r4, [r3, #0]
   8151c:	bd10      	pop	{r4, pc}
   8151e:	bf00      	nop
   81520:	20078cb4 	.word	0x20078cb4
   81524:	20078cd0 	.word	0x20078cd0
   81528:	20078cd4 	.word	0x20078cd4
   8152c:	00080c5d 	.word	0x00080c5d
   81530:	20078b9c 	.word	0x20078b9c
   81534:	20070140 	.word	0x20070140

00081538 <xTaskGenericCreate>:
/*-----------------------------------------------------------
 * TASK CREATION API documented in task.h
 *----------------------------------------------------------*/

signed portBASE_TYPE xTaskGenericCreate( pdTASK_CODE pxTaskCode, const signed char * const pcName, unsigned short usStackDepth, void *pvParameters, unsigned portBASE_TYPE uxPriority, xTaskHandle *pxCreatedTask, portSTACK_TYPE *puxStackBuffer, const xMemoryRegion * const xRegions )
{
   81538:	e92d 4ff0 	stmdb	sp!, {r4, r5, r6, r7, r8, r9, sl, fp, lr}
   8153c:	b083      	sub	sp, #12
   8153e:	9f0c      	ldr	r7, [sp, #48]	; 0x30
   81540:	f8dd 8034 	ldr.w	r8, [sp, #52]	; 0x34
   81544:	9e0e      	ldr	r6, [sp, #56]	; 0x38
signed portBASE_TYPE xReturn;
tskTCB * pxNewTCB;

	configASSERT( pxTaskCode );
   81546:	9001      	str	r0, [sp, #4]
   81548:	b918      	cbnz	r0, 81552 <xTaskGenericCreate+0x1a>
   8154a:	4b62      	ldr	r3, [pc, #392]	; (816d4 <xTaskGenericCreate+0x19c>)
   8154c:	4798      	blx	r3
   8154e:	bf00      	nop
   81550:	e7fd      	b.n	8154e <xTaskGenericCreate+0x16>
   81552:	4689      	mov	r9, r1
   81554:	4615      	mov	r5, r2
   81556:	469b      	mov	fp, r3
	configASSERT( ( ( uxPriority & ( ~portPRIVILEGE_BIT ) ) < configMAX_PRIORITIES ) );
   81558:	2f09      	cmp	r7, #9
   8155a:	d903      	bls.n	81564 <xTaskGenericCreate+0x2c>
   8155c:	4b5d      	ldr	r3, [pc, #372]	; (816d4 <xTaskGenericCreate+0x19c>)
   8155e:	4798      	blx	r3
   81560:	bf00      	nop
   81562:	e7fd      	b.n	81560 <xTaskGenericCreate+0x28>
{
tskTCB *pxNewTCB;

	/* Allocate space for the TCB.  Where the memory comes from depends on
	the implementation of the port malloc function. */
	pxNewTCB = ( tskTCB * ) pvPortMalloc( sizeof( tskTCB ) );
   81564:	2050      	movs	r0, #80	; 0x50
   81566:	4b5c      	ldr	r3, [pc, #368]	; (816d8 <xTaskGenericCreate+0x1a0>)
   81568:	4798      	blx	r3

	if( pxNewTCB != NULL )
   8156a:	4604      	mov	r4, r0
   8156c:	2800      	cmp	r0, #0
   8156e:	f000 80ab 	beq.w	816c8 <xTaskGenericCreate+0x190>
	{
		/* Allocate space for the stack used by the task being created.
		The base of the stack memory stored in the TCB so the task can
		be deleted later if required. */
		pxNewTCB->pxStack = ( portSTACK_TYPE * ) pvPortMallocAligned( ( ( ( size_t )usStackDepth ) * sizeof( portSTACK_TYPE ) ), puxStackBuffer );
   81572:	2e00      	cmp	r6, #0
   81574:	f040 80a5 	bne.w	816c2 <xTaskGenericCreate+0x18a>
   81578:	00a8      	lsls	r0, r5, #2
   8157a:	4b57      	ldr	r3, [pc, #348]	; (816d8 <xTaskGenericCreate+0x1a0>)
   8157c:	4798      	blx	r3
   8157e:	6320      	str	r0, [r4, #48]	; 0x30

		if( pxNewTCB->pxStack == NULL )
   81580:	b918      	cbnz	r0, 8158a <xTaskGenericCreate+0x52>
		{
			/* Could not allocate the stack.  Delete the allocated TCB. */
			vPortFree( pxNewTCB );
   81582:	4620      	mov	r0, r4
   81584:	4b55      	ldr	r3, [pc, #340]	; (816dc <xTaskGenericCreate+0x1a4>)
   81586:	4798      	blx	r3
   81588:	e09e      	b.n	816c8 <xTaskGenericCreate+0x190>
			pxNewTCB = NULL;
		}
		else
		{
			/* Just to help debugging. */
			memset( pxNewTCB->pxStack, ( int ) tskSTACK_FILL_BYTE, ( size_t ) usStackDepth * sizeof( portSTACK_TYPE ) );
   8158a:	21a5      	movs	r1, #165	; 0xa5
   8158c:	00aa      	lsls	r2, r5, #2
   8158e:	4b54      	ldr	r3, [pc, #336]	; (816e0 <xTaskGenericCreate+0x1a8>)
   81590:	4798      	blx	r3
		stack grows from high memory to low (as per the 80x86) or visa versa.
		portSTACK_GROWTH is used to make the result positive or negative as
		required by the port. */
		#if( portSTACK_GROWTH < 0 )
		{
			pxTopOfStack = pxNewTCB->pxStack + ( usStackDepth - ( unsigned short ) 1 );
   81592:	f105 4580 	add.w	r5, r5, #1073741824	; 0x40000000
   81596:	3d01      	subs	r5, #1
   81598:	6b23      	ldr	r3, [r4, #48]	; 0x30
   8159a:	eb03 0385 	add.w	r3, r3, r5, lsl #2
			pxTopOfStack = ( portSTACK_TYPE * ) ( ( ( portPOINTER_SIZE_TYPE ) pxTopOfStack ) & ( ( portPOINTER_SIZE_TYPE ) ~portBYTE_ALIGNMENT_MASK  ) );
   8159e:	f023 0507 	bic.w	r5, r3, #7
{
	/* Store the function name in the TCB. */
	#if configMAX_TASK_NAME_LEN > 1
	{
		/* Don't bring strncpy into the build unnecessarily. */
		strncpy( ( char * ) pxTCB->pcTaskName, ( const char * ) pcName, ( unsigned short ) configMAX_TASK_NAME_LEN );
   815a2:	f104 0034 	add.w	r0, r4, #52	; 0x34
   815a6:	4649      	mov	r1, r9
   815a8:	2210      	movs	r2, #16
   815aa:	4b4e      	ldr	r3, [pc, #312]	; (816e4 <xTaskGenericCreate+0x1ac>)
   815ac:	4798      	blx	r3
	}
	#endif
	pxTCB->pcTaskName[ ( unsigned short ) configMAX_TASK_NAME_LEN - ( unsigned short ) 1 ] = ( signed char ) '\0';
   815ae:	2300      	movs	r3, #0
   815b0:	f884 3043 	strb.w	r3, [r4, #67]	; 0x43
   815b4:	463e      	mov	r6, r7
   815b6:	2f09      	cmp	r7, #9
   815b8:	bf28      	it	cs
   815ba:	2609      	movcs	r6, #9
	if( uxPriority >= configMAX_PRIORITIES )
	{
		uxPriority = configMAX_PRIORITIES - ( unsigned portBASE_TYPE ) 1U;
	}

	pxTCB->uxPriority = uxPriority;
   815bc:	62e6      	str	r6, [r4, #44]	; 0x2c
	#if ( configUSE_MUTEXES == 1 )
	{
		pxTCB->uxBasePriority = uxPriority;
   815be:	64e6      	str	r6, [r4, #76]	; 0x4c
	}
	#endif

	vListInitialiseItem( &( pxTCB->xGenericListItem ) );
   815c0:	f104 0904 	add.w	r9, r4, #4
   815c4:	4648      	mov	r0, r9
   815c6:	f8df a16c 	ldr.w	sl, [pc, #364]	; 81734 <xTaskGenericCreate+0x1fc>
   815ca:	47d0      	blx	sl
	vListInitialiseItem( &( pxTCB->xEventListItem ) );
   815cc:	f104 0018 	add.w	r0, r4, #24
   815d0:	47d0      	blx	sl

	/* Set the pxTCB as a link back from the xListItem.  This is so we can get
	back to	the containing TCB from a generic item in a list. */
	listSET_LIST_ITEM_OWNER( &( pxTCB->xGenericListItem ), pxTCB );
   815d2:	6124      	str	r4, [r4, #16]

	/* Event lists are always in priority order. */
	listSET_LIST_ITEM_VALUE( &( pxTCB->xEventListItem ), configMAX_PRIORITIES - ( portTickType ) uxPriority );
   815d4:	f1c6 060a 	rsb	r6, r6, #10
   815d8:	8326      	strh	r6, [r4, #24]
	listSET_LIST_ITEM_OWNER( &( pxTCB->xEventListItem ), pxTCB );
   815da:	6264      	str	r4, [r4, #36]	; 0x24
		{
			pxNewTCB->pxTopOfStack = pxPortInitialiseStack( pxTopOfStack, pxTaskCode, pvParameters, xRunPrivileged );
		}
		#else
		{
			pxNewTCB->pxTopOfStack = pxPortInitialiseStack( pxTopOfStack, pxTaskCode, pvParameters );
   815dc:	4628      	mov	r0, r5
   815de:	9901      	ldr	r1, [sp, #4]
   815e0:	465a      	mov	r2, fp
   815e2:	4b41      	ldr	r3, [pc, #260]	; (816e8 <xTaskGenericCreate+0x1b0>)
   815e4:	4798      	blx	r3
   815e6:	6020      	str	r0, [r4, #0]
		}
		#endif

		/* Check the alignment of the initialised stack. */
		portALIGNMENT_ASSERT_pxCurrentTCB( ( ( ( unsigned long ) pxNewTCB->pxTopOfStack & ( unsigned long ) portBYTE_ALIGNMENT_MASK ) == 0UL ) );
   815e8:	f010 0f07 	tst.w	r0, #7
   815ec:	d003      	beq.n	815f6 <xTaskGenericCreate+0xbe>
   815ee:	4b39      	ldr	r3, [pc, #228]	; (816d4 <xTaskGenericCreate+0x19c>)
   815f0:	4798      	blx	r3
   815f2:	bf00      	nop
   815f4:	e7fd      	b.n	815f2 <xTaskGenericCreate+0xba>

		if( ( void * ) pxCreatedTask != NULL )
   815f6:	f1b8 0f00 	cmp.w	r8, #0
   815fa:	d001      	beq.n	81600 <xTaskGenericCreate+0xc8>
		{
			/* Pass the TCB out - in an anonymous way.  The calling function/
			task can use this as a handle to delete the task later if
			required.*/
			*pxCreatedTask = ( xTaskHandle ) pxNewTCB;
   815fc:	f8c8 4000 	str.w	r4, [r8]
		}

		/* We are going to manipulate the task queues to add this task to a
		ready list, so must make sure no interrupts occur. */
		taskENTER_CRITICAL();
   81600:	4b3a      	ldr	r3, [pc, #232]	; (816ec <xTaskGenericCreate+0x1b4>)
   81602:	4798      	blx	r3
		{
			uxCurrentNumberOfTasks++;
   81604:	4a3a      	ldr	r2, [pc, #232]	; (816f0 <xTaskGenericCreate+0x1b8>)
   81606:	6813      	ldr	r3, [r2, #0]
   81608:	3301      	adds	r3, #1
   8160a:	6013      	str	r3, [r2, #0]
			if( pxCurrentTCB == NULL )
   8160c:	4b39      	ldr	r3, [pc, #228]	; (816f4 <xTaskGenericCreate+0x1bc>)
   8160e:	681b      	ldr	r3, [r3, #0]
   81610:	bb0b      	cbnz	r3, 81656 <xTaskGenericCreate+0x11e>
			{
				/* There are no other tasks, or all the other tasks are in
				the suspended state - make this the current task. */
				pxCurrentTCB =  pxNewTCB;
   81612:	4b38      	ldr	r3, [pc, #224]	; (816f4 <xTaskGenericCreate+0x1bc>)
   81614:	601c      	str	r4, [r3, #0]

				if( uxCurrentNumberOfTasks == ( unsigned portBASE_TYPE ) 1 )
   81616:	6813      	ldr	r3, [r2, #0]
   81618:	2b01      	cmp	r3, #1
   8161a:	d126      	bne.n	8166a <xTaskGenericCreate+0x132>
   8161c:	4d36      	ldr	r5, [pc, #216]	; (816f8 <xTaskGenericCreate+0x1c0>)
   8161e:	f105 08c8 	add.w	r8, r5, #200	; 0xc8
{
unsigned portBASE_TYPE uxPriority;

	for( uxPriority = ( unsigned portBASE_TYPE ) 0U; uxPriority < configMAX_PRIORITIES; uxPriority++ )
	{
		vListInitialise( ( xList * ) &( pxReadyTasksLists[ uxPriority ] ) );
   81622:	4e36      	ldr	r6, [pc, #216]	; (816fc <xTaskGenericCreate+0x1c4>)
   81624:	4628      	mov	r0, r5
   81626:	47b0      	blx	r6
   81628:	3514      	adds	r5, #20

static void prvInitialiseTaskLists( void )
{
unsigned portBASE_TYPE uxPriority;

	for( uxPriority = ( unsigned portBASE_TYPE ) 0U; uxPriority < configMAX_PRIORITIES; uxPriority++ )
   8162a:	4545      	cmp	r5, r8
   8162c:	d1fa      	bne.n	81624 <xTaskGenericCreate+0xec>
	{
		vListInitialise( ( xList * ) &( pxReadyTasksLists[ uxPriority ] ) );
	}

	vListInitialise( ( xList * ) &xDelayedTaskList1 );
   8162e:	f8df 8108 	ldr.w	r8, [pc, #264]	; 81738 <xTaskGenericCreate+0x200>
   81632:	4640      	mov	r0, r8
   81634:	4d31      	ldr	r5, [pc, #196]	; (816fc <xTaskGenericCreate+0x1c4>)
   81636:	47a8      	blx	r5
	vListInitialise( ( xList * ) &xDelayedTaskList2 );
   81638:	4e31      	ldr	r6, [pc, #196]	; (81700 <xTaskGenericCreate+0x1c8>)
   8163a:	4630      	mov	r0, r6
   8163c:	47a8      	blx	r5
	vListInitialise( ( xList * ) &xPendingReadyList );
   8163e:	4831      	ldr	r0, [pc, #196]	; (81704 <xTaskGenericCreate+0x1cc>)
   81640:	47a8      	blx	r5

	#if ( INCLUDE_vTaskDelete == 1 )
	{
		vListInitialise( ( xList * ) &xTasksWaitingTermination );
   81642:	4831      	ldr	r0, [pc, #196]	; (81708 <xTaskGenericCreate+0x1d0>)
   81644:	47a8      	blx	r5
	}
	#endif

	#if ( INCLUDE_vTaskSuspend == 1 )
	{
		vListInitialise( ( xList * ) &xSuspendedTaskList );
   81646:	4831      	ldr	r0, [pc, #196]	; (8170c <xTaskGenericCreate+0x1d4>)
   81648:	47a8      	blx	r5
	}
	#endif

	/* Start with pxDelayedTaskList using list1 and the pxOverflowDelayedTaskList
	using list2. */
	pxDelayedTaskList = &xDelayedTaskList1;
   8164a:	4b31      	ldr	r3, [pc, #196]	; (81710 <xTaskGenericCreate+0x1d8>)
   8164c:	f8c3 8000 	str.w	r8, [r3]
	pxOverflowDelayedTaskList = &xDelayedTaskList2;
   81650:	4b30      	ldr	r3, [pc, #192]	; (81714 <xTaskGenericCreate+0x1dc>)
   81652:	601e      	str	r6, [r3, #0]
   81654:	e009      	b.n	8166a <xTaskGenericCreate+0x132>
			else
			{
				/* If the scheduler is not already running, make this task the
				current task if it is the highest priority task to be created
				so far. */
				if( xSchedulerRunning == pdFALSE )
   81656:	4b30      	ldr	r3, [pc, #192]	; (81718 <xTaskGenericCreate+0x1e0>)
   81658:	681b      	ldr	r3, [r3, #0]
   8165a:	b933      	cbnz	r3, 8166a <xTaskGenericCreate+0x132>
				{
					if( pxCurrentTCB->uxPriority <= uxPriority )
   8165c:	4b25      	ldr	r3, [pc, #148]	; (816f4 <xTaskGenericCreate+0x1bc>)
   8165e:	681b      	ldr	r3, [r3, #0]
   81660:	6adb      	ldr	r3, [r3, #44]	; 0x2c
   81662:	429f      	cmp	r7, r3
					{
						pxCurrentTCB = pxNewTCB;
   81664:	bf24      	itt	cs
   81666:	4b23      	ldrcs	r3, [pc, #140]	; (816f4 <xTaskGenericCreate+0x1bc>)
   81668:	601c      	strcs	r4, [r3, #0]
				}
			}

			/* Remember the top priority to make context switching faster.  Use
			the priority in pxNewTCB as this has been capped to a valid value. */
			if( pxNewTCB->uxPriority > uxTopUsedPriority )
   8166a:	6ae0      	ldr	r0, [r4, #44]	; 0x2c
   8166c:	4b2b      	ldr	r3, [pc, #172]	; (8171c <xTaskGenericCreate+0x1e4>)
   8166e:	681b      	ldr	r3, [r3, #0]
   81670:	4298      	cmp	r0, r3
			{
				uxTopUsedPriority = pxNewTCB->uxPriority;
   81672:	bf84      	itt	hi
   81674:	4b29      	ldrhi	r3, [pc, #164]	; (8171c <xTaskGenericCreate+0x1e4>)
   81676:	6018      	strhi	r0, [r3, #0]
			}

			#if ( configUSE_TRACE_FACILITY == 1 )
			{
				/* Add a counter into the TCB for tracing only. */
				pxNewTCB->uxTCBNumber = uxTaskNumber;
   81678:	4a29      	ldr	r2, [pc, #164]	; (81720 <xTaskGenericCreate+0x1e8>)
   8167a:	6813      	ldr	r3, [r2, #0]
   8167c:	6463      	str	r3, [r4, #68]	; 0x44
			}
			#endif
			uxTaskNumber++;
   8167e:	3301      	adds	r3, #1
   81680:	6013      	str	r3, [r2, #0]

			prvAddTaskToReadyQueue( pxNewTCB );
   81682:	4b28      	ldr	r3, [pc, #160]	; (81724 <xTaskGenericCreate+0x1ec>)
   81684:	681b      	ldr	r3, [r3, #0]
   81686:	4298      	cmp	r0, r3
   81688:	bf84      	itt	hi
   8168a:	4b26      	ldrhi	r3, [pc, #152]	; (81724 <xTaskGenericCreate+0x1ec>)
   8168c:	6018      	strhi	r0, [r3, #0]
   8168e:	eb00 0080 	add.w	r0, r0, r0, lsl #2
   81692:	4b19      	ldr	r3, [pc, #100]	; (816f8 <xTaskGenericCreate+0x1c0>)
   81694:	eb03 0080 	add.w	r0, r3, r0, lsl #2
   81698:	4649      	mov	r1, r9
   8169a:	4b23      	ldr	r3, [pc, #140]	; (81728 <xTaskGenericCreate+0x1f0>)
   8169c:	4798      	blx	r3

			xReturn = pdPASS;
			portSETUP_TCB( pxNewTCB );
			traceTASK_CREATE( pxNewTCB );
		}
		taskEXIT_CRITICAL();
   8169e:	4b23      	ldr	r3, [pc, #140]	; (8172c <xTaskGenericCreate+0x1f4>)
   816a0:	4798      	blx	r3
		traceTASK_CREATE_FAILED();
	}

	if( xReturn == pdPASS )
	{
		if( xSchedulerRunning != pdFALSE )
   816a2:	4b1d      	ldr	r3, [pc, #116]	; (81718 <xTaskGenericCreate+0x1e0>)
   816a4:	681b      	ldr	r3, [r3, #0]
   816a6:	b143      	cbz	r3, 816ba <xTaskGenericCreate+0x182>
		{
			/* If the created task is of a higher priority than the current task
			then it should run now. */
			if( pxCurrentTCB->uxPriority < uxPriority )
   816a8:	4b12      	ldr	r3, [pc, #72]	; (816f4 <xTaskGenericCreate+0x1bc>)
   816aa:	681b      	ldr	r3, [r3, #0]
   816ac:	6adb      	ldr	r3, [r3, #44]	; 0x2c
   816ae:	429f      	cmp	r7, r3
   816b0:	d905      	bls.n	816be <xTaskGenericCreate+0x186>
			{
				portYIELD_WITHIN_API();
   816b2:	4b1f      	ldr	r3, [pc, #124]	; (81730 <xTaskGenericCreate+0x1f8>)
   816b4:	4798      	blx	r3
   816b6:	2001      	movs	r0, #1
   816b8:	e008      	b.n	816cc <xTaskGenericCreate+0x194>
   816ba:	2001      	movs	r0, #1
   816bc:	e006      	b.n	816cc <xTaskGenericCreate+0x194>
   816be:	2001      	movs	r0, #1
   816c0:	e004      	b.n	816cc <xTaskGenericCreate+0x194>
	if( pxNewTCB != NULL )
	{
		/* Allocate space for the stack used by the task being created.
		The base of the stack memory stored in the TCB so the task can
		be deleted later if required. */
		pxNewTCB->pxStack = ( portSTACK_TYPE * ) pvPortMallocAligned( ( ( ( size_t )usStackDepth ) * sizeof( portSTACK_TYPE ) ), puxStackBuffer );
   816c2:	6306      	str	r6, [r0, #48]	; 0x30
   816c4:	4630      	mov	r0, r6
   816c6:	e760      	b.n	8158a <xTaskGenericCreate+0x52>
		}
		taskEXIT_CRITICAL();
	}
	else
	{
		xReturn = errCOULD_NOT_ALLOCATE_REQUIRED_MEMORY;
   816c8:	f04f 30ff 	mov.w	r0, #4294967295
			}
		}
	}

	return xReturn;
}
   816cc:	b003      	add	sp, #12
   816ce:	e8bd 8ff0 	ldmia.w	sp!, {r4, r5, r6, r7, r8, r9, sl, fp, pc}
   816d2:	bf00      	nop
   816d4:	00080d29 	.word	0x00080d29
   816d8:	00080e85 	.word	0x00080e85
   816dc:	00080f4d 	.word	0x00080f4d
   816e0:	000835b5 	.word	0x000835b5
   816e4:	000837e9 	.word	0x000837e9
   816e8:	00080cdd 	.word	0x00080cdd
   816ec:	00080d39 	.word	0x00080d39
   816f0:	20078cdc 	.word	0x20078cdc
   816f4:	20078cb4 	.word	0x20078cb4
   816f8:	20078bd4 	.word	0x20078bd4
   816fc:	00080c21 	.word	0x00080c21
   81700:	20078bbc 	.word	0x20078bbc
   81704:	20078cb8 	.word	0x20078cb8
   81708:	20078c9c 	.word	0x20078c9c
   8170c:	20078b88 	.word	0x20078b88
   81710:	20078b9c 	.word	0x20078b9c
   81714:	20078cd4 	.word	0x20078cd4
   81718:	20078ba0 	.word	0x20078ba0
   8171c:	20078ce4 	.word	0x20078ce4
   81720:	20078cd8 	.word	0x20078cd8
   81724:	20078bd0 	.word	0x20078bd0
   81728:	00080c41 	.word	0x00080c41
   8172c:	00080d59 	.word	0x00080d59
   81730:	00080d19 	.word	0x00080d19
   81734:	00080c39 	.word	0x00080c39
   81738:	20078ba8 	.word	0x20078ba8

0008173c <vTaskStartScheduler>:
 * PUBLIC SCHEDULER CONTROL documented in task.h
 *----------------------------------------------------------*/


void vTaskStartScheduler( void )
{
   8173c:	b510      	push	{r4, lr}
   8173e:	b084      	sub	sp, #16
		xReturn = xTaskCreate( prvIdleTask, ( signed char * ) "IDLE", tskIDLE_STACK_SIZE, ( void * ) NULL, ( tskIDLE_PRIORITY | portPRIVILEGE_BIT ), &xIdleTaskHandle );
	}
	#else
	{
		/* Create the idle task without storing its handle. */
		xReturn = xTaskCreate( prvIdleTask, ( signed char * ) "IDLE", tskIDLE_STACK_SIZE, ( void * ) NULL, ( tskIDLE_PRIORITY | portPRIVILEGE_BIT ), NULL );
   81740:	2300      	movs	r3, #0
   81742:	9300      	str	r3, [sp, #0]
   81744:	9301      	str	r3, [sp, #4]
   81746:	9302      	str	r3, [sp, #8]
   81748:	9303      	str	r3, [sp, #12]
   8174a:	480f      	ldr	r0, [pc, #60]	; (81788 <vTaskStartScheduler+0x4c>)
   8174c:	490f      	ldr	r1, [pc, #60]	; (8178c <vTaskStartScheduler+0x50>)
   8174e:	f44f 7280 	mov.w	r2, #256	; 0x100
   81752:	4c0f      	ldr	r4, [pc, #60]	; (81790 <vTaskStartScheduler+0x54>)
   81754:	47a0      	blx	r4
	}
	#endif

	#if ( configUSE_TIMERS == 1 )
	{
		if( xReturn == pdPASS )
   81756:	2801      	cmp	r0, #1
   81758:	d10e      	bne.n	81778 <vTaskStartScheduler+0x3c>
		{
			xReturn = xTimerCreateTimerTask();
   8175a:	4b0e      	ldr	r3, [pc, #56]	; (81794 <vTaskStartScheduler+0x58>)
   8175c:	4798      	blx	r3
		}
	}
	#endif

	if( xReturn == pdPASS )
   8175e:	2801      	cmp	r0, #1
   81760:	d10a      	bne.n	81778 <vTaskStartScheduler+0x3c>
		so interrupts will automatically get re-enabled when the first task
		starts to run.

		STEPPING THROUGH HERE USING A DEBUGGER CAN CAUSE BIG PROBLEMS IF THE
		DEBUGGER ALLOWS INTERRUPTS TO BE PROCESSED. */
		portDISABLE_INTERRUPTS();
   81762:	4b0d      	ldr	r3, [pc, #52]	; (81798 <vTaskStartScheduler+0x5c>)
   81764:	4798      	blx	r3

		xSchedulerRunning = pdTRUE;
   81766:	2201      	movs	r2, #1
   81768:	4b0c      	ldr	r3, [pc, #48]	; (8179c <vTaskStartScheduler+0x60>)
   8176a:	601a      	str	r2, [r3, #0]
		xTickCount = ( portTickType ) 0U;
   8176c:	2200      	movs	r2, #0
   8176e:	4b0c      	ldr	r3, [pc, #48]	; (817a0 <vTaskStartScheduler+0x64>)
   81770:	801a      	strh	r2, [r3, #0]
		the run time counter time base. */
		portCONFIGURE_TIMER_FOR_RUN_TIME_STATS();

		/* Setting up the timer tick is hardware specific and thus in the
		portable interface. */
		if( xPortStartScheduler() != pdFALSE )
   81772:	4b0c      	ldr	r3, [pc, #48]	; (817a4 <vTaskStartScheduler+0x68>)
   81774:	4798      	blx	r3
   81776:	e004      	b.n	81782 <vTaskStartScheduler+0x46>
			/* Should only reach here if a task calls xTaskEndScheduler(). */
		}
	}

	/* This line will only be reached if the kernel could not be started. */
	configASSERT( xReturn );
   81778:	b918      	cbnz	r0, 81782 <vTaskStartScheduler+0x46>
   8177a:	4b07      	ldr	r3, [pc, #28]	; (81798 <vTaskStartScheduler+0x5c>)
   8177c:	4798      	blx	r3
   8177e:	bf00      	nop
   81780:	e7fd      	b.n	8177e <vTaskStartScheduler+0x42>
}
   81782:	b004      	add	sp, #16
   81784:	bd10      	pop	{r4, pc}
   81786:	bf00      	nop
   81788:	00081aa1 	.word	0x00081aa1
   8178c:	000867e8 	.word	0x000867e8
   81790:	00081539 	.word	0x00081539
   81794:	00081f61 	.word	0x00081f61
   81798:	00080d29 	.word	0x00080d29
   8179c:	20078ba0 	.word	0x20078ba0
   817a0:	20078cd0 	.word	0x20078cd0
   817a4:	00080df5 	.word	0x00080df5

000817a8 <vTaskSuspendAll>:

void vTaskSuspendAll( void )
{
	/* A critical section is not required as the variable is of type
	portBASE_TYPE. */
	++uxSchedulerSuspended;
   817a8:	4a02      	ldr	r2, [pc, #8]	; (817b4 <vTaskSuspendAll+0xc>)
   817aa:	6813      	ldr	r3, [r2, #0]
   817ac:	3301      	adds	r3, #1
   817ae:	6013      	str	r3, [r2, #0]
   817b0:	4770      	bx	lr
   817b2:	bf00      	nop
   817b4:	20078ccc 	.word	0x20078ccc

000817b8 <xTaskGetTickCount>:
 *----------------------------------------------------------*/



portTickType xTaskGetTickCount( void )
{
   817b8:	b510      	push	{r4, lr}
portTickType xTicks;

	/* Critical section required if running on a 16 bit processor. */
	taskENTER_CRITICAL();
   817ba:	4b04      	ldr	r3, [pc, #16]	; (817cc <xTaskGetTickCount+0x14>)
   817bc:	4798      	blx	r3
	{
		xTicks = xTickCount;
   817be:	4b04      	ldr	r3, [pc, #16]	; (817d0 <xTaskGetTickCount+0x18>)
   817c0:	881c      	ldrh	r4, [r3, #0]
   817c2:	b2a4      	uxth	r4, r4
	}
	taskEXIT_CRITICAL();
   817c4:	4b03      	ldr	r3, [pc, #12]	; (817d4 <xTaskGetTickCount+0x1c>)
   817c6:	4798      	blx	r3

	return xTicks;
}
   817c8:	4620      	mov	r0, r4
   817ca:	bd10      	pop	{r4, pc}
   817cc:	00080d39 	.word	0x00080d39
   817d0:	20078cd0 	.word	0x20078cd0
   817d4:	00080d59 	.word	0x00080d59

000817d8 <vTaskIncrementTick>:
 * SCHEDULER INTERNALS AVAILABLE FOR PORTING PURPOSES
 * documented in task.h
 *----------------------------------------------------------*/

void vTaskIncrementTick( void )
{
   817d8:	e92d 41f0 	stmdb	sp!, {r4, r5, r6, r7, r8, lr}

	/* Called by the portable layer each time a tick interrupt occurs.
	Increments the tick then checks to see if the new tick value will cause any
	tasks to be unblocked. */
	traceTASK_INCREMENT_TICK( xTickCount );
	if( uxSchedulerSuspended == ( unsigned portBASE_TYPE ) pdFALSE )
   817dc:	4b3d      	ldr	r3, [pc, #244]	; (818d4 <vTaskIncrementTick+0xfc>)
   817de:	681b      	ldr	r3, [r3, #0]
   817e0:	2b00      	cmp	r3, #0
   817e2:	d171      	bne.n	818c8 <vTaskIncrementTick+0xf0>
	{
		++xTickCount;
   817e4:	4a3c      	ldr	r2, [pc, #240]	; (818d8 <vTaskIncrementTick+0x100>)
   817e6:	8813      	ldrh	r3, [r2, #0]
   817e8:	3301      	adds	r3, #1
   817ea:	b29b      	uxth	r3, r3
   817ec:	8013      	strh	r3, [r2, #0]
		if( xTickCount == ( portTickType ) 0U )
   817ee:	8813      	ldrh	r3, [r2, #0]
   817f0:	b29b      	uxth	r3, r3
   817f2:	bb03      	cbnz	r3, 81836 <vTaskIncrementTick+0x5e>
			xList *pxTemp;

			/* Tick count has overflowed so we need to swap the delay lists.
			If there are any items in pxDelayedTaskList here then there is
			an error! */
			configASSERT( ( listLIST_IS_EMPTY( pxDelayedTaskList ) ) );
   817f4:	4b39      	ldr	r3, [pc, #228]	; (818dc <vTaskIncrementTick+0x104>)
   817f6:	681b      	ldr	r3, [r3, #0]
   817f8:	681b      	ldr	r3, [r3, #0]
   817fa:	b11b      	cbz	r3, 81804 <vTaskIncrementTick+0x2c>
   817fc:	4b38      	ldr	r3, [pc, #224]	; (818e0 <vTaskIncrementTick+0x108>)
   817fe:	4798      	blx	r3
   81800:	bf00      	nop
   81802:	e7fd      	b.n	81800 <vTaskIncrementTick+0x28>

			pxTemp = pxDelayedTaskList;
   81804:	4b35      	ldr	r3, [pc, #212]	; (818dc <vTaskIncrementTick+0x104>)
   81806:	6819      	ldr	r1, [r3, #0]
			pxDelayedTaskList = pxOverflowDelayedTaskList;
   81808:	4a36      	ldr	r2, [pc, #216]	; (818e4 <vTaskIncrementTick+0x10c>)
   8180a:	6810      	ldr	r0, [r2, #0]
   8180c:	6018      	str	r0, [r3, #0]
			pxOverflowDelayedTaskList = pxTemp;
   8180e:	6011      	str	r1, [r2, #0]
			xNumOfOverflows++;
   81810:	4935      	ldr	r1, [pc, #212]	; (818e8 <vTaskIncrementTick+0x110>)
   81812:	680a      	ldr	r2, [r1, #0]
   81814:	3201      	adds	r2, #1
   81816:	600a      	str	r2, [r1, #0]

			if( listLIST_IS_EMPTY( pxDelayedTaskList ) != pdFALSE )
   81818:	681b      	ldr	r3, [r3, #0]
   8181a:	681b      	ldr	r3, [r3, #0]
   8181c:	b923      	cbnz	r3, 81828 <vTaskIncrementTick+0x50>
				/* The new current delayed list is empty.  Set
				xNextTaskUnblockTime to the maximum possible value so it is
				extremely unlikely that the
				if( xTickCount >= xNextTaskUnblockTime ) test will pass until
				there is an item in the delayed list. */
				xNextTaskUnblockTime = portMAX_DELAY;
   8181e:	f64f 72ff 	movw	r2, #65535	; 0xffff
   81822:	4b32      	ldr	r3, [pc, #200]	; (818ec <vTaskIncrementTick+0x114>)
   81824:	801a      	strh	r2, [r3, #0]
   81826:	e006      	b.n	81836 <vTaskIncrementTick+0x5e>
			{
				/* The new current delayed list is not empty, get the value of
				the item at the head of the delayed list.  This is the time at
				which the task at the head of the delayed list should be removed
				from the Blocked state. */
				pxTCB = ( tskTCB * ) listGET_OWNER_OF_HEAD_ENTRY( pxDelayedTaskList );
   81828:	4b2c      	ldr	r3, [pc, #176]	; (818dc <vTaskIncrementTick+0x104>)
   8182a:	681b      	ldr	r3, [r3, #0]
   8182c:	68db      	ldr	r3, [r3, #12]
   8182e:	68db      	ldr	r3, [r3, #12]
				xNextTaskUnblockTime = listGET_LIST_ITEM_VALUE( &( pxTCB->xGenericListItem ) );
   81830:	889a      	ldrh	r2, [r3, #4]
   81832:	4b2e      	ldr	r3, [pc, #184]	; (818ec <vTaskIncrementTick+0x114>)
   81834:	801a      	strh	r2, [r3, #0]
			}
		}

		/* See if this tick has made a timeout expire. */
		prvCheckDelayedTasks();
   81836:	4b28      	ldr	r3, [pc, #160]	; (818d8 <vTaskIncrementTick+0x100>)
   81838:	881a      	ldrh	r2, [r3, #0]
   8183a:	b292      	uxth	r2, r2
   8183c:	4b2b      	ldr	r3, [pc, #172]	; (818ec <vTaskIncrementTick+0x114>)
   8183e:	881b      	ldrh	r3, [r3, #0]
   81840:	b29b      	uxth	r3, r3
   81842:	429a      	cmp	r2, r3
   81844:	d344      	bcc.n	818d0 <vTaskIncrementTick+0xf8>
   81846:	4b25      	ldr	r3, [pc, #148]	; (818dc <vTaskIncrementTick+0x104>)
   81848:	681b      	ldr	r3, [r3, #0]
   8184a:	681b      	ldr	r3, [r3, #0]
   8184c:	b16b      	cbz	r3, 8186a <vTaskIncrementTick+0x92>
   8184e:	4b23      	ldr	r3, [pc, #140]	; (818dc <vTaskIncrementTick+0x104>)
   81850:	681b      	ldr	r3, [r3, #0]
   81852:	68db      	ldr	r3, [r3, #12]
   81854:	68dc      	ldr	r4, [r3, #12]
   81856:	88a2      	ldrh	r2, [r4, #4]
   81858:	4b1f      	ldr	r3, [pc, #124]	; (818d8 <vTaskIncrementTick+0x100>)
   8185a:	881b      	ldrh	r3, [r3, #0]
   8185c:	b29b      	uxth	r3, r3
   8185e:	429a      	cmp	r2, r3
   81860:	d813      	bhi.n	8188a <vTaskIncrementTick+0xb2>
   81862:	4d23      	ldr	r5, [pc, #140]	; (818f0 <vTaskIncrementTick+0x118>)
   81864:	4e23      	ldr	r6, [pc, #140]	; (818f4 <vTaskIncrementTick+0x11c>)
   81866:	4f24      	ldr	r7, [pc, #144]	; (818f8 <vTaskIncrementTick+0x120>)
   81868:	e013      	b.n	81892 <vTaskIncrementTick+0xba>
   8186a:	f64f 72ff 	movw	r2, #65535	; 0xffff
   8186e:	4b1f      	ldr	r3, [pc, #124]	; (818ec <vTaskIncrementTick+0x114>)
   81870:	801a      	strh	r2, [r3, #0]
   81872:	e8bd 81f0 	ldmia.w	sp!, {r4, r5, r6, r7, r8, pc}
   81876:	4b19      	ldr	r3, [pc, #100]	; (818dc <vTaskIncrementTick+0x104>)
   81878:	681b      	ldr	r3, [r3, #0]
   8187a:	68db      	ldr	r3, [r3, #12]
   8187c:	68dc      	ldr	r4, [r3, #12]
   8187e:	88a2      	ldrh	r2, [r4, #4]
   81880:	4b15      	ldr	r3, [pc, #84]	; (818d8 <vTaskIncrementTick+0x100>)
   81882:	881b      	ldrh	r3, [r3, #0]
   81884:	b29b      	uxth	r3, r3
   81886:	429a      	cmp	r2, r3
   81888:	d903      	bls.n	81892 <vTaskIncrementTick+0xba>
   8188a:	4b18      	ldr	r3, [pc, #96]	; (818ec <vTaskIncrementTick+0x114>)
   8188c:	801a      	strh	r2, [r3, #0]
   8188e:	e8bd 81f0 	ldmia.w	sp!, {r4, r5, r6, r7, r8, pc}
   81892:	f104 0804 	add.w	r8, r4, #4
   81896:	4640      	mov	r0, r8
   81898:	47a8      	blx	r5
   8189a:	6aa3      	ldr	r3, [r4, #40]	; 0x28
   8189c:	b113      	cbz	r3, 818a4 <vTaskIncrementTick+0xcc>
   8189e:	f104 0018 	add.w	r0, r4, #24
   818a2:	47a8      	blx	r5
   818a4:	6ae0      	ldr	r0, [r4, #44]	; 0x2c
   818a6:	6833      	ldr	r3, [r6, #0]
   818a8:	4298      	cmp	r0, r3
   818aa:	bf88      	it	hi
   818ac:	6030      	strhi	r0, [r6, #0]
   818ae:	eb00 0080 	add.w	r0, r0, r0, lsl #2
   818b2:	eb07 0080 	add.w	r0, r7, r0, lsl #2
   818b6:	4641      	mov	r1, r8
   818b8:	4b10      	ldr	r3, [pc, #64]	; (818fc <vTaskIncrementTick+0x124>)
   818ba:	4798      	blx	r3
   818bc:	4b07      	ldr	r3, [pc, #28]	; (818dc <vTaskIncrementTick+0x104>)
   818be:	681b      	ldr	r3, [r3, #0]
   818c0:	681b      	ldr	r3, [r3, #0]
   818c2:	2b00      	cmp	r3, #0
   818c4:	d1d7      	bne.n	81876 <vTaskIncrementTick+0x9e>
   818c6:	e7d0      	b.n	8186a <vTaskIncrementTick+0x92>
	}
	else
	{
		++uxMissedTicks;
   818c8:	4a0d      	ldr	r2, [pc, #52]	; (81900 <vTaskIncrementTick+0x128>)
   818ca:	6813      	ldr	r3, [r2, #0]
   818cc:	3301      	adds	r3, #1
   818ce:	6013      	str	r3, [r2, #0]
   818d0:	e8bd 81f0 	ldmia.w	sp!, {r4, r5, r6, r7, r8, pc}
   818d4:	20078ccc 	.word	0x20078ccc
   818d8:	20078cd0 	.word	0x20078cd0
   818dc:	20078b9c 	.word	0x20078b9c
   818e0:	00080d29 	.word	0x00080d29
   818e4:	20078cd4 	.word	0x20078cd4
   818e8:	20078cb0 	.word	0x20078cb0
   818ec:	20070140 	.word	0x20070140
   818f0:	00080ca1 	.word	0x00080ca1
   818f4:	20078bd0 	.word	0x20078bd0
   818f8:	20078bd4 	.word	0x20078bd4
   818fc:	00080c41 	.word	0x00080c41
   81900:	20078b84 	.word	0x20078b84

00081904 <xTaskResumeAll>:

#endif /* configUSE_TICKLESS_IDLE != 0  */
/*----------------------------------------------------------*/

signed portBASE_TYPE xTaskResumeAll( void )
{
   81904:	e92d 43f8 	stmdb	sp!, {r3, r4, r5, r6, r7, r8, r9, lr}
register tskTCB *pxTCB;
signed portBASE_TYPE xAlreadyYielded = pdFALSE;

	/* If uxSchedulerSuspended is zero then this function does not match a
	previous call to vTaskSuspendAll(). */
	configASSERT( uxSchedulerSuspended );
   81908:	4b30      	ldr	r3, [pc, #192]	; (819cc <xTaskResumeAll+0xc8>)
   8190a:	681b      	ldr	r3, [r3, #0]
   8190c:	b91b      	cbnz	r3, 81916 <xTaskResumeAll+0x12>
   8190e:	4b30      	ldr	r3, [pc, #192]	; (819d0 <xTaskResumeAll+0xcc>)
   81910:	4798      	blx	r3
   81912:	bf00      	nop
   81914:	e7fd      	b.n	81912 <xTaskResumeAll+0xe>
	/* It is possible that an ISR caused a task to be removed from an event
	list while the scheduler was suspended.  If this was the case then the
	removed task will have been added to the xPendingReadyList.  Once the
	scheduler has been resumed it is safe to move all the pending ready
	tasks from this list into their appropriate ready list. */
	taskENTER_CRITICAL();
   81916:	4b2f      	ldr	r3, [pc, #188]	; (819d4 <xTaskResumeAll+0xd0>)
   81918:	4798      	blx	r3
	{
		--uxSchedulerSuspended;
   8191a:	4b2c      	ldr	r3, [pc, #176]	; (819cc <xTaskResumeAll+0xc8>)
   8191c:	681a      	ldr	r2, [r3, #0]
   8191e:	3a01      	subs	r2, #1
   81920:	601a      	str	r2, [r3, #0]

		if( uxSchedulerSuspended == ( unsigned portBASE_TYPE ) pdFALSE )
   81922:	681b      	ldr	r3, [r3, #0]
   81924:	2b00      	cmp	r3, #0
   81926:	d149      	bne.n	819bc <xTaskResumeAll+0xb8>
		{
			if( uxCurrentNumberOfTasks > ( unsigned portBASE_TYPE ) 0U )
   81928:	4b2b      	ldr	r3, [pc, #172]	; (819d8 <xTaskResumeAll+0xd4>)
   8192a:	681b      	ldr	r3, [r3, #0]
   8192c:	bb03      	cbnz	r3, 81970 <xTaskResumeAll+0x6c>
/*----------------------------------------------------------*/

signed portBASE_TYPE xTaskResumeAll( void )
{
register tskTCB *pxTCB;
signed portBASE_TYPE xAlreadyYielded = pdFALSE;
   8192e:	2400      	movs	r4, #0
   81930:	e047      	b.n	819c2 <xTaskResumeAll+0xbe>

				/* Move any readied tasks from the pending list into the
				appropriate ready list. */
				while( listLIST_IS_EMPTY( ( xList * ) &xPendingReadyList ) == pdFALSE )
				{
					pxTCB = ( tskTCB * ) listGET_OWNER_OF_HEAD_ENTRY(  ( ( xList * ) &xPendingReadyList ) );
   81932:	f8d8 300c 	ldr.w	r3, [r8, #12]
   81936:	68dc      	ldr	r4, [r3, #12]
					uxListRemove( &( pxTCB->xEventListItem ) );
   81938:	f104 0018 	add.w	r0, r4, #24
   8193c:	47b8      	blx	r7
					uxListRemove( &( pxTCB->xGenericListItem ) );
   8193e:	f104 0904 	add.w	r9, r4, #4
   81942:	4648      	mov	r0, r9
   81944:	47b8      	blx	r7
					prvAddTaskToReadyQueue( pxTCB );
   81946:	6ae0      	ldr	r0, [r4, #44]	; 0x2c
   81948:	6833      	ldr	r3, [r6, #0]
   8194a:	4298      	cmp	r0, r3
   8194c:	bf88      	it	hi
   8194e:	6030      	strhi	r0, [r6, #0]
   81950:	eb00 0080 	add.w	r0, r0, r0, lsl #2
   81954:	4b21      	ldr	r3, [pc, #132]	; (819dc <xTaskResumeAll+0xd8>)
   81956:	eb03 0080 	add.w	r0, r3, r0, lsl #2
   8195a:	4649      	mov	r1, r9
   8195c:	4b20      	ldr	r3, [pc, #128]	; (819e0 <xTaskResumeAll+0xdc>)
   8195e:	4798      	blx	r3

					/* If we have moved a task that has a priority higher than
					the current task then we should yield. */
					if( pxTCB->uxPriority >= pxCurrentTCB->uxPriority )
   81960:	4b20      	ldr	r3, [pc, #128]	; (819e4 <xTaskResumeAll+0xe0>)
   81962:	681b      	ldr	r3, [r3, #0]
   81964:	6ae2      	ldr	r2, [r4, #44]	; 0x2c
   81966:	6adb      	ldr	r3, [r3, #44]	; 0x2c
					{
						xYieldRequired = pdTRUE;
   81968:	429a      	cmp	r2, r3
   8196a:	bf28      	it	cs
   8196c:	2501      	movcs	r5, #1
   8196e:	e004      	b.n	8197a <xTaskResumeAll+0x76>
   81970:	2500      	movs	r5, #0
			{
				portBASE_TYPE xYieldRequired = pdFALSE;

				/* Move any readied tasks from the pending list into the
				appropriate ready list. */
				while( listLIST_IS_EMPTY( ( xList * ) &xPendingReadyList ) == pdFALSE )
   81972:	f8df 8090 	ldr.w	r8, [pc, #144]	; 81a04 <xTaskResumeAll+0x100>
				{
					pxTCB = ( tskTCB * ) listGET_OWNER_OF_HEAD_ENTRY(  ( ( xList * ) &xPendingReadyList ) );
					uxListRemove( &( pxTCB->xEventListItem ) );
   81976:	4f1c      	ldr	r7, [pc, #112]	; (819e8 <xTaskResumeAll+0xe4>)
					uxListRemove( &( pxTCB->xGenericListItem ) );
					prvAddTaskToReadyQueue( pxTCB );
   81978:	4e1c      	ldr	r6, [pc, #112]	; (819ec <xTaskResumeAll+0xe8>)
			{
				portBASE_TYPE xYieldRequired = pdFALSE;

				/* Move any readied tasks from the pending list into the
				appropriate ready list. */
				while( listLIST_IS_EMPTY( ( xList * ) &xPendingReadyList ) == pdFALSE )
   8197a:	f8d8 3000 	ldr.w	r3, [r8]
   8197e:	2b00      	cmp	r3, #0
   81980:	d1d7      	bne.n	81932 <xTaskResumeAll+0x2e>
				}

				/* If any ticks occurred while the scheduler was suspended then
				they should be processed now.  This ensures the tick count does not
				slip, and that any delayed tasks are resumed at the correct time. */
				if( uxMissedTicks > ( unsigned portBASE_TYPE ) 0U )
   81982:	4b1b      	ldr	r3, [pc, #108]	; (819f0 <xTaskResumeAll+0xec>)
   81984:	681b      	ldr	r3, [r3, #0]
   81986:	b163      	cbz	r3, 819a2 <xTaskResumeAll+0x9e>
				{
					while( uxMissedTicks > ( unsigned portBASE_TYPE ) 0U )
   81988:	4b19      	ldr	r3, [pc, #100]	; (819f0 <xTaskResumeAll+0xec>)
   8198a:	681b      	ldr	r3, [r3, #0]
   8198c:	b17b      	cbz	r3, 819ae <xTaskResumeAll+0xaa>
					{
						vTaskIncrementTick();
   8198e:	4d19      	ldr	r5, [pc, #100]	; (819f4 <xTaskResumeAll+0xf0>)
						--uxMissedTicks;
   81990:	4c17      	ldr	r4, [pc, #92]	; (819f0 <xTaskResumeAll+0xec>)
				slip, and that any delayed tasks are resumed at the correct time. */
				if( uxMissedTicks > ( unsigned portBASE_TYPE ) 0U )
				{
					while( uxMissedTicks > ( unsigned portBASE_TYPE ) 0U )
					{
						vTaskIncrementTick();
   81992:	47a8      	blx	r5
						--uxMissedTicks;
   81994:	6823      	ldr	r3, [r4, #0]
   81996:	3b01      	subs	r3, #1
   81998:	6023      	str	r3, [r4, #0]
				/* If any ticks occurred while the scheduler was suspended then
				they should be processed now.  This ensures the tick count does not
				slip, and that any delayed tasks are resumed at the correct time. */
				if( uxMissedTicks > ( unsigned portBASE_TYPE ) 0U )
				{
					while( uxMissedTicks > ( unsigned portBASE_TYPE ) 0U )
   8199a:	6823      	ldr	r3, [r4, #0]
   8199c:	2b00      	cmp	r3, #0
   8199e:	d1f8      	bne.n	81992 <xTaskResumeAll+0x8e>
   819a0:	e005      	b.n	819ae <xTaskResumeAll+0xaa>
						xYieldRequired = pdTRUE;
					}
					#endif
				}

				if( ( xYieldRequired == pdTRUE ) || ( xMissedYield == pdTRUE ) )
   819a2:	2d01      	cmp	r5, #1
   819a4:	d003      	beq.n	819ae <xTaskResumeAll+0xaa>
   819a6:	4b14      	ldr	r3, [pc, #80]	; (819f8 <xTaskResumeAll+0xf4>)
   819a8:	681b      	ldr	r3, [r3, #0]
   819aa:	2b01      	cmp	r3, #1
   819ac:	d108      	bne.n	819c0 <xTaskResumeAll+0xbc>
				{
					xAlreadyYielded = pdTRUE;
					xMissedYield = pdFALSE;
   819ae:	2200      	movs	r2, #0
   819b0:	4b11      	ldr	r3, [pc, #68]	; (819f8 <xTaskResumeAll+0xf4>)
   819b2:	601a      	str	r2, [r3, #0]
					portYIELD_WITHIN_API();
   819b4:	4b11      	ldr	r3, [pc, #68]	; (819fc <xTaskResumeAll+0xf8>)
   819b6:	4798      	blx	r3
					#endif
				}

				if( ( xYieldRequired == pdTRUE ) || ( xMissedYield == pdTRUE ) )
				{
					xAlreadyYielded = pdTRUE;
   819b8:	2401      	movs	r4, #1
   819ba:	e002      	b.n	819c2 <xTaskResumeAll+0xbe>
/*----------------------------------------------------------*/

signed portBASE_TYPE xTaskResumeAll( void )
{
register tskTCB *pxTCB;
signed portBASE_TYPE xAlreadyYielded = pdFALSE;
   819bc:	2400      	movs	r4, #0
   819be:	e000      	b.n	819c2 <xTaskResumeAll+0xbe>
   819c0:	2400      	movs	r4, #0
					portYIELD_WITHIN_API();
				}
			}
		}
	}
	taskEXIT_CRITICAL();
   819c2:	4b0f      	ldr	r3, [pc, #60]	; (81a00 <xTaskResumeAll+0xfc>)
   819c4:	4798      	blx	r3

	return xAlreadyYielded;
}
   819c6:	4620      	mov	r0, r4
   819c8:	e8bd 83f8 	ldmia.w	sp!, {r3, r4, r5, r6, r7, r8, r9, pc}
   819cc:	20078ccc 	.word	0x20078ccc
   819d0:	00080d29 	.word	0x00080d29
   819d4:	00080d39 	.word	0x00080d39
   819d8:	20078cdc 	.word	0x20078cdc
   819dc:	20078bd4 	.word	0x20078bd4
   819e0:	00080c41 	.word	0x00080c41
   819e4:	20078cb4 	.word	0x20078cb4
   819e8:	00080ca1 	.word	0x00080ca1
   819ec:	20078bd0 	.word	0x20078bd0
   819f0:	20078b84 	.word	0x20078b84
   819f4:	000817d9 	.word	0x000817d9
   819f8:	20078ce0 	.word	0x20078ce0
   819fc:	00080d19 	.word	0x00080d19
   81a00:	00080d59 	.word	0x00080d59
   81a04:	20078cb8 	.word	0x20078cb8

00081a08 <vTaskDelayUntil>:
 *----------------------------------------------------------*/

#if ( INCLUDE_vTaskDelayUntil == 1 )

	void vTaskDelayUntil( portTickType * const pxPreviousWakeTime, portTickType xTimeIncrement )
	{
   81a08:	b538      	push	{r3, r4, r5, lr}
	portTickType xTimeToWake;
	portBASE_TYPE xAlreadyYielded, xShouldDelay = pdFALSE;

		configASSERT( pxPreviousWakeTime );
   81a0a:	b918      	cbnz	r0, 81a14 <vTaskDelayUntil+0xc>
   81a0c:	4b1c      	ldr	r3, [pc, #112]	; (81a80 <vTaskDelayUntil+0x78>)
   81a0e:	4798      	blx	r3
   81a10:	bf00      	nop
   81a12:	e7fd      	b.n	81a10 <vTaskDelayUntil+0x8>
   81a14:	460c      	mov	r4, r1
   81a16:	4605      	mov	r5, r0
		configASSERT( ( xTimeIncrement > 0U ) );
   81a18:	b919      	cbnz	r1, 81a22 <vTaskDelayUntil+0x1a>
   81a1a:	4b19      	ldr	r3, [pc, #100]	; (81a80 <vTaskDelayUntil+0x78>)
   81a1c:	4798      	blx	r3
   81a1e:	bf00      	nop
   81a20:	e7fd      	b.n	81a1e <vTaskDelayUntil+0x16>

		vTaskSuspendAll();
   81a22:	4b18      	ldr	r3, [pc, #96]	; (81a84 <vTaskDelayUntil+0x7c>)
   81a24:	4798      	blx	r3
		{
			/* Generate the tick time at which the task wants to wake. */
			xTimeToWake = *pxPreviousWakeTime + xTimeIncrement;
   81a26:	882b      	ldrh	r3, [r5, #0]
   81a28:	441c      	add	r4, r3
   81a2a:	b2a4      	uxth	r4, r4

			if( xTickCount < *pxPreviousWakeTime )
   81a2c:	4a16      	ldr	r2, [pc, #88]	; (81a88 <vTaskDelayUntil+0x80>)
   81a2e:	8812      	ldrh	r2, [r2, #0]
   81a30:	b292      	uxth	r2, r2
   81a32:	4293      	cmp	r3, r2
   81a34:	d908      	bls.n	81a48 <vTaskDelayUntil+0x40>
				/* The tick count has overflowed since this function was
				lasted called.  In this case the only time we should ever
				actually delay is if the wake time has also	overflowed,
				and the wake time is greater than the tick time.  When this
				is the case it is as if neither time had overflowed. */
				if( ( xTimeToWake < *pxPreviousWakeTime ) && ( xTimeToWake > xTickCount ) )
   81a36:	42a3      	cmp	r3, r4
   81a38:	d91e      	bls.n	81a78 <vTaskDelayUntil+0x70>
   81a3a:	4b13      	ldr	r3, [pc, #76]	; (81a88 <vTaskDelayUntil+0x80>)
   81a3c:	881b      	ldrh	r3, [r3, #0]
   81a3e:	b29b      	uxth	r3, r3
					xShouldDelay = pdTRUE;
				}
			}

			/* Update the wake time ready for the next call. */
			*pxPreviousWakeTime = xTimeToWake;
   81a40:	802c      	strh	r4, [r5, #0]

			if( xShouldDelay != pdFALSE )
   81a42:	429c      	cmp	r4, r3
   81a44:	d910      	bls.n	81a68 <vTaskDelayUntil+0x60>
   81a46:	e007      	b.n	81a58 <vTaskDelayUntil+0x50>
			else
			{
				/* The tick time has not overflowed.  In this case we will
				delay if either the wake time has overflowed, and/or the
				tick time is less than the wake time. */
				if( ( xTimeToWake < *pxPreviousWakeTime ) || ( xTimeToWake > xTickCount ) )
   81a48:	42a3      	cmp	r3, r4
   81a4a:	d813      	bhi.n	81a74 <vTaskDelayUntil+0x6c>
   81a4c:	4b0e      	ldr	r3, [pc, #56]	; (81a88 <vTaskDelayUntil+0x80>)
   81a4e:	881b      	ldrh	r3, [r3, #0]
   81a50:	b29b      	uxth	r3, r3
   81a52:	429c      	cmp	r4, r3
   81a54:	d80e      	bhi.n	81a74 <vTaskDelayUntil+0x6c>
   81a56:	e00f      	b.n	81a78 <vTaskDelayUntil+0x70>
				traceTASK_DELAY_UNTIL();

				/* We must remove ourselves from the ready list before adding
				ourselves to the blocked list as the same list item is used for
				both lists. */
				if( uxListRemove( ( xListItem * ) &( pxCurrentTCB->xGenericListItem ) ) == 0 )
   81a58:	4b0c      	ldr	r3, [pc, #48]	; (81a8c <vTaskDelayUntil+0x84>)
   81a5a:	6818      	ldr	r0, [r3, #0]
   81a5c:	3004      	adds	r0, #4
   81a5e:	4b0c      	ldr	r3, [pc, #48]	; (81a90 <vTaskDelayUntil+0x88>)
   81a60:	4798      	blx	r3
					no need to check, and the port reset macro can be called
					directly. */
					portRESET_READY_PRIORITY( pxCurrentTCB->uxPriority, uxTopReadyPriority );
				}

				prvAddCurrentTaskToDelayedList( xTimeToWake );
   81a62:	4620      	mov	r0, r4
   81a64:	4b0b      	ldr	r3, [pc, #44]	; (81a94 <vTaskDelayUntil+0x8c>)
   81a66:	4798      	blx	r3
			}
		}
		xAlreadyYielded = xTaskResumeAll();
   81a68:	4b0b      	ldr	r3, [pc, #44]	; (81a98 <vTaskDelayUntil+0x90>)
   81a6a:	4798      	blx	r3

		/* Force a reschedule if xTaskResumeAll has not already done so, we may
		have put ourselves to sleep. */
		if( xAlreadyYielded == pdFALSE )
   81a6c:	b930      	cbnz	r0, 81a7c <vTaskDelayUntil+0x74>
		{
			portYIELD_WITHIN_API();
   81a6e:	4b0b      	ldr	r3, [pc, #44]	; (81a9c <vTaskDelayUntil+0x94>)
   81a70:	4798      	blx	r3
   81a72:	bd38      	pop	{r3, r4, r5, pc}
					xShouldDelay = pdTRUE;
				}
			}

			/* Update the wake time ready for the next call. */
			*pxPreviousWakeTime = xTimeToWake;
   81a74:	802c      	strh	r4, [r5, #0]
   81a76:	e7ef      	b.n	81a58 <vTaskDelayUntil+0x50>
   81a78:	802c      	strh	r4, [r5, #0]
   81a7a:	e7f5      	b.n	81a68 <vTaskDelayUntil+0x60>
   81a7c:	bd38      	pop	{r3, r4, r5, pc}
   81a7e:	bf00      	nop
   81a80:	00080d29 	.word	0x00080d29
   81a84:	000817a9 	.word	0x000817a9
   81a88:	20078cd0 	.word	0x20078cd0
   81a8c:	20078cb4 	.word	0x20078cb4
   81a90:	00080ca1 	.word	0x00080ca1
   81a94:	000814dd 	.word	0x000814dd
   81a98:	00081905 	.word	0x00081905
   81a9c:	00080d19 	.word	0x00080d19

00081aa0 <prvIdleTask>:
 *
 * void prvIdleTask( void *pvParameters );
 *
 */
static portTASK_FUNCTION( prvIdleTask, pvParameters )
{
   81aa0:	b580      	push	{r7, lr}
	{
		portBASE_TYPE xListIsEmpty;

		/* ucTasksDeleted is used to prevent vTaskSuspendAll() being called
		too often in the idle task. */
		while( uxTasksDeleted > ( unsigned portBASE_TYPE ) 0U )
   81aa2:	4d15      	ldr	r5, [pc, #84]	; (81af8 <prvIdleTask+0x58>)
		{
			vTaskSuspendAll();
				xListIsEmpty = listLIST_IS_EMPTY( &xTasksWaitingTermination );
   81aa4:	4e15      	ldr	r6, [pc, #84]	; (81afc <prvIdleTask+0x5c>)

		/* ucTasksDeleted is used to prevent vTaskSuspendAll() being called
		too often in the idle task. */
		while( uxTasksDeleted > ( unsigned portBASE_TYPE ) 0U )
		{
			vTaskSuspendAll();
   81aa6:	f8df 8074 	ldr.w	r8, [pc, #116]	; 81b1c <prvIdleTask+0x7c>
				xListIsEmpty = listLIST_IS_EMPTY( &xTasksWaitingTermination );
			xTaskResumeAll();
   81aaa:	4f15      	ldr	r7, [pc, #84]	; (81b00 <prvIdleTask+0x60>)
   81aac:	e019      	b.n	81ae2 <prvIdleTask+0x42>

		/* ucTasksDeleted is used to prevent vTaskSuspendAll() being called
		too often in the idle task. */
		while( uxTasksDeleted > ( unsigned portBASE_TYPE ) 0U )
		{
			vTaskSuspendAll();
   81aae:	47c0      	blx	r8
				xListIsEmpty = listLIST_IS_EMPTY( &xTasksWaitingTermination );
   81ab0:	6834      	ldr	r4, [r6, #0]
			xTaskResumeAll();
   81ab2:	47b8      	blx	r7

			if( xListIsEmpty == pdFALSE )
   81ab4:	b1ac      	cbz	r4, 81ae2 <prvIdleTask+0x42>
			{
				tskTCB *pxTCB;

				taskENTER_CRITICAL();
   81ab6:	4b13      	ldr	r3, [pc, #76]	; (81b04 <prvIdleTask+0x64>)
   81ab8:	4798      	blx	r3
				{
					pxTCB = ( tskTCB * ) listGET_OWNER_OF_HEAD_ENTRY( ( ( xList * ) &xTasksWaitingTermination ) );
   81aba:	68f3      	ldr	r3, [r6, #12]
   81abc:	68dc      	ldr	r4, [r3, #12]
					uxListRemove( &( pxTCB->xGenericListItem ) );
   81abe:	1d20      	adds	r0, r4, #4
   81ac0:	4b11      	ldr	r3, [pc, #68]	; (81b08 <prvIdleTask+0x68>)
   81ac2:	4798      	blx	r3
					--uxCurrentNumberOfTasks;
   81ac4:	4a11      	ldr	r2, [pc, #68]	; (81b0c <prvIdleTask+0x6c>)
   81ac6:	6813      	ldr	r3, [r2, #0]
   81ac8:	3b01      	subs	r3, #1
   81aca:	6013      	str	r3, [r2, #0]
					--uxTasksDeleted;
   81acc:	682b      	ldr	r3, [r5, #0]
   81ace:	3b01      	subs	r3, #1
   81ad0:	602b      	str	r3, [r5, #0]
				}
				taskEXIT_CRITICAL();
   81ad2:	4b0f      	ldr	r3, [pc, #60]	; (81b10 <prvIdleTask+0x70>)
   81ad4:	4798      	blx	r3
		want to allocate and clean RAM statically. */
		portCLEAN_UP_TCB( pxTCB );

		/* Free up the memory allocated by the scheduler for the task.  It is up to
		the task to free any memory allocated at the application level. */
		vPortFreeAligned( pxTCB->pxStack );
   81ad6:	6b20      	ldr	r0, [r4, #48]	; 0x30
   81ad8:	f8df 9044 	ldr.w	r9, [pc, #68]	; 81b20 <prvIdleTask+0x80>
   81adc:	47c8      	blx	r9
		vPortFree( pxTCB );
   81ade:	4620      	mov	r0, r4
   81ae0:	47c8      	blx	r9
	{
		portBASE_TYPE xListIsEmpty;

		/* ucTasksDeleted is used to prevent vTaskSuspendAll() being called
		too often in the idle task. */
		while( uxTasksDeleted > ( unsigned portBASE_TYPE ) 0U )
   81ae2:	682b      	ldr	r3, [r5, #0]
   81ae4:	2b00      	cmp	r3, #0
   81ae6:	d1e2      	bne.n	81aae <prvIdleTask+0xe>

			A critical region is not required here as we are just reading from
			the list, and an occasional incorrect value will not matter.  If
			the ready list at the idle priority contains more than one task
			then a task other than the idle task is ready to execute. */
			if( listCURRENT_LIST_LENGTH( &( pxReadyTasksLists[ tskIDLE_PRIORITY ] ) ) > ( unsigned portBASE_TYPE ) 1 )
   81ae8:	4b0a      	ldr	r3, [pc, #40]	; (81b14 <prvIdleTask+0x74>)
   81aea:	681b      	ldr	r3, [r3, #0]
   81aec:	2b01      	cmp	r3, #1
   81aee:	d9f8      	bls.n	81ae2 <prvIdleTask+0x42>
			{
				taskYIELD();
   81af0:	4b09      	ldr	r3, [pc, #36]	; (81b18 <prvIdleTask+0x78>)
   81af2:	4798      	blx	r3
   81af4:	e7d7      	b.n	81aa6 <prvIdleTask+0x6>
   81af6:	bf00      	nop
   81af8:	20078ba4 	.word	0x20078ba4
   81afc:	20078c9c 	.word	0x20078c9c
   81b00:	00081905 	.word	0x00081905
   81b04:	00080d39 	.word	0x00080d39
   81b08:	00080ca1 	.word	0x00080ca1
   81b0c:	20078cdc 	.word	0x20078cdc
   81b10:	00080d59 	.word	0x00080d59
   81b14:	20078bd4 	.word	0x20078bd4
   81b18:	00080d19 	.word	0x00080d19
   81b1c:	000817a9 	.word	0x000817a9
   81b20:	00080f4d 	.word	0x00080f4d

00081b24 <vTaskSwitchContext>:

#endif
/*-----------------------------------------------------------*/

void vTaskSwitchContext( void )
{
   81b24:	b510      	push	{r4, lr}
	if( uxSchedulerSuspended != ( unsigned portBASE_TYPE ) pdFALSE )
   81b26:	4b22      	ldr	r3, [pc, #136]	; (81bb0 <vTaskSwitchContext+0x8c>)
   81b28:	681b      	ldr	r3, [r3, #0]
   81b2a:	b96b      	cbnz	r3, 81b48 <vTaskSwitchContext+0x24>
		#endif

		taskFIRST_CHECK_FOR_STACK_OVERFLOW();
		taskSECOND_CHECK_FOR_STACK_OVERFLOW();

		taskSELECT_HIGHEST_PRIORITY_TASK();
   81b2c:	4b21      	ldr	r3, [pc, #132]	; (81bb4 <vTaskSwitchContext+0x90>)
   81b2e:	681b      	ldr	r3, [r3, #0]
   81b30:	eb03 0383 	add.w	r3, r3, r3, lsl #2
   81b34:	009b      	lsls	r3, r3, #2
   81b36:	4a20      	ldr	r2, [pc, #128]	; (81bb8 <vTaskSwitchContext+0x94>)
   81b38:	58d3      	ldr	r3, [r2, r3]
   81b3a:	b9cb      	cbnz	r3, 81b70 <vTaskSwitchContext+0x4c>
   81b3c:	4b1d      	ldr	r3, [pc, #116]	; (81bb4 <vTaskSwitchContext+0x90>)
   81b3e:	681b      	ldr	r3, [r3, #0]
   81b40:	b143      	cbz	r3, 81b54 <vTaskSwitchContext+0x30>
   81b42:	4a1c      	ldr	r2, [pc, #112]	; (81bb4 <vTaskSwitchContext+0x90>)
   81b44:	491c      	ldr	r1, [pc, #112]	; (81bb8 <vTaskSwitchContext+0x94>)
   81b46:	e009      	b.n	81b5c <vTaskSwitchContext+0x38>
{
	if( uxSchedulerSuspended != ( unsigned portBASE_TYPE ) pdFALSE )
	{
		/* The scheduler is currently suspended - do not allow a context
		switch. */
		xMissedYield = pdTRUE;
   81b48:	2201      	movs	r2, #1
   81b4a:	4b1c      	ldr	r3, [pc, #112]	; (81bbc <vTaskSwitchContext+0x98>)
   81b4c:	601a      	str	r2, [r3, #0]
   81b4e:	bd10      	pop	{r4, pc}
		#endif

		taskFIRST_CHECK_FOR_STACK_OVERFLOW();
		taskSECOND_CHECK_FOR_STACK_OVERFLOW();

		taskSELECT_HIGHEST_PRIORITY_TASK();
   81b50:	6813      	ldr	r3, [r2, #0]
   81b52:	b91b      	cbnz	r3, 81b5c <vTaskSwitchContext+0x38>
   81b54:	4b1a      	ldr	r3, [pc, #104]	; (81bc0 <vTaskSwitchContext+0x9c>)
   81b56:	4798      	blx	r3
   81b58:	bf00      	nop
   81b5a:	e7fd      	b.n	81b58 <vTaskSwitchContext+0x34>
   81b5c:	6813      	ldr	r3, [r2, #0]
   81b5e:	3b01      	subs	r3, #1
   81b60:	6013      	str	r3, [r2, #0]
   81b62:	6813      	ldr	r3, [r2, #0]
   81b64:	eb03 0383 	add.w	r3, r3, r3, lsl #2
   81b68:	f851 3023 	ldr.w	r3, [r1, r3, lsl #2]
   81b6c:	2b00      	cmp	r3, #0
   81b6e:	d0ef      	beq.n	81b50 <vTaskSwitchContext+0x2c>
   81b70:	4b10      	ldr	r3, [pc, #64]	; (81bb4 <vTaskSwitchContext+0x90>)
   81b72:	681b      	ldr	r3, [r3, #0]
   81b74:	4a10      	ldr	r2, [pc, #64]	; (81bb8 <vTaskSwitchContext+0x94>)
   81b76:	0099      	lsls	r1, r3, #2
   81b78:	18c8      	adds	r0, r1, r3
   81b7a:	eb02 0080 	add.w	r0, r2, r0, lsl #2
   81b7e:	6844      	ldr	r4, [r0, #4]
   81b80:	6864      	ldr	r4, [r4, #4]
   81b82:	6044      	str	r4, [r0, #4]
   81b84:	4602      	mov	r2, r0
   81b86:	3208      	adds	r2, #8
   81b88:	4294      	cmp	r4, r2
   81b8a:	d106      	bne.n	81b9a <vTaskSwitchContext+0x76>
   81b8c:	6860      	ldr	r0, [r4, #4]
   81b8e:	eb03 0183 	add.w	r1, r3, r3, lsl #2
   81b92:	4a09      	ldr	r2, [pc, #36]	; (81bb8 <vTaskSwitchContext+0x94>)
   81b94:	eb02 0281 	add.w	r2, r2, r1, lsl #2
   81b98:	6050      	str	r0, [r2, #4]
   81b9a:	eb03 0383 	add.w	r3, r3, r3, lsl #2
   81b9e:	4a06      	ldr	r2, [pc, #24]	; (81bb8 <vTaskSwitchContext+0x94>)
   81ba0:	eb02 0383 	add.w	r3, r2, r3, lsl #2
   81ba4:	685b      	ldr	r3, [r3, #4]
   81ba6:	68da      	ldr	r2, [r3, #12]
   81ba8:	4b06      	ldr	r3, [pc, #24]	; (81bc4 <vTaskSwitchContext+0xa0>)
   81baa:	601a      	str	r2, [r3, #0]
   81bac:	bd10      	pop	{r4, pc}
   81bae:	bf00      	nop
   81bb0:	20078ccc 	.word	0x20078ccc
   81bb4:	20078bd0 	.word	0x20078bd0
   81bb8:	20078bd4 	.word	0x20078bd4
   81bbc:	20078ce0 	.word	0x20078ce0
   81bc0:	00080d29 	.word	0x00080d29
   81bc4:	20078cb4 	.word	0x20078cb4

00081bc8 <vTaskPlaceOnEventList>:
	}
}
/*-----------------------------------------------------------*/

void vTaskPlaceOnEventList( const xList * const pxEventList, portTickType xTicksToWait )
{
   81bc8:	b538      	push	{r3, r4, r5, lr}
portTickType xTimeToWake;

	configASSERT( pxEventList );
   81bca:	b918      	cbnz	r0, 81bd4 <vTaskPlaceOnEventList+0xc>
   81bcc:	4b0f      	ldr	r3, [pc, #60]	; (81c0c <vTaskPlaceOnEventList+0x44>)
   81bce:	4798      	blx	r3
   81bd0:	bf00      	nop
   81bd2:	e7fd      	b.n	81bd0 <vTaskPlaceOnEventList+0x8>
   81bd4:	460c      	mov	r4, r1
	SCHEDULER SUSPENDED. */

	/* Place the event list item of the TCB in the appropriate event list.
	This is placed in the list in priority order so the highest priority task
	is the first to be woken by the event. */
	vListInsert( ( xList * ) pxEventList, ( xListItem * ) &( pxCurrentTCB->xEventListItem ) );
   81bd6:	4d0e      	ldr	r5, [pc, #56]	; (81c10 <vTaskPlaceOnEventList+0x48>)
   81bd8:	6829      	ldr	r1, [r5, #0]
   81bda:	3118      	adds	r1, #24
   81bdc:	4b0d      	ldr	r3, [pc, #52]	; (81c14 <vTaskPlaceOnEventList+0x4c>)
   81bde:	4798      	blx	r3

	/* We must remove ourselves from the ready list before adding ourselves
	to the blocked list as the same list item is used for both lists.  We have
	exclusive access to the ready lists as the scheduler is locked. */
	if( uxListRemove( ( xListItem * ) &( pxCurrentTCB->xGenericListItem ) ) == 0 )
   81be0:	6828      	ldr	r0, [r5, #0]
   81be2:	3004      	adds	r0, #4
   81be4:	4b0c      	ldr	r3, [pc, #48]	; (81c18 <vTaskPlaceOnEventList+0x50>)
   81be6:	4798      	blx	r3
		portRESET_READY_PRIORITY( pxCurrentTCB->uxPriority, uxTopReadyPriority );
	}

	#if ( INCLUDE_vTaskSuspend == 1 )
	{
		if( xTicksToWait == portMAX_DELAY )
   81be8:	f64f 73ff 	movw	r3, #65535	; 0xffff
   81bec:	429c      	cmp	r4, r3
   81bee:	d105      	bne.n	81bfc <vTaskPlaceOnEventList+0x34>
		{
			/* Add ourselves to the suspended task list instead of a delayed task
			list to ensure we are not woken by a timing event.  We will block
			indefinitely. */
			vListInsertEnd( ( xList * ) &xSuspendedTaskList, ( xListItem * ) &( pxCurrentTCB->xGenericListItem ) );
   81bf0:	6829      	ldr	r1, [r5, #0]
   81bf2:	480a      	ldr	r0, [pc, #40]	; (81c1c <vTaskPlaceOnEventList+0x54>)
   81bf4:	3104      	adds	r1, #4
   81bf6:	4b0a      	ldr	r3, [pc, #40]	; (81c20 <vTaskPlaceOnEventList+0x58>)
   81bf8:	4798      	blx	r3
   81bfa:	bd38      	pop	{r3, r4, r5, pc}
		}
		else
		{
			/* Calculate the time at which the task should be woken if the event does
			not occur.  This may overflow but this doesn't matter. */
			xTimeToWake = xTickCount + xTicksToWait;
   81bfc:	4b09      	ldr	r3, [pc, #36]	; (81c24 <vTaskPlaceOnEventList+0x5c>)
   81bfe:	8818      	ldrh	r0, [r3, #0]
   81c00:	4420      	add	r0, r4
			prvAddCurrentTaskToDelayedList( xTimeToWake );
   81c02:	b280      	uxth	r0, r0
   81c04:	4b08      	ldr	r3, [pc, #32]	; (81c28 <vTaskPlaceOnEventList+0x60>)
   81c06:	4798      	blx	r3
   81c08:	bd38      	pop	{r3, r4, r5, pc}
   81c0a:	bf00      	nop
   81c0c:	00080d29 	.word	0x00080d29
   81c10:	20078cb4 	.word	0x20078cb4
   81c14:	00080c5d 	.word	0x00080c5d
   81c18:	00080ca1 	.word	0x00080ca1
   81c1c:	20078b88 	.word	0x20078b88
   81c20:	00080c41 	.word	0x00080c41
   81c24:	20078cd0 	.word	0x20078cd0
   81c28:	000814dd 	.word	0x000814dd

00081c2c <vTaskPlaceOnEventListRestricted>:
/*-----------------------------------------------------------*/

#if configUSE_TIMERS == 1

	void vTaskPlaceOnEventListRestricted( const xList * const pxEventList, portTickType xTicksToWait )
	{
   81c2c:	b538      	push	{r3, r4, r5, lr}
	portTickType xTimeToWake;

		configASSERT( pxEventList );
   81c2e:	b918      	cbnz	r0, 81c38 <vTaskPlaceOnEventListRestricted+0xc>
   81c30:	4b0a      	ldr	r3, [pc, #40]	; (81c5c <vTaskPlaceOnEventListRestricted+0x30>)
   81c32:	4798      	blx	r3
   81c34:	bf00      	nop
   81c36:	e7fd      	b.n	81c34 <vTaskPlaceOnEventListRestricted+0x8>
   81c38:	460d      	mov	r5, r1

		/* Place the event list item of the TCB in the appropriate event list.
		In this case it is assume that this is the only task that is going to
		be waiting on this event list, so the faster vListInsertEnd() function
		can be used in place of vListInsert. */
		vListInsertEnd( ( xList * ) pxEventList, ( xListItem * ) &( pxCurrentTCB->xEventListItem ) );
   81c3a:	4c09      	ldr	r4, [pc, #36]	; (81c60 <vTaskPlaceOnEventListRestricted+0x34>)
   81c3c:	6821      	ldr	r1, [r4, #0]
   81c3e:	3118      	adds	r1, #24
   81c40:	4b08      	ldr	r3, [pc, #32]	; (81c64 <vTaskPlaceOnEventListRestricted+0x38>)
   81c42:	4798      	blx	r3

		/* We must remove this task from the ready list before adding it to the
		blocked list as the same list item is used for both lists.  This
		function is called form a critical section. */
		if( uxListRemove( ( xListItem * ) &( pxCurrentTCB->xGenericListItem ) ) == 0 )
   81c44:	6820      	ldr	r0, [r4, #0]
   81c46:	3004      	adds	r0, #4
   81c48:	4b07      	ldr	r3, [pc, #28]	; (81c68 <vTaskPlaceOnEventListRestricted+0x3c>)
   81c4a:	4798      	blx	r3
			portRESET_READY_PRIORITY( pxCurrentTCB->uxPriority, uxTopReadyPriority );
		}

		/* Calculate the time at which the task should be woken if the event does
		not occur.  This may overflow but this doesn't matter. */
		xTimeToWake = xTickCount + xTicksToWait;
   81c4c:	4b07      	ldr	r3, [pc, #28]	; (81c6c <vTaskPlaceOnEventListRestricted+0x40>)
   81c4e:	8818      	ldrh	r0, [r3, #0]
   81c50:	4428      	add	r0, r5
		
		traceTASK_DELAY_UNTIL();
		prvAddCurrentTaskToDelayedList( xTimeToWake );
   81c52:	b280      	uxth	r0, r0
   81c54:	4b06      	ldr	r3, [pc, #24]	; (81c70 <vTaskPlaceOnEventListRestricted+0x44>)
   81c56:	4798      	blx	r3
   81c58:	bd38      	pop	{r3, r4, r5, pc}
   81c5a:	bf00      	nop
   81c5c:	00080d29 	.word	0x00080d29
   81c60:	20078cb4 	.word	0x20078cb4
   81c64:	00080c41 	.word	0x00080c41
   81c68:	00080ca1 	.word	0x00080ca1
   81c6c:	20078cd0 	.word	0x20078cd0
   81c70:	000814dd 	.word	0x000814dd

00081c74 <xTaskRemoveFromEventList>:

#endif /* configUSE_TIMERS */
/*-----------------------------------------------------------*/

signed portBASE_TYPE xTaskRemoveFromEventList( const xList * const pxEventList )
{
   81c74:	b538      	push	{r3, r4, r5, lr}
	get called - the lock count on the queue will get modified instead.  This
	means we can always expect exclusive access to the event list here.

	This function assumes that a check has already been made to ensure that
	pxEventList is not empty. */
	pxUnblockedTCB = ( tskTCB * ) listGET_OWNER_OF_HEAD_ENTRY( pxEventList );
   81c76:	68c3      	ldr	r3, [r0, #12]
   81c78:	68dc      	ldr	r4, [r3, #12]
	configASSERT( pxUnblockedTCB );
   81c7a:	b91c      	cbnz	r4, 81c84 <xTaskRemoveFromEventList+0x10>
   81c7c:	4b16      	ldr	r3, [pc, #88]	; (81cd8 <xTaskRemoveFromEventList+0x64>)
   81c7e:	4798      	blx	r3
   81c80:	bf00      	nop
   81c82:	e7fd      	b.n	81c80 <xTaskRemoveFromEventList+0xc>
	uxListRemove( &( pxUnblockedTCB->xEventListItem ) );
   81c84:	f104 0518 	add.w	r5, r4, #24
   81c88:	4628      	mov	r0, r5
   81c8a:	4b14      	ldr	r3, [pc, #80]	; (81cdc <xTaskRemoveFromEventList+0x68>)
   81c8c:	4798      	blx	r3

	if( uxSchedulerSuspended == ( unsigned portBASE_TYPE ) pdFALSE )
   81c8e:	4b14      	ldr	r3, [pc, #80]	; (81ce0 <xTaskRemoveFromEventList+0x6c>)
   81c90:	681b      	ldr	r3, [r3, #0]
   81c92:	b99b      	cbnz	r3, 81cbc <xTaskRemoveFromEventList+0x48>
	{
		uxListRemove( &( pxUnblockedTCB->xGenericListItem ) );
   81c94:	1d25      	adds	r5, r4, #4
   81c96:	4628      	mov	r0, r5
   81c98:	4b10      	ldr	r3, [pc, #64]	; (81cdc <xTaskRemoveFromEventList+0x68>)
   81c9a:	4798      	blx	r3
		prvAddTaskToReadyQueue( pxUnblockedTCB );
   81c9c:	6ae0      	ldr	r0, [r4, #44]	; 0x2c
   81c9e:	4b11      	ldr	r3, [pc, #68]	; (81ce4 <xTaskRemoveFromEventList+0x70>)
   81ca0:	681b      	ldr	r3, [r3, #0]
   81ca2:	4298      	cmp	r0, r3
   81ca4:	bf84      	itt	hi
   81ca6:	4b0f      	ldrhi	r3, [pc, #60]	; (81ce4 <xTaskRemoveFromEventList+0x70>)
   81ca8:	6018      	strhi	r0, [r3, #0]
   81caa:	eb00 0080 	add.w	r0, r0, r0, lsl #2
   81cae:	4b0e      	ldr	r3, [pc, #56]	; (81ce8 <xTaskRemoveFromEventList+0x74>)
   81cb0:	eb03 0080 	add.w	r0, r3, r0, lsl #2
   81cb4:	4629      	mov	r1, r5
   81cb6:	4b0d      	ldr	r3, [pc, #52]	; (81cec <xTaskRemoveFromEventList+0x78>)
   81cb8:	4798      	blx	r3
   81cba:	e003      	b.n	81cc4 <xTaskRemoveFromEventList+0x50>
	}
	else
	{
		/* We cannot access the delayed or ready lists, so will hold this
		task pending until the scheduler is resumed. */
		vListInsertEnd( ( xList * ) &( xPendingReadyList ), &( pxUnblockedTCB->xEventListItem ) );
   81cbc:	480c      	ldr	r0, [pc, #48]	; (81cf0 <xTaskRemoveFromEventList+0x7c>)
   81cbe:	4629      	mov	r1, r5
   81cc0:	4b0a      	ldr	r3, [pc, #40]	; (81cec <xTaskRemoveFromEventList+0x78>)
   81cc2:	4798      	blx	r3
	}

	if( pxUnblockedTCB->uxPriority >= pxCurrentTCB->uxPriority )
   81cc4:	4b0b      	ldr	r3, [pc, #44]	; (81cf4 <xTaskRemoveFromEventList+0x80>)
   81cc6:	681b      	ldr	r3, [r3, #0]
   81cc8:	6ae0      	ldr	r0, [r4, #44]	; 0x2c
   81cca:	6adb      	ldr	r3, [r3, #44]	; 0x2c
	{
		xReturn = pdFALSE;
	}

	return xReturn;
}
   81ccc:	4298      	cmp	r0, r3
   81cce:	bf34      	ite	cc
   81cd0:	2000      	movcc	r0, #0
   81cd2:	2001      	movcs	r0, #1
   81cd4:	bd38      	pop	{r3, r4, r5, pc}
   81cd6:	bf00      	nop
   81cd8:	00080d29 	.word	0x00080d29
   81cdc:	00080ca1 	.word	0x00080ca1
   81ce0:	20078ccc 	.word	0x20078ccc
   81ce4:	20078bd0 	.word	0x20078bd0
   81ce8:	20078bd4 	.word	0x20078bd4
   81cec:	00080c41 	.word	0x00080c41
   81cf0:	20078cb8 	.word	0x20078cb8
   81cf4:	20078cb4 	.word	0x20078cb4

00081cf8 <vTaskSetTimeOutState>:
/*-----------------------------------------------------------*/

void vTaskSetTimeOutState( xTimeOutType * const pxTimeOut )
{
   81cf8:	b508      	push	{r3, lr}
	configASSERT( pxTimeOut );
   81cfa:	b918      	cbnz	r0, 81d04 <vTaskSetTimeOutState+0xc>
   81cfc:	4b05      	ldr	r3, [pc, #20]	; (81d14 <vTaskSetTimeOutState+0x1c>)
   81cfe:	4798      	blx	r3
   81d00:	bf00      	nop
   81d02:	e7fd      	b.n	81d00 <vTaskSetTimeOutState+0x8>
	pxTimeOut->xOverflowCount = xNumOfOverflows;
   81d04:	4a04      	ldr	r2, [pc, #16]	; (81d18 <vTaskSetTimeOutState+0x20>)
   81d06:	6812      	ldr	r2, [r2, #0]
   81d08:	6002      	str	r2, [r0, #0]
	pxTimeOut->xTimeOnEntering = xTickCount;
   81d0a:	4a04      	ldr	r2, [pc, #16]	; (81d1c <vTaskSetTimeOutState+0x24>)
   81d0c:	8812      	ldrh	r2, [r2, #0]
   81d0e:	8082      	strh	r2, [r0, #4]
   81d10:	bd08      	pop	{r3, pc}
   81d12:	bf00      	nop
   81d14:	00080d29 	.word	0x00080d29
   81d18:	20078cb0 	.word	0x20078cb0
   81d1c:	20078cd0 	.word	0x20078cd0

00081d20 <xTaskCheckForTimeOut>:
}
/*-----------------------------------------------------------*/

portBASE_TYPE xTaskCheckForTimeOut( xTimeOutType * const pxTimeOut, portTickType * const pxTicksToWait )
{
   81d20:	b538      	push	{r3, r4, r5, lr}
portBASE_TYPE xReturn;

	configASSERT( pxTimeOut );
   81d22:	b918      	cbnz	r0, 81d2c <xTaskCheckForTimeOut+0xc>
   81d24:	4b1b      	ldr	r3, [pc, #108]	; (81d94 <xTaskCheckForTimeOut+0x74>)
   81d26:	4798      	blx	r3
   81d28:	bf00      	nop
   81d2a:	e7fd      	b.n	81d28 <xTaskCheckForTimeOut+0x8>
   81d2c:	460d      	mov	r5, r1
   81d2e:	4604      	mov	r4, r0
	configASSERT( pxTicksToWait );
   81d30:	b919      	cbnz	r1, 81d3a <xTaskCheckForTimeOut+0x1a>
   81d32:	4b18      	ldr	r3, [pc, #96]	; (81d94 <xTaskCheckForTimeOut+0x74>)
   81d34:	4798      	blx	r3
   81d36:	bf00      	nop
   81d38:	e7fd      	b.n	81d36 <xTaskCheckForTimeOut+0x16>

	taskENTER_CRITICAL();
   81d3a:	4b17      	ldr	r3, [pc, #92]	; (81d98 <xTaskCheckForTimeOut+0x78>)
   81d3c:	4798      	blx	r3
	{
		#if ( INCLUDE_vTaskSuspend == 1 )
			/* If INCLUDE_vTaskSuspend is set to 1 and the block time specified is
			the maximum block time then the task should block indefinitely, and
			therefore never time out. */
			if( *pxTicksToWait == portMAX_DELAY )
   81d3e:	882b      	ldrh	r3, [r5, #0]
   81d40:	f64f 72ff 	movw	r2, #65535	; 0xffff
   81d44:	4293      	cmp	r3, r2
   81d46:	d01b      	beq.n	81d80 <xTaskCheckForTimeOut+0x60>
				xReturn = pdFALSE;
			}
			else /* We are not blocking indefinitely, perform the checks below. */
		#endif

		if( ( xNumOfOverflows != pxTimeOut->xOverflowCount ) && ( ( portTickType ) xTickCount >= ( portTickType ) pxTimeOut->xTimeOnEntering ) )
   81d48:	4a14      	ldr	r2, [pc, #80]	; (81d9c <xTaskCheckForTimeOut+0x7c>)
   81d4a:	6812      	ldr	r2, [r2, #0]
   81d4c:	6821      	ldr	r1, [r4, #0]
   81d4e:	4291      	cmp	r1, r2
   81d50:	d005      	beq.n	81d5e <xTaskCheckForTimeOut+0x3e>
   81d52:	4a13      	ldr	r2, [pc, #76]	; (81da0 <xTaskCheckForTimeOut+0x80>)
   81d54:	8812      	ldrh	r2, [r2, #0]
   81d56:	b292      	uxth	r2, r2
   81d58:	88a1      	ldrh	r1, [r4, #4]
   81d5a:	4291      	cmp	r1, r2
   81d5c:	d912      	bls.n	81d84 <xTaskCheckForTimeOut+0x64>
			was called, but has also overflowed since vTaskSetTimeOut() was called.
			It must have wrapped all the way around and gone past us again. This
			passed since vTaskSetTimeout() was called. */
			xReturn = pdTRUE;
		}
		else if( ( ( portTickType ) ( ( portTickType ) xTickCount - ( portTickType ) pxTimeOut->xTimeOnEntering ) ) < ( portTickType ) *pxTicksToWait )
   81d5e:	4a10      	ldr	r2, [pc, #64]	; (81da0 <xTaskCheckForTimeOut+0x80>)
   81d60:	8811      	ldrh	r1, [r2, #0]
   81d62:	88a0      	ldrh	r0, [r4, #4]
   81d64:	1a09      	subs	r1, r1, r0
   81d66:	b289      	uxth	r1, r1
   81d68:	428b      	cmp	r3, r1
   81d6a:	d90d      	bls.n	81d88 <xTaskCheckForTimeOut+0x68>
		{
			/* Not a genuine timeout. Adjust parameters for time remaining. */
			*pxTicksToWait -= ( ( portTickType ) xTickCount - ( portTickType ) pxTimeOut->xTimeOnEntering );
   81d6c:	8812      	ldrh	r2, [r2, #0]
   81d6e:	b292      	uxth	r2, r2
   81d70:	1a12      	subs	r2, r2, r0
   81d72:	1a9b      	subs	r3, r3, r2
   81d74:	802b      	strh	r3, [r5, #0]
			vTaskSetTimeOutState( pxTimeOut );
   81d76:	4620      	mov	r0, r4
   81d78:	4b0a      	ldr	r3, [pc, #40]	; (81da4 <xTaskCheckForTimeOut+0x84>)
   81d7a:	4798      	blx	r3
			xReturn = pdFALSE;
   81d7c:	2400      	movs	r4, #0
   81d7e:	e004      	b.n	81d8a <xTaskCheckForTimeOut+0x6a>
			/* If INCLUDE_vTaskSuspend is set to 1 and the block time specified is
			the maximum block time then the task should block indefinitely, and
			therefore never time out. */
			if( *pxTicksToWait == portMAX_DELAY )
			{
				xReturn = pdFALSE;
   81d80:	2400      	movs	r4, #0
   81d82:	e002      	b.n	81d8a <xTaskCheckForTimeOut+0x6a>
		{
			/* The tick count is greater than the time at which vTaskSetTimeout()
			was called, but has also overflowed since vTaskSetTimeOut() was called.
			It must have wrapped all the way around and gone past us again. This
			passed since vTaskSetTimeout() was called. */
			xReturn = pdTRUE;
   81d84:	2401      	movs	r4, #1
   81d86:	e000      	b.n	81d8a <xTaskCheckForTimeOut+0x6a>
			vTaskSetTimeOutState( pxTimeOut );
			xReturn = pdFALSE;
		}
		else
		{
			xReturn = pdTRUE;
   81d88:	2401      	movs	r4, #1
		}
	}
	taskEXIT_CRITICAL();
   81d8a:	4b07      	ldr	r3, [pc, #28]	; (81da8 <xTaskCheckForTimeOut+0x88>)
   81d8c:	4798      	blx	r3

	return xReturn;
}
   81d8e:	4620      	mov	r0, r4
   81d90:	bd38      	pop	{r3, r4, r5, pc}
   81d92:	bf00      	nop
   81d94:	00080d29 	.word	0x00080d29
   81d98:	00080d39 	.word	0x00080d39
   81d9c:	20078cb0 	.word	0x20078cb0
   81da0:	20078cd0 	.word	0x20078cd0
   81da4:	00081cf9 	.word	0x00081cf9
   81da8:	00080d59 	.word	0x00080d59

00081dac <vTaskMissedYield>:
/*-----------------------------------------------------------*/

void vTaskMissedYield( void )
{
	xMissedYield = pdTRUE;
   81dac:	2201      	movs	r2, #1
   81dae:	4b01      	ldr	r3, [pc, #4]	; (81db4 <vTaskMissedYield+0x8>)
   81db0:	601a      	str	r2, [r3, #0]
   81db2:	4770      	bx	lr
   81db4:	20078ce0 	.word	0x20078ce0

00081db8 <xTaskGetCurrentTaskHandle>:
	xTaskHandle xReturn;

		/* A critical section is not required as this is not called from
		an interrupt and the current TCB will always be the same for any
		individual execution thread. */
		xReturn = pxCurrentTCB;
   81db8:	4b01      	ldr	r3, [pc, #4]	; (81dc0 <xTaskGetCurrentTaskHandle+0x8>)
   81dba:	6818      	ldr	r0, [r3, #0]

		return xReturn;
	}
   81dbc:	4770      	bx	lr
   81dbe:	bf00      	nop
   81dc0:	20078cb4 	.word	0x20078cb4

00081dc4 <xTaskGetSchedulerState>:

	portBASE_TYPE xTaskGetSchedulerState( void )
	{
	portBASE_TYPE xReturn;

		if( xSchedulerRunning == pdFALSE )
   81dc4:	4b05      	ldr	r3, [pc, #20]	; (81ddc <xTaskGetSchedulerState+0x18>)
   81dc6:	681b      	ldr	r3, [r3, #0]
   81dc8:	b133      	cbz	r3, 81dd8 <xTaskGetSchedulerState+0x14>
		{
			xReturn = taskSCHEDULER_NOT_STARTED;
		}
		else
		{
			if( uxSchedulerSuspended == ( unsigned portBASE_TYPE ) pdFALSE )
   81dca:	4b05      	ldr	r3, [pc, #20]	; (81de0 <xTaskGetSchedulerState+0x1c>)
   81dcc:	681b      	ldr	r3, [r3, #0]
			{
				xReturn = taskSCHEDULER_RUNNING;
			}
			else
			{
				xReturn = taskSCHEDULER_SUSPENDED;
   81dce:	2b00      	cmp	r3, #0
   81dd0:	bf0c      	ite	eq
   81dd2:	2001      	moveq	r0, #1
   81dd4:	2002      	movne	r0, #2
   81dd6:	4770      	bx	lr
	{
	portBASE_TYPE xReturn;

		if( xSchedulerRunning == pdFALSE )
		{
			xReturn = taskSCHEDULER_NOT_STARTED;
   81dd8:	2000      	movs	r0, #0
				xReturn = taskSCHEDULER_SUSPENDED;
			}
		}

		return xReturn;
	}
   81dda:	4770      	bx	lr
   81ddc:	20078ba0 	.word	0x20078ba0
   81de0:	20078ccc 	.word	0x20078ccc

00081de4 <vTaskPriorityInherit>:
	{
	tskTCB * const pxTCB = ( tskTCB * ) pxMutexHolder;

		/* If the mutex was given back by an interrupt while the queue was
		locked then the mutex holder might now be NULL. */
		if( pxMutexHolder != NULL )
   81de4:	2800      	cmp	r0, #0
   81de6:	d031      	beq.n	81e4c <vTaskPriorityInherit+0x68>
/*-----------------------------------------------------------*/

#if ( configUSE_MUTEXES == 1 )

	void vTaskPriorityInherit( xTaskHandle * const pxMutexHolder )
	{
   81de8:	b538      	push	{r3, r4, r5, lr}

		/* If the mutex was given back by an interrupt while the queue was
		locked then the mutex holder might now be NULL. */
		if( pxMutexHolder != NULL )
		{
			if( pxTCB->uxPriority < pxCurrentTCB->uxPriority )
   81dea:	6ac3      	ldr	r3, [r0, #44]	; 0x2c
   81dec:	4918      	ldr	r1, [pc, #96]	; (81e50 <vTaskPriorityInherit+0x6c>)
   81dee:	6809      	ldr	r1, [r1, #0]
   81df0:	6ac9      	ldr	r1, [r1, #44]	; 0x2c
   81df2:	428b      	cmp	r3, r1
   81df4:	d229      	bcs.n	81e4a <vTaskPriorityInherit+0x66>
			{
				/* Adjust the mutex holder state to account for its new priority. */
				listSET_LIST_ITEM_VALUE( &( pxTCB->xEventListItem ), configMAX_PRIORITIES - ( portTickType ) pxCurrentTCB->uxPriority );
   81df6:	4916      	ldr	r1, [pc, #88]	; (81e50 <vTaskPriorityInherit+0x6c>)
   81df8:	6809      	ldr	r1, [r1, #0]
   81dfa:	6ac9      	ldr	r1, [r1, #44]	; 0x2c
   81dfc:	f1c1 010a 	rsb	r1, r1, #10
   81e00:	8301      	strh	r1, [r0, #24]

				/* If the task being modified is in the ready state it will need to
				be moved into a new list. */
				if( listIS_CONTAINED_WITHIN( &( pxReadyTasksLists[ pxTCB->uxPriority ] ), &( pxTCB->xGenericListItem ) ) != pdFALSE )
   81e02:	eb03 0383 	add.w	r3, r3, r3, lsl #2
   81e06:	4913      	ldr	r1, [pc, #76]	; (81e54 <vTaskPriorityInherit+0x70>)
   81e08:	eb01 0383 	add.w	r3, r1, r3, lsl #2
   81e0c:	6941      	ldr	r1, [r0, #20]
   81e0e:	4299      	cmp	r1, r3
   81e10:	d117      	bne.n	81e42 <vTaskPriorityInherit+0x5e>
   81e12:	4605      	mov	r5, r0
				{
					if( uxListRemove( ( xListItem * ) &( pxTCB->xGenericListItem ) ) == 0 )
   81e14:	1d04      	adds	r4, r0, #4
   81e16:	4620      	mov	r0, r4
   81e18:	4b0f      	ldr	r3, [pc, #60]	; (81e58 <vTaskPriorityInherit+0x74>)
   81e1a:	4798      	blx	r3
					{
						taskRESET_READY_PRIORITY( pxTCB->uxPriority );
					}

					/* Inherit the priority before being moved into the new list. */
					pxTCB->uxPriority = pxCurrentTCB->uxPriority;
   81e1c:	4b0c      	ldr	r3, [pc, #48]	; (81e50 <vTaskPriorityInherit+0x6c>)
   81e1e:	681b      	ldr	r3, [r3, #0]
   81e20:	6ad8      	ldr	r0, [r3, #44]	; 0x2c
   81e22:	62e8      	str	r0, [r5, #44]	; 0x2c
					prvAddTaskToReadyQueue( pxTCB );
   81e24:	4b0d      	ldr	r3, [pc, #52]	; (81e5c <vTaskPriorityInherit+0x78>)
   81e26:	681b      	ldr	r3, [r3, #0]
   81e28:	4298      	cmp	r0, r3
   81e2a:	bf84      	itt	hi
   81e2c:	4b0b      	ldrhi	r3, [pc, #44]	; (81e5c <vTaskPriorityInherit+0x78>)
   81e2e:	6018      	strhi	r0, [r3, #0]
   81e30:	eb00 0080 	add.w	r0, r0, r0, lsl #2
   81e34:	4b07      	ldr	r3, [pc, #28]	; (81e54 <vTaskPriorityInherit+0x70>)
   81e36:	eb03 0080 	add.w	r0, r3, r0, lsl #2
   81e3a:	4621      	mov	r1, r4
   81e3c:	4b08      	ldr	r3, [pc, #32]	; (81e60 <vTaskPriorityInherit+0x7c>)
   81e3e:	4798      	blx	r3
   81e40:	bd38      	pop	{r3, r4, r5, pc}
				}
				else
				{
					/* Just inherit the priority. */
					pxTCB->uxPriority = pxCurrentTCB->uxPriority;
   81e42:	4b03      	ldr	r3, [pc, #12]	; (81e50 <vTaskPriorityInherit+0x6c>)
   81e44:	681b      	ldr	r3, [r3, #0]
   81e46:	6adb      	ldr	r3, [r3, #44]	; 0x2c
   81e48:	62c3      	str	r3, [r0, #44]	; 0x2c
   81e4a:	bd38      	pop	{r3, r4, r5, pc}
   81e4c:	4770      	bx	lr
   81e4e:	bf00      	nop
   81e50:	20078cb4 	.word	0x20078cb4
   81e54:	20078bd4 	.word	0x20078bd4
   81e58:	00080ca1 	.word	0x00080ca1
   81e5c:	20078bd0 	.word	0x20078bd0
   81e60:	00080c41 	.word	0x00080c41

00081e64 <vTaskPriorityDisinherit>:

	void vTaskPriorityDisinherit( xTaskHandle * const pxMutexHolder )
	{
	tskTCB * const pxTCB = ( tskTCB * ) pxMutexHolder;

		if( pxMutexHolder != NULL )
   81e64:	b1e8      	cbz	r0, 81ea2 <vTaskPriorityDisinherit+0x3e>
/*-----------------------------------------------------------*/

#if ( configUSE_MUTEXES == 1 )

	void vTaskPriorityDisinherit( xTaskHandle * const pxMutexHolder )
	{
   81e66:	b538      	push	{r3, r4, r5, lr}
	tskTCB * const pxTCB = ( tskTCB * ) pxMutexHolder;

		if( pxMutexHolder != NULL )
		{
			if( pxTCB->uxPriority != pxTCB->uxBasePriority )
   81e68:	6ac1      	ldr	r1, [r0, #44]	; 0x2c
   81e6a:	6cc2      	ldr	r2, [r0, #76]	; 0x4c
   81e6c:	4291      	cmp	r1, r2
   81e6e:	d017      	beq.n	81ea0 <vTaskPriorityDisinherit+0x3c>
   81e70:	4604      	mov	r4, r0
			{
				/* We must be the running task to be able to give the mutex back.
				Remove ourselves from the ready list we currently appear in. */
				if( uxListRemove( ( xListItem * ) &( pxTCB->xGenericListItem ) ) == 0 )
   81e72:	1d05      	adds	r5, r0, #4
   81e74:	4628      	mov	r0, r5
   81e76:	4b0b      	ldr	r3, [pc, #44]	; (81ea4 <vTaskPriorityDisinherit+0x40>)
   81e78:	4798      	blx	r3
				}

				/* Disinherit the priority before adding the task into the new
				ready list. */
				traceTASK_PRIORITY_DISINHERIT( pxTCB, pxTCB->uxBasePriority );
				pxTCB->uxPriority = pxTCB->uxBasePriority;
   81e7a:	6ce0      	ldr	r0, [r4, #76]	; 0x4c
   81e7c:	62e0      	str	r0, [r4, #44]	; 0x2c
				listSET_LIST_ITEM_VALUE( &( pxTCB->xEventListItem ), configMAX_PRIORITIES - ( portTickType ) pxTCB->uxPriority );
   81e7e:	f1c0 030a 	rsb	r3, r0, #10
   81e82:	8323      	strh	r3, [r4, #24]
				prvAddTaskToReadyQueue( pxTCB );
   81e84:	4b08      	ldr	r3, [pc, #32]	; (81ea8 <vTaskPriorityDisinherit+0x44>)
   81e86:	681b      	ldr	r3, [r3, #0]
   81e88:	4298      	cmp	r0, r3
   81e8a:	bf84      	itt	hi
   81e8c:	4b06      	ldrhi	r3, [pc, #24]	; (81ea8 <vTaskPriorityDisinherit+0x44>)
   81e8e:	6018      	strhi	r0, [r3, #0]
   81e90:	eb00 0080 	add.w	r0, r0, r0, lsl #2
   81e94:	4b05      	ldr	r3, [pc, #20]	; (81eac <vTaskPriorityDisinherit+0x48>)
   81e96:	eb03 0080 	add.w	r0, r3, r0, lsl #2
   81e9a:	4629      	mov	r1, r5
   81e9c:	4b04      	ldr	r3, [pc, #16]	; (81eb0 <vTaskPriorityDisinherit+0x4c>)
   81e9e:	4798      	blx	r3
   81ea0:	bd38      	pop	{r3, r4, r5, pc}
   81ea2:	4770      	bx	lr
   81ea4:	00080ca1 	.word	0x00080ca1
   81ea8:	20078bd0 	.word	0x20078bd0
   81eac:	20078bd4 	.word	0x20078bd4
   81eb0:	00080c41 	.word	0x00080c41

00081eb4 <prvInsertTimerInActiveList>:
	return xTimeNow;
}
/*-----------------------------------------------------------*/

static portBASE_TYPE prvInsertTimerInActiveList( xTIMER *pxTimer, portTickType xNextExpiryTime, portTickType xTimeNow, portTickType xCommandTime )
{
   81eb4:	b510      	push	{r4, lr}
   81eb6:	4604      	mov	r4, r0
portBASE_TYPE xProcessTimerNow = pdFALSE;

	listSET_LIST_ITEM_VALUE( &( pxTimer->xTimerListItem ), xNextExpiryTime );
   81eb8:	8081      	strh	r1, [r0, #4]
	listSET_LIST_ITEM_OWNER( &( pxTimer->xTimerListItem ), pxTimer );
   81eba:	6120      	str	r0, [r4, #16]

	if( xNextExpiryTime <= xTimeNow )
   81ebc:	4291      	cmp	r1, r2
   81ebe:	d80b      	bhi.n	81ed8 <prvInsertTimerInActiveList+0x24>
	{
		/* Has the expiry time elapsed between the command to start/reset a
		timer was issued, and the time the command was processed? */
		if( ( ( portTickType ) ( xTimeNow - xCommandTime ) ) >= pxTimer->xTimerPeriodInTicks )
   81ec0:	1ad2      	subs	r2, r2, r3
   81ec2:	8b03      	ldrh	r3, [r0, #24]
   81ec4:	b292      	uxth	r2, r2
   81ec6:	4293      	cmp	r3, r2
   81ec8:	d911      	bls.n	81eee <prvInsertTimerInActiveList+0x3a>
			processed actually exceeds the timers period.  */
			xProcessTimerNow = pdTRUE;
		}
		else
		{
			vListInsert( pxOverflowTimerList, &( pxTimer->xTimerListItem ) );
   81eca:	4b0b      	ldr	r3, [pc, #44]	; (81ef8 <prvInsertTimerInActiveList+0x44>)
   81ecc:	6818      	ldr	r0, [r3, #0]
   81ece:	1d21      	adds	r1, r4, #4
   81ed0:	4b0a      	ldr	r3, [pc, #40]	; (81efc <prvInsertTimerInActiveList+0x48>)
   81ed2:	4798      	blx	r3
}
/*-----------------------------------------------------------*/

static portBASE_TYPE prvInsertTimerInActiveList( xTIMER *pxTimer, portTickType xNextExpiryTime, portTickType xTimeNow, portTickType xCommandTime )
{
portBASE_TYPE xProcessTimerNow = pdFALSE;
   81ed4:	2000      	movs	r0, #0
   81ed6:	bd10      	pop	{r4, pc}
			vListInsert( pxOverflowTimerList, &( pxTimer->xTimerListItem ) );
		}
	}
	else
	{
		if( ( xTimeNow < xCommandTime ) && ( xNextExpiryTime >= xCommandTime ) )
   81ed8:	429a      	cmp	r2, r3
   81eda:	d201      	bcs.n	81ee0 <prvInsertTimerInActiveList+0x2c>
   81edc:	4299      	cmp	r1, r3
   81ede:	d208      	bcs.n	81ef2 <prvInsertTimerInActiveList+0x3e>
			its expiry time and should be processed immediately. */
			xProcessTimerNow = pdTRUE;
		}
		else
		{
			vListInsert( pxCurrentTimerList, &( pxTimer->xTimerListItem ) );
   81ee0:	4b07      	ldr	r3, [pc, #28]	; (81f00 <prvInsertTimerInActiveList+0x4c>)
   81ee2:	6818      	ldr	r0, [r3, #0]
   81ee4:	1d21      	adds	r1, r4, #4
   81ee6:	4b05      	ldr	r3, [pc, #20]	; (81efc <prvInsertTimerInActiveList+0x48>)
   81ee8:	4798      	blx	r3
}
/*-----------------------------------------------------------*/

static portBASE_TYPE prvInsertTimerInActiveList( xTIMER *pxTimer, portTickType xNextExpiryTime, portTickType xTimeNow, portTickType xCommandTime )
{
portBASE_TYPE xProcessTimerNow = pdFALSE;
   81eea:	2000      	movs	r0, #0
   81eec:	bd10      	pop	{r4, pc}
		timer was issued, and the time the command was processed? */
		if( ( ( portTickType ) ( xTimeNow - xCommandTime ) ) >= pxTimer->xTimerPeriodInTicks )
		{
			/* The time between a command being issued and the command being
			processed actually exceeds the timers period.  */
			xProcessTimerNow = pdTRUE;
   81eee:	2001      	movs	r0, #1
   81ef0:	bd10      	pop	{r4, pc}
		if( ( xTimeNow < xCommandTime ) && ( xNextExpiryTime >= xCommandTime ) )
		{
			/* If, since the command was issued, the tick count has overflowed
			but the expiry time has not, then the timer must have already passed
			its expiry time and should be processed immediately. */
			xProcessTimerNow = pdTRUE;
   81ef2:	2001      	movs	r0, #1
			vListInsert( pxCurrentTimerList, &( pxTimer->xTimerListItem ) );
		}
	}

	return xProcessTimerNow;
}
   81ef4:	bd10      	pop	{r4, pc}
   81ef6:	bf00      	nop
   81ef8:	20078d1c 	.word	0x20078d1c
   81efc:	00080c5d 	.word	0x00080c5d
   81f00:	20078ce8 	.word	0x20078ce8

00081f04 <prvCheckForValidListAndQueue>:
	pxOverflowTimerList = pxTemp;
}
/*-----------------------------------------------------------*/

static void prvCheckForValidListAndQueue( void )
{
   81f04:	b570      	push	{r4, r5, r6, lr}
	/* Check that the list from which active timers are referenced, and the
	queue used to communicate with the timer service, have been
	initialised. */
	taskENTER_CRITICAL();
   81f06:	4b0d      	ldr	r3, [pc, #52]	; (81f3c <prvCheckForValidListAndQueue+0x38>)
   81f08:	4798      	blx	r3
	{
		if( xTimerQueue == NULL )
   81f0a:	4b0d      	ldr	r3, [pc, #52]	; (81f40 <prvCheckForValidListAndQueue+0x3c>)
   81f0c:	681b      	ldr	r3, [r3, #0]
   81f0e:	b98b      	cbnz	r3, 81f34 <prvCheckForValidListAndQueue+0x30>
		{
			vListInitialise( &xActiveTimerList1 );
   81f10:	4d0c      	ldr	r5, [pc, #48]	; (81f44 <prvCheckForValidListAndQueue+0x40>)
   81f12:	4628      	mov	r0, r5
   81f14:	4e0c      	ldr	r6, [pc, #48]	; (81f48 <prvCheckForValidListAndQueue+0x44>)
   81f16:	47b0      	blx	r6
			vListInitialise( &xActiveTimerList2 );
   81f18:	4c0c      	ldr	r4, [pc, #48]	; (81f4c <prvCheckForValidListAndQueue+0x48>)
   81f1a:	4620      	mov	r0, r4
   81f1c:	47b0      	blx	r6
			pxCurrentTimerList = &xActiveTimerList1;
   81f1e:	4b0c      	ldr	r3, [pc, #48]	; (81f50 <prvCheckForValidListAndQueue+0x4c>)
   81f20:	601d      	str	r5, [r3, #0]
			pxOverflowTimerList = &xActiveTimerList2;
   81f22:	4b0c      	ldr	r3, [pc, #48]	; (81f54 <prvCheckForValidListAndQueue+0x50>)
   81f24:	601c      	str	r4, [r3, #0]
			xTimerQueue = xQueueCreate( ( unsigned portBASE_TYPE ) configTIMER_QUEUE_LENGTH, sizeof( xTIMER_MESSAGE ) );
   81f26:	2005      	movs	r0, #5
   81f28:	210c      	movs	r1, #12
   81f2a:	2200      	movs	r2, #0
   81f2c:	4b0a      	ldr	r3, [pc, #40]	; (81f58 <prvCheckForValidListAndQueue+0x54>)
   81f2e:	4798      	blx	r3
   81f30:	4b03      	ldr	r3, [pc, #12]	; (81f40 <prvCheckForValidListAndQueue+0x3c>)
   81f32:	6018      	str	r0, [r3, #0]
		}
	}
	taskEXIT_CRITICAL();
   81f34:	4b09      	ldr	r3, [pc, #36]	; (81f5c <prvCheckForValidListAndQueue+0x58>)
   81f36:	4798      	blx	r3
   81f38:	bd70      	pop	{r4, r5, r6, pc}
   81f3a:	bf00      	nop
   81f3c:	00080d39 	.word	0x00080d39
   81f40:	20078d18 	.word	0x20078d18
   81f44:	20078cec 	.word	0x20078cec
   81f48:	00080c21 	.word	0x00080c21
   81f4c:	20078d00 	.word	0x20078d00
   81f50:	20078ce8 	.word	0x20078ce8
   81f54:	20078d1c 	.word	0x20078d1c
   81f58:	0008111d 	.word	0x0008111d
   81f5c:	00080d59 	.word	0x00080d59

00081f60 <xTimerCreateTimerTask>:
static void prvProcessTimerOrBlockTask( portTickType xNextExpireTime, portBASE_TYPE xListWasEmpty ) PRIVILEGED_FUNCTION;

/*-----------------------------------------------------------*/

portBASE_TYPE xTimerCreateTimerTask( void )
{
   81f60:	b510      	push	{r4, lr}
   81f62:	b084      	sub	sp, #16

	/* This function is called when the scheduler is started if
	configUSE_TIMERS is set to 1.  Check that the infrastructure used by the
	timer service task has been created/initialised.  If timers have already
	been created then the initialisation will already have been performed. */
	prvCheckForValidListAndQueue();
   81f64:	4b0b      	ldr	r3, [pc, #44]	; (81f94 <xTimerCreateTimerTask+0x34>)
   81f66:	4798      	blx	r3

	if( xTimerQueue != NULL )
   81f68:	4b0b      	ldr	r3, [pc, #44]	; (81f98 <xTimerCreateTimerTask+0x38>)
   81f6a:	681b      	ldr	r3, [r3, #0]
   81f6c:	b163      	cbz	r3, 81f88 <xTimerCreateTimerTask+0x28>
			xReturn = xTaskCreate( prvTimerTask, ( const signed char * ) "Tmr Svc", ( unsigned short ) configTIMER_TASK_STACK_DEPTH, NULL, ( ( unsigned portBASE_TYPE ) configTIMER_TASK_PRIORITY ) | portPRIVILEGE_BIT, &xTimerTaskHandle );
		}
		#else
		{
			/* Create the timer task without storing its handle. */
			xReturn = xTaskCreate( prvTimerTask, ( const signed char * ) "Tmr Svc", ( unsigned short ) configTIMER_TASK_STACK_DEPTH, NULL, ( ( unsigned portBASE_TYPE ) configTIMER_TASK_PRIORITY ) | portPRIVILEGE_BIT, NULL);
   81f6e:	2309      	movs	r3, #9
   81f70:	9300      	str	r3, [sp, #0]
   81f72:	2300      	movs	r3, #0
   81f74:	9301      	str	r3, [sp, #4]
   81f76:	9302      	str	r3, [sp, #8]
   81f78:	9303      	str	r3, [sp, #12]
   81f7a:	4808      	ldr	r0, [pc, #32]	; (81f9c <xTimerCreateTimerTask+0x3c>)
   81f7c:	4908      	ldr	r1, [pc, #32]	; (81fa0 <xTimerCreateTimerTask+0x40>)
   81f7e:	f44f 7200 	mov.w	r2, #512	; 0x200
   81f82:	4c08      	ldr	r4, [pc, #32]	; (81fa4 <xTimerCreateTimerTask+0x44>)
   81f84:	47a0      	blx	r4
		}
		#endif
	}

	configASSERT( xReturn );
   81f86:	b918      	cbnz	r0, 81f90 <xTimerCreateTimerTask+0x30>
   81f88:	4b07      	ldr	r3, [pc, #28]	; (81fa8 <xTimerCreateTimerTask+0x48>)
   81f8a:	4798      	blx	r3
   81f8c:	bf00      	nop
   81f8e:	e7fd      	b.n	81f8c <xTimerCreateTimerTask+0x2c>
	return xReturn;
}
   81f90:	b004      	add	sp, #16
   81f92:	bd10      	pop	{r4, pc}
   81f94:	00081f05 	.word	0x00081f05
   81f98:	20078d18 	.word	0x20078d18
   81f9c:	000820bd 	.word	0x000820bd
   81fa0:	000867f4 	.word	0x000867f4
   81fa4:	00081539 	.word	0x00081539
   81fa8:	00080d29 	.word	0x00080d29

00081fac <xTimerGenericCommand>:
	return ( xTimerHandle ) pxNewTimer;
}
/*-----------------------------------------------------------*/

portBASE_TYPE xTimerGenericCommand( xTimerHandle xTimer, portBASE_TYPE xCommandID, portTickType xOptionalValue, signed portBASE_TYPE *pxHigherPriorityTaskWoken, portTickType xBlockTime )
{
   81fac:	b510      	push	{r4, lr}
   81fae:	b084      	sub	sp, #16
portBASE_TYPE xReturn = pdFAIL;
xTIMER_MESSAGE xMessage;

	/* Send a message to the timer service task to perform a particular action
	on a particular timer definition. */
	if( xTimerQueue != NULL )
   81fb0:	4c10      	ldr	r4, [pc, #64]	; (81ff4 <xTimerGenericCommand+0x48>)
   81fb2:	6824      	ldr	r4, [r4, #0]
   81fb4:	b1d4      	cbz	r4, 81fec <xTimerGenericCommand+0x40>
	{
		/* Send a command to the timer service task to start the xTimer timer. */
		xMessage.xMessageID = xCommandID;
   81fb6:	9101      	str	r1, [sp, #4]
		xMessage.xMessageValue = xOptionalValue;
   81fb8:	f8ad 2008 	strh.w	r2, [sp, #8]
		xMessage.pxTimer = ( xTIMER * ) xTimer;
   81fbc:	9003      	str	r0, [sp, #12]

		if( pxHigherPriorityTaskWoken == NULL )
   81fbe:	b973      	cbnz	r3, 81fde <xTimerGenericCommand+0x32>
		{
			if( xTaskGetSchedulerState() == taskSCHEDULER_RUNNING )
   81fc0:	4b0d      	ldr	r3, [pc, #52]	; (81ff8 <xTimerGenericCommand+0x4c>)
   81fc2:	4798      	blx	r3
   81fc4:	2801      	cmp	r0, #1
			{
				xReturn = xQueueSendToBack( xTimerQueue, &xMessage, xBlockTime );
   81fc6:	4b0b      	ldr	r3, [pc, #44]	; (81ff4 <xTimerGenericCommand+0x48>)
   81fc8:	6818      	ldr	r0, [r3, #0]
   81fca:	a901      	add	r1, sp, #4
   81fcc:	bf07      	ittee	eq
   81fce:	f8bd 2018 	ldrheq.w	r2, [sp, #24]
   81fd2:	2300      	moveq	r3, #0
			}
			else
			{
				xReturn = xQueueSendToBack( xTimerQueue, &xMessage, tmrNO_DELAY );
   81fd4:	2200      	movne	r2, #0
   81fd6:	4613      	movne	r3, r2
   81fd8:	4c08      	ldr	r4, [pc, #32]	; (81ffc <xTimerGenericCommand+0x50>)
   81fda:	47a0      	blx	r4
   81fdc:	e007      	b.n	81fee <xTimerGenericCommand+0x42>
			}
		}
		else
		{
			xReturn = xQueueSendToBackFromISR( xTimerQueue, &xMessage, pxHigherPriorityTaskWoken );
   81fde:	4620      	mov	r0, r4
   81fe0:	a901      	add	r1, sp, #4
   81fe2:	461a      	mov	r2, r3
   81fe4:	2300      	movs	r3, #0
   81fe6:	4c06      	ldr	r4, [pc, #24]	; (82000 <xTimerGenericCommand+0x54>)
   81fe8:	47a0      	blx	r4
   81fea:	e000      	b.n	81fee <xTimerGenericCommand+0x42>
}
/*-----------------------------------------------------------*/

portBASE_TYPE xTimerGenericCommand( xTimerHandle xTimer, portBASE_TYPE xCommandID, portTickType xOptionalValue, signed portBASE_TYPE *pxHigherPriorityTaskWoken, portTickType xBlockTime )
{
portBASE_TYPE xReturn = pdFAIL;
   81fec:	2000      	movs	r0, #0

		traceTIMER_COMMAND_SEND( xTimer, xCommandID, xOptionalValue, xReturn );
	}

	return xReturn;
}
   81fee:	b004      	add	sp, #16
   81ff0:	bd10      	pop	{r4, pc}
   81ff2:	bf00      	nop
   81ff4:	20078d18 	.word	0x20078d18
   81ff8:	00081dc5 	.word	0x00081dc5
   81ffc:	00081175 	.word	0x00081175
   82000:	0008129d 	.word	0x0008129d

00082004 <prvSampleTimeNow>:
	return xNextExpireTime;
}
/*-----------------------------------------------------------*/

static portTickType prvSampleTimeNow( portBASE_TYPE *pxTimerListsWereSwitched )
{
   82004:	e92d 47f0 	stmdb	sp!, {r4, r5, r6, r7, r8, r9, sl, lr}
   82008:	b082      	sub	sp, #8
   8200a:	4681      	mov	r9, r0
portTickType xTimeNow;
PRIVILEGED_DATA static portTickType xLastTime = ( portTickType ) 0U;

	xTimeNow = xTaskGetTickCount();
   8200c:	4b23      	ldr	r3, [pc, #140]	; (8209c <prvSampleTimeNow+0x98>)
   8200e:	4798      	blx	r3
   82010:	4680      	mov	r8, r0

	if( xTimeNow < xLastTime )
   82012:	4b23      	ldr	r3, [pc, #140]	; (820a0 <prvSampleTimeNow+0x9c>)
   82014:	881b      	ldrh	r3, [r3, #0]
   82016:	4283      	cmp	r3, r0
   82018:	d936      	bls.n	82088 <prvSampleTimeNow+0x84>
   8201a:	e026      	b.n	8206a <prvSampleTimeNow+0x66>
	If there are any timers still referenced from the current timer list
	then they must have expired and should be processed before the lists
	are switched. */
	while( listLIST_IS_EMPTY( pxCurrentTimerList ) == pdFALSE )
	{
		xNextExpireTime = listGET_ITEM_VALUE_OF_HEAD_ENTRY( pxCurrentTimerList );
   8201c:	68da      	ldr	r2, [r3, #12]
   8201e:	8815      	ldrh	r5, [r2, #0]
   82020:	b2ad      	uxth	r5, r5

		/* Remove the timer from the list. */
		pxTimer = ( xTIMER * ) listGET_OWNER_OF_HEAD_ENTRY( pxCurrentTimerList );
   82022:	68db      	ldr	r3, [r3, #12]
   82024:	68dc      	ldr	r4, [r3, #12]
		uxListRemove( &( pxTimer->xTimerListItem ) );
   82026:	f104 0a04 	add.w	sl, r4, #4
   8202a:	4650      	mov	r0, sl
   8202c:	47b8      	blx	r7

		/* Execute its callback, then send a command to restart the timer if
		it is an auto-reload timer.  It cannot be restarted here as the lists
		have not yet been switched. */
		pxTimer->pxCallbackFunction( ( xTimerHandle ) pxTimer );
   8202e:	6a63      	ldr	r3, [r4, #36]	; 0x24
   82030:	4620      	mov	r0, r4
   82032:	4798      	blx	r3

		if( pxTimer->uxAutoReload == ( unsigned portBASE_TYPE ) pdTRUE )
   82034:	69e3      	ldr	r3, [r4, #28]
   82036:	2b01      	cmp	r3, #1
   82038:	d119      	bne.n	8206e <prvSampleTimeNow+0x6a>
			the timer going into the same timer list then it has already expired
			and the timer should be re-inserted into the current list so it is
			processed again within this loop.  Otherwise a command should be sent
			to restart the timer to ensure it is only inserted into a list after
			the lists have been swapped. */
			xReloadTime = ( xNextExpireTime + pxTimer->xTimerPeriodInTicks );
   8203a:	8b23      	ldrh	r3, [r4, #24]
   8203c:	442b      	add	r3, r5
   8203e:	b29b      	uxth	r3, r3
			if( xReloadTime > xNextExpireTime )
   82040:	42ab      	cmp	r3, r5
   82042:	d906      	bls.n	82052 <prvSampleTimeNow+0x4e>
			{
				listSET_LIST_ITEM_VALUE( &( pxTimer->xTimerListItem ), xReloadTime );
   82044:	80a3      	strh	r3, [r4, #4]
				listSET_LIST_ITEM_OWNER( &( pxTimer->xTimerListItem ), pxTimer );
   82046:	6124      	str	r4, [r4, #16]
				vListInsert( pxCurrentTimerList, &( pxTimer->xTimerListItem ) );
   82048:	6830      	ldr	r0, [r6, #0]
   8204a:	4651      	mov	r1, sl
   8204c:	4b15      	ldr	r3, [pc, #84]	; (820a4 <prvSampleTimeNow+0xa0>)
   8204e:	4798      	blx	r3
   82050:	e00d      	b.n	8206e <prvSampleTimeNow+0x6a>
			}
			else
			{
				xResult = xTimerGenericCommand( pxTimer, tmrCOMMAND_START, xNextExpireTime, NULL, tmrNO_DELAY );
   82052:	2300      	movs	r3, #0
   82054:	9300      	str	r3, [sp, #0]
   82056:	4620      	mov	r0, r4
   82058:	4619      	mov	r1, r3
   8205a:	462a      	mov	r2, r5
   8205c:	4c12      	ldr	r4, [pc, #72]	; (820a8 <prvSampleTimeNow+0xa4>)
   8205e:	47a0      	blx	r4
				configASSERT( xResult );
   82060:	b928      	cbnz	r0, 8206e <prvSampleTimeNow+0x6a>
   82062:	4b12      	ldr	r3, [pc, #72]	; (820ac <prvSampleTimeNow+0xa8>)
   82064:	4798      	blx	r3
   82066:	bf00      	nop
   82068:	e7fd      	b.n	82066 <prvSampleTimeNow+0x62>

	/* The tick count has overflowed.  The timer lists must be switched.
	If there are any timers still referenced from the current timer list
	then they must have expired and should be processed before the lists
	are switched. */
	while( listLIST_IS_EMPTY( pxCurrentTimerList ) == pdFALSE )
   8206a:	4e11      	ldr	r6, [pc, #68]	; (820b0 <prvSampleTimeNow+0xac>)
	{
		xNextExpireTime = listGET_ITEM_VALUE_OF_HEAD_ENTRY( pxCurrentTimerList );

		/* Remove the timer from the list. */
		pxTimer = ( xTIMER * ) listGET_OWNER_OF_HEAD_ENTRY( pxCurrentTimerList );
		uxListRemove( &( pxTimer->xTimerListItem ) );
   8206c:	4f11      	ldr	r7, [pc, #68]	; (820b4 <prvSampleTimeNow+0xb0>)

	/* The tick count has overflowed.  The timer lists must be switched.
	If there are any timers still referenced from the current timer list
	then they must have expired and should be processed before the lists
	are switched. */
	while( listLIST_IS_EMPTY( pxCurrentTimerList ) == pdFALSE )
   8206e:	6833      	ldr	r3, [r6, #0]
   82070:	681a      	ldr	r2, [r3, #0]
   82072:	2a00      	cmp	r2, #0
   82074:	d1d2      	bne.n	8201c <prvSampleTimeNow+0x18>
			}
		}
	}

	pxTemp = pxCurrentTimerList;
	pxCurrentTimerList = pxOverflowTimerList;
   82076:	4a10      	ldr	r2, [pc, #64]	; (820b8 <prvSampleTimeNow+0xb4>)
   82078:	6810      	ldr	r0, [r2, #0]
   8207a:	490d      	ldr	r1, [pc, #52]	; (820b0 <prvSampleTimeNow+0xac>)
   8207c:	6008      	str	r0, [r1, #0]
	pxOverflowTimerList = pxTemp;
   8207e:	6013      	str	r3, [r2, #0]
	xTimeNow = xTaskGetTickCount();

	if( xTimeNow < xLastTime )
	{
		prvSwitchTimerLists( xLastTime );
		*pxTimerListsWereSwitched = pdTRUE;
   82080:	2301      	movs	r3, #1
   82082:	f8c9 3000 	str.w	r3, [r9]
   82086:	e002      	b.n	8208e <prvSampleTimeNow+0x8a>
	}
	else
	{
		*pxTimerListsWereSwitched = pdFALSE;
   82088:	2300      	movs	r3, #0
   8208a:	f8c9 3000 	str.w	r3, [r9]
	}

	xLastTime = xTimeNow;
   8208e:	4b04      	ldr	r3, [pc, #16]	; (820a0 <prvSampleTimeNow+0x9c>)
   82090:	f8a3 8000 	strh.w	r8, [r3]

	return xTimeNow;
}
   82094:	4640      	mov	r0, r8
   82096:	b002      	add	sp, #8
   82098:	e8bd 87f0 	ldmia.w	sp!, {r4, r5, r6, r7, r8, r9, sl, pc}
   8209c:	000817b9 	.word	0x000817b9
   820a0:	20078d14 	.word	0x20078d14
   820a4:	00080c5d 	.word	0x00080c5d
   820a8:	00081fad 	.word	0x00081fad
   820ac:	00080d29 	.word	0x00080d29
   820b0:	20078ce8 	.word	0x20078ce8
   820b4:	00080ca1 	.word	0x00080ca1
   820b8:	20078d1c 	.word	0x20078d1c

000820bc <prvTimerTask>:
	pxTimer->pxCallbackFunction( ( xTimerHandle ) pxTimer );
}
/*-----------------------------------------------------------*/

static void prvTimerTask( void *pvParameters )
{
   820bc:	e92d 43f0 	stmdb	sp!, {r4, r5, r6, r7, r8, r9, lr}
   820c0:	b087      	sub	sp, #28
				time has not been reached yet.  This task should therefore
				block to wait for the next expire time or a command to be
				received - whichever comes first.  The following line cannot
				be reached unless xNextExpireTime > xTimeNow, except in the
				case when the current timer list is empty. */
				vQueueWaitForMessageRestricted( xTimerQueue, ( xNextExpireTime - xTimeNow ) );
   820c2:	4d51      	ldr	r5, [pc, #324]	; (82208 <prvTimerTask+0x14c>)
portBASE_TYPE xResult;

	/* Remove the timer from the list of active timers.  A check has already
	been performed to ensure the list is not empty. */
	pxTimer = ( xTIMER * ) listGET_OWNER_OF_HEAD_ENTRY( pxCurrentTimerList );
	uxListRemove( &( pxTimer->xTimerListItem ) );
   820c4:	f8df 8170 	ldr.w	r8, [pc, #368]	; 82238 <prvTimerTask+0x17c>
	the timer with the nearest expiry time will expire.  If there are no
	active timers then just set the next expire time to 0.  That will cause
	this task to unblock when the tick count overflows, at which point the
	timer lists will be switched and the next expiry time can be
	re-assessed.  */
	*pxListWasEmpty = listLIST_IS_EMPTY( pxCurrentTimerList );
   820c8:	4b50      	ldr	r3, [pc, #320]	; (8220c <prvTimerTask+0x150>)
   820ca:	681b      	ldr	r3, [r3, #0]
   820cc:	681a      	ldr	r2, [r3, #0]
	if( *pxListWasEmpty == pdFALSE )
   820ce:	2a00      	cmp	r2, #0
   820d0:	f000 8090 	beq.w	821f4 <prvTimerTask+0x138>
	{
		xNextExpireTime = listGET_ITEM_VALUE_OF_HEAD_ENTRY( pxCurrentTimerList );
   820d4:	68db      	ldr	r3, [r3, #12]
   820d6:	881c      	ldrh	r4, [r3, #0]
   820d8:	b2a4      	uxth	r4, r4
static void prvProcessTimerOrBlockTask( portTickType xNextExpireTime, portBASE_TYPE xListWasEmpty )
{
portTickType xTimeNow;
portBASE_TYPE xTimerListsWereSwitched;

	vTaskSuspendAll();
   820da:	4b4d      	ldr	r3, [pc, #308]	; (82210 <prvTimerTask+0x154>)
   820dc:	4798      	blx	r3
		/* Obtain the time now to make an assessment as to whether the timer
		has expired or not.  If obtaining the time causes the lists to switch
		then don't process this timer as any timers that remained in the list
		when the lists were switched will have been processed within the
		prvSampelTimeNow() function. */
		xTimeNow = prvSampleTimeNow( &xTimerListsWereSwitched );
   820de:	a803      	add	r0, sp, #12
   820e0:	4b4c      	ldr	r3, [pc, #304]	; (82214 <prvTimerTask+0x158>)
   820e2:	4798      	blx	r3
   820e4:	4607      	mov	r7, r0
		if( xTimerListsWereSwitched == pdFALSE )
   820e6:	9b03      	ldr	r3, [sp, #12]
   820e8:	2b00      	cmp	r3, #0
   820ea:	d132      	bne.n	82152 <prvTimerTask+0x96>
		{
			/* The tick count has not overflowed, has the timer expired? */
			if( ( xListWasEmpty == pdFALSE ) && ( xNextExpireTime <= xTimeNow ) )
   820ec:	4284      	cmp	r4, r0
   820ee:	d825      	bhi.n	8213c <prvTimerTask+0x80>
			{
				xTaskResumeAll();
   820f0:	4b49      	ldr	r3, [pc, #292]	; (82218 <prvTimerTask+0x15c>)
   820f2:	4798      	blx	r3
xTIMER *pxTimer;
portBASE_TYPE xResult;

	/* Remove the timer from the list of active timers.  A check has already
	been performed to ensure the list is not empty. */
	pxTimer = ( xTIMER * ) listGET_OWNER_OF_HEAD_ENTRY( pxCurrentTimerList );
   820f4:	4b45      	ldr	r3, [pc, #276]	; (8220c <prvTimerTask+0x150>)
   820f6:	681b      	ldr	r3, [r3, #0]
   820f8:	68db      	ldr	r3, [r3, #12]
   820fa:	68de      	ldr	r6, [r3, #12]
	uxListRemove( &( pxTimer->xTimerListItem ) );
   820fc:	1d30      	adds	r0, r6, #4
   820fe:	47c0      	blx	r8
	traceTIMER_EXPIRED( pxTimer );

	/* If the timer is an auto reload timer then calculate the next
	expiry time and re-insert the timer in the list of active timers. */
	if( pxTimer->uxAutoReload == ( unsigned portBASE_TYPE ) pdTRUE )
   82100:	69f3      	ldr	r3, [r6, #28]
   82102:	2b01      	cmp	r3, #1
   82104:	d115      	bne.n	82132 <prvTimerTask+0x76>
		a time relative to anything other than the current time.  It
		will therefore be inserted into the correct list relative to
		the time this task thinks it is now, even if a command to
		switch lists due to a tick count overflow is already waiting in
		the timer queue. */
		if( prvInsertTimerInActiveList( pxTimer, ( xNextExpireTime + pxTimer->xTimerPeriodInTicks ), xTimeNow, xNextExpireTime ) == pdTRUE )
   82106:	8b31      	ldrh	r1, [r6, #24]
   82108:	4421      	add	r1, r4
   8210a:	4630      	mov	r0, r6
   8210c:	b289      	uxth	r1, r1
   8210e:	463a      	mov	r2, r7
   82110:	4623      	mov	r3, r4
   82112:	4f42      	ldr	r7, [pc, #264]	; (8221c <prvTimerTask+0x160>)
   82114:	47b8      	blx	r7
   82116:	2801      	cmp	r0, #1
   82118:	d10b      	bne.n	82132 <prvTimerTask+0x76>
		{
			/* The timer expired before it was added to the active timer
			list.  Reload it now.  */
			xResult = xTimerGenericCommand( pxTimer, tmrCOMMAND_START, xNextExpireTime, NULL, tmrNO_DELAY );
   8211a:	2300      	movs	r3, #0
   8211c:	9300      	str	r3, [sp, #0]
   8211e:	4630      	mov	r0, r6
   82120:	4619      	mov	r1, r3
   82122:	4622      	mov	r2, r4
   82124:	4c3e      	ldr	r4, [pc, #248]	; (82220 <prvTimerTask+0x164>)
   82126:	47a0      	blx	r4
			configASSERT( xResult );
   82128:	b918      	cbnz	r0, 82132 <prvTimerTask+0x76>
   8212a:	4b3e      	ldr	r3, [pc, #248]	; (82224 <prvTimerTask+0x168>)
   8212c:	4798      	blx	r3
   8212e:	bf00      	nop
   82130:	e7fd      	b.n	8212e <prvTimerTask+0x72>
			( void ) xResult;
		}
	}

	/* Call the timer callback. */
	pxTimer->pxCallbackFunction( ( xTimerHandle ) pxTimer );
   82132:	6a73      	ldr	r3, [r6, #36]	; 0x24
   82134:	4630      	mov	r0, r6
   82136:	4798      	blx	r3
   82138:	e00d      	b.n	82156 <prvTimerTask+0x9a>
		xNextExpireTime = listGET_ITEM_VALUE_OF_HEAD_ENTRY( pxCurrentTimerList );
	}
	else
	{
		/* Ensure the task unblocks when the tick count rolls over. */
		xNextExpireTime = ( portTickType ) 0U;
   8213a:	2400      	movs	r4, #0
				time has not been reached yet.  This task should therefore
				block to wait for the next expire time or a command to be
				received - whichever comes first.  The following line cannot
				be reached unless xNextExpireTime > xTimeNow, except in the
				case when the current timer list is empty. */
				vQueueWaitForMessageRestricted( xTimerQueue, ( xNextExpireTime - xTimeNow ) );
   8213c:	1be1      	subs	r1, r4, r7
   8213e:	6828      	ldr	r0, [r5, #0]
   82140:	b289      	uxth	r1, r1
   82142:	4b39      	ldr	r3, [pc, #228]	; (82228 <prvTimerTask+0x16c>)
   82144:	4798      	blx	r3

				if( xTaskResumeAll() == pdFALSE )
   82146:	4b34      	ldr	r3, [pc, #208]	; (82218 <prvTimerTask+0x15c>)
   82148:	4798      	blx	r3
   8214a:	b920      	cbnz	r0, 82156 <prvTimerTask+0x9a>
				{
					/* Yield to wait for either a command to arrive, or the block time
					to expire.  If a command arrived between the critical section being
					exited and this yield then the yield will not cause the task
					to block. */
					portYIELD_WITHIN_API();
   8214c:	4b37      	ldr	r3, [pc, #220]	; (8222c <prvTimerTask+0x170>)
   8214e:	4798      	blx	r3
   82150:	e001      	b.n	82156 <prvTimerTask+0x9a>
				}
			}
		}
		else
		{
			xTaskResumeAll();
   82152:	4b31      	ldr	r3, [pc, #196]	; (82218 <prvTimerTask+0x15c>)
   82154:	4798      	blx	r3
portBASE_TYPE xTimerListsWereSwitched, xResult;
portTickType xTimeNow;

	/* In this case the xTimerListsWereSwitched parameter is not used, but it
	must be present in the function call. */
	xTimeNow = prvSampleTimeNow( &xTimerListsWereSwitched );
   82156:	a802      	add	r0, sp, #8
   82158:	4b2e      	ldr	r3, [pc, #184]	; (82214 <prvTimerTask+0x158>)
   8215a:	4798      	blx	r3
   8215c:	4607      	mov	r7, r0

	while( xQueueReceive( xTimerQueue, &xMessage, tmrNO_DELAY ) != pdFAIL )
   8215e:	4e34      	ldr	r6, [pc, #208]	; (82230 <prvTimerTask+0x174>)
				break;

			case tmrCOMMAND_CHANGE_PERIOD :
				pxTimer->xTimerPeriodInTicks = xMessage.xMessageValue;
				configASSERT( ( pxTimer->xTimerPeriodInTicks > 0 ) );
				prvInsertTimerInActiveList( pxTimer, ( xTimeNow + pxTimer->xTimerPeriodInTicks ), xTimeNow, xTimeNow );
   82160:	f8df 90b8 	ldr.w	r9, [pc, #184]	; 8221c <prvTimerTask+0x160>
   82164:	e03e      	b.n	821e4 <prvTimerTask+0x128>
	must be present in the function call. */
	xTimeNow = prvSampleTimeNow( &xTimerListsWereSwitched );

	while( xQueueReceive( xTimerQueue, &xMessage, tmrNO_DELAY ) != pdFAIL )
	{
		pxTimer = xMessage.pxTimer;
   82166:	9c05      	ldr	r4, [sp, #20]

		/* Is the timer already in a list of active timers?  When the command
		is trmCOMMAND_PROCESS_TIMER_OVERFLOW, the timer will be NULL as the
		command is to the task rather than to an individual timer. */
		if( pxTimer != NULL )
   82168:	b11c      	cbz	r4, 82172 <prvTimerTask+0xb6>
		{
			if( listIS_CONTAINED_WITHIN( NULL, &( pxTimer->xTimerListItem ) ) == pdFALSE )
   8216a:	6963      	ldr	r3, [r4, #20]
   8216c:	b10b      	cbz	r3, 82172 <prvTimerTask+0xb6>
			{
				/* The timer is in a list, remove it. */
				uxListRemove( &( pxTimer->xTimerListItem ) );
   8216e:	1d20      	adds	r0, r4, #4
   82170:	47c0      	blx	r8
			}
		}

		traceTIMER_COMMAND_RECEIVED( pxTimer, xMessage.xMessageID, xMessage.xMessageValue );

		switch( xMessage.xMessageID )
   82172:	9b03      	ldr	r3, [sp, #12]
   82174:	2b02      	cmp	r3, #2
   82176:	d023      	beq.n	821c0 <prvTimerTask+0x104>
   82178:	2b03      	cmp	r3, #3
   8217a:	d030      	beq.n	821de <prvTimerTask+0x122>
   8217c:	2b00      	cmp	r3, #0
   8217e:	d131      	bne.n	821e4 <prvTimerTask+0x128>
		{
			case tmrCOMMAND_START :
				/* Start or restart a timer. */
				if( prvInsertTimerInActiveList( pxTimer,  xMessage.xMessageValue + pxTimer->xTimerPeriodInTicks, xTimeNow, xMessage.xMessageValue ) == pdTRUE )
   82180:	f8bd 3010 	ldrh.w	r3, [sp, #16]
   82184:	8b21      	ldrh	r1, [r4, #24]
   82186:	4419      	add	r1, r3
   82188:	4620      	mov	r0, r4
   8218a:	b289      	uxth	r1, r1
   8218c:	463a      	mov	r2, r7
   8218e:	47c8      	blx	r9
   82190:	2801      	cmp	r0, #1
   82192:	d127      	bne.n	821e4 <prvTimerTask+0x128>
				{
					/* The timer expired before it was added to the active timer
					list.  Process it now. */
					pxTimer->pxCallbackFunction( ( xTimerHandle ) pxTimer );
   82194:	6a63      	ldr	r3, [r4, #36]	; 0x24
   82196:	4620      	mov	r0, r4
   82198:	4798      	blx	r3

					if( pxTimer->uxAutoReload == ( unsigned portBASE_TYPE ) pdTRUE )
   8219a:	69e3      	ldr	r3, [r4, #28]
   8219c:	2b01      	cmp	r3, #1
   8219e:	d121      	bne.n	821e4 <prvTimerTask+0x128>
					{
						xResult = xTimerGenericCommand( pxTimer, tmrCOMMAND_START, xMessage.xMessageValue + pxTimer->xTimerPeriodInTicks, NULL, tmrNO_DELAY );
   821a0:	8b22      	ldrh	r2, [r4, #24]
   821a2:	f8bd 3010 	ldrh.w	r3, [sp, #16]
   821a6:	441a      	add	r2, r3
   821a8:	2300      	movs	r3, #0
   821aa:	9300      	str	r3, [sp, #0]
   821ac:	4620      	mov	r0, r4
   821ae:	4619      	mov	r1, r3
   821b0:	b292      	uxth	r2, r2
   821b2:	4c1b      	ldr	r4, [pc, #108]	; (82220 <prvTimerTask+0x164>)
   821b4:	47a0      	blx	r4
						configASSERT( xResult );
   821b6:	b9a8      	cbnz	r0, 821e4 <prvTimerTask+0x128>
   821b8:	4b1a      	ldr	r3, [pc, #104]	; (82224 <prvTimerTask+0x168>)
   821ba:	4798      	blx	r3
   821bc:	bf00      	nop
   821be:	e7fd      	b.n	821bc <prvTimerTask+0x100>
				/* The timer has already been removed from the active list.
				There is nothing to do here. */
				break;

			case tmrCOMMAND_CHANGE_PERIOD :
				pxTimer->xTimerPeriodInTicks = xMessage.xMessageValue;
   821c0:	f8bd 3010 	ldrh.w	r3, [sp, #16]
   821c4:	8323      	strh	r3, [r4, #24]
				configASSERT( ( pxTimer->xTimerPeriodInTicks > 0 ) );
   821c6:	b91b      	cbnz	r3, 821d0 <prvTimerTask+0x114>
   821c8:	4b16      	ldr	r3, [pc, #88]	; (82224 <prvTimerTask+0x168>)
   821ca:	4798      	blx	r3
   821cc:	bf00      	nop
   821ce:	e7fd      	b.n	821cc <prvTimerTask+0x110>
				prvInsertTimerInActiveList( pxTimer, ( xTimeNow + pxTimer->xTimerPeriodInTicks ), xTimeNow, xTimeNow );
   821d0:	18f9      	adds	r1, r7, r3
   821d2:	4620      	mov	r0, r4
   821d4:	b289      	uxth	r1, r1
   821d6:	463a      	mov	r2, r7
   821d8:	463b      	mov	r3, r7
   821da:	47c8      	blx	r9
   821dc:	e002      	b.n	821e4 <prvTimerTask+0x128>
				break;

			case tmrCOMMAND_DELETE :
				/* The timer has already been removed from the active list,
				just free up the memory. */
				vPortFree( pxTimer );
   821de:	4620      	mov	r0, r4
   821e0:	4b14      	ldr	r3, [pc, #80]	; (82234 <prvTimerTask+0x178>)
   821e2:	4798      	blx	r3

	/* In this case the xTimerListsWereSwitched parameter is not used, but it
	must be present in the function call. */
	xTimeNow = prvSampleTimeNow( &xTimerListsWereSwitched );

	while( xQueueReceive( xTimerQueue, &xMessage, tmrNO_DELAY ) != pdFAIL )
   821e4:	6828      	ldr	r0, [r5, #0]
   821e6:	a903      	add	r1, sp, #12
   821e8:	2200      	movs	r2, #0
   821ea:	4613      	mov	r3, r2
   821ec:	47b0      	blx	r6
   821ee:	2800      	cmp	r0, #0
   821f0:	d1b9      	bne.n	82166 <prvTimerTask+0xaa>
   821f2:	e769      	b.n	820c8 <prvTimerTask+0xc>
static void prvProcessTimerOrBlockTask( portTickType xNextExpireTime, portBASE_TYPE xListWasEmpty )
{
portTickType xTimeNow;
portBASE_TYPE xTimerListsWereSwitched;

	vTaskSuspendAll();
   821f4:	4b06      	ldr	r3, [pc, #24]	; (82210 <prvTimerTask+0x154>)
   821f6:	4798      	blx	r3
		/* Obtain the time now to make an assessment as to whether the timer
		has expired or not.  If obtaining the time causes the lists to switch
		then don't process this timer as any timers that remained in the list
		when the lists were switched will have been processed within the
		prvSampelTimeNow() function. */
		xTimeNow = prvSampleTimeNow( &xTimerListsWereSwitched );
   821f8:	a803      	add	r0, sp, #12
   821fa:	4b06      	ldr	r3, [pc, #24]	; (82214 <prvTimerTask+0x158>)
   821fc:	4798      	blx	r3
   821fe:	4607      	mov	r7, r0
		if( xTimerListsWereSwitched == pdFALSE )
   82200:	9b03      	ldr	r3, [sp, #12]
   82202:	2b00      	cmp	r3, #0
   82204:	d099      	beq.n	8213a <prvTimerTask+0x7e>
   82206:	e7a4      	b.n	82152 <prvTimerTask+0x96>
   82208:	20078d18 	.word	0x20078d18
   8220c:	20078ce8 	.word	0x20078ce8
   82210:	000817a9 	.word	0x000817a9
   82214:	00082005 	.word	0x00082005
   82218:	00081905 	.word	0x00081905
   8221c:	00081eb5 	.word	0x00081eb5
   82220:	00081fad 	.word	0x00081fad
   82224:	00080d29 	.word	0x00080d29
   82228:	00081491 	.word	0x00081491
   8222c:	00080d19 	.word	0x00080d19
   82230:	0008132d 	.word	0x0008132d
   82234:	00080f4d 	.word	0x00080f4d
   82238:	00080ca1 	.word	0x00080ca1

0008223c <sysclk_init>:
	pmc_disable_udpck();
}
#endif // CONFIG_USBCLK_SOURCE

void sysclk_init(void)
{
   8223c:	b510      	push	{r4, lr}
	struct pll_config pllcfg;

	/* Set flash wait state to max in case the below clock switching. */
	system_init_flash(CHIP_FREQ_CPU_MAX);
   8223e:	480e      	ldr	r0, [pc, #56]	; (82278 <sysclk_init+0x3c>)
   82240:	4b0e      	ldr	r3, [pc, #56]	; (8227c <sysclk_init+0x40>)
   82242:	4798      	blx	r3
		pmc_switch_mainck_to_fastrc(CKGR_MOR_MOSCRCF_12_MHz);
		break;


	case OSC_MAINCK_XTAL:
		pmc_switch_mainck_to_xtal(PMC_OSC_XTAL,
   82244:	2000      	movs	r0, #0
   82246:	213e      	movs	r1, #62	; 0x3e
   82248:	4b0d      	ldr	r3, [pc, #52]	; (82280 <sysclk_init+0x44>)
   8224a:	4798      	blx	r3
	case OSC_MAINCK_4M_RC:
	case OSC_MAINCK_8M_RC:
	case OSC_MAINCK_12M_RC:
	case OSC_MAINCK_XTAL:
	case OSC_MAINCK_BYPASS:
		return pmc_osc_is_ready_mainck();
   8224c:	4c0d      	ldr	r4, [pc, #52]	; (82284 <sysclk_init+0x48>)
   8224e:	47a0      	blx	r4
 *
 * \param id A number identifying the oscillator to wait for.
 */
static inline void osc_wait_ready(uint8_t id)
{
	while (!osc_is_ready(id)) {
   82250:	2800      	cmp	r0, #0
   82252:	d0fc      	beq.n	8224e <sysclk_init+0x12>
static inline void pll_enable(const struct pll_config *p_cfg, uint32_t ul_pll_id)
{
	Assert(ul_pll_id < NR_PLLS);

	if (ul_pll_id == PLLA_ID) {
		pmc_disable_pllack(); // Always stop PLL first!
   82254:	4b0c      	ldr	r3, [pc, #48]	; (82288 <sysclk_init+0x4c>)
   82256:	4798      	blx	r3
		PMC->CKGR_PLLAR = CKGR_PLLAR_ONE | p_cfg->ctrl;
   82258:	4a0c      	ldr	r2, [pc, #48]	; (8228c <sysclk_init+0x50>)
   8225a:	4b0d      	ldr	r3, [pc, #52]	; (82290 <sysclk_init+0x54>)
   8225c:	629a      	str	r2, [r3, #40]	; 0x28
static inline uint32_t pll_is_locked(uint32_t ul_pll_id)
{
	Assert(ul_pll_id < NR_PLLS);

	if (ul_pll_id == PLLA_ID) {
		return pmc_is_locked_pllack();
   8225e:	4c0d      	ldr	r4, [pc, #52]	; (82294 <sysclk_init+0x58>)
   82260:	47a0      	blx	r4
 */
static inline int pll_wait_for_lock(unsigned int pll_id)
{
	Assert(pll_id < NR_PLLS);

	while (!pll_is_locked(pll_id)) {
   82262:	2800      	cmp	r0, #0
   82264:	d0fc      	beq.n	82260 <sysclk_init+0x24>
	else if (CONFIG_SYSCLK_SOURCE == SYSCLK_SRC_PLLACK) {
		pll_enable_source(CONFIG_PLL0_SOURCE);
		pll_config_defaults(&pllcfg, 0);
		pll_enable(&pllcfg, 0);
		pll_wait_for_lock(0);
		pmc_switch_mck_to_pllack(CONFIG_SYSCLK_PRES);
   82266:	2010      	movs	r0, #16
   82268:	4b0b      	ldr	r3, [pc, #44]	; (82298 <sysclk_init+0x5c>)
   8226a:	4798      	blx	r3
		pll_wait_for_lock(1);
		pmc_switch_mck_to_upllck(CONFIG_SYSCLK_PRES);
	}

	/* Update the SystemFrequency variable */
	SystemCoreClockUpdate();
   8226c:	4b0b      	ldr	r3, [pc, #44]	; (8229c <sysclk_init+0x60>)
   8226e:	4798      	blx	r3

	/* Set a flash wait state depending on the new cpu frequency */
	system_init_flash(sysclk_get_cpu_hz());
   82270:	4801      	ldr	r0, [pc, #4]	; (82278 <sysclk_init+0x3c>)
   82272:	4b02      	ldr	r3, [pc, #8]	; (8227c <sysclk_init+0x40>)
   82274:	4798      	blx	r3
   82276:	bd10      	pop	{r4, pc}
   82278:	0501bd00 	.word	0x0501bd00
   8227c:	200700a5 	.word	0x200700a5
   82280:	00082631 	.word	0x00082631
   82284:	00082685 	.word	0x00082685
   82288:	00082695 	.word	0x00082695
   8228c:	200d3f01 	.word	0x200d3f01
   82290:	400e0600 	.word	0x400e0600
   82294:	000826a5 	.word	0x000826a5
   82298:	000825c9 	.word	0x000825c9
   8229c:	000827bd 	.word	0x000827bd

000822a0 <board_init>:
#include "conf_board.h"
#include "gpio.h"
#include "ioport.h"

void board_init(void)
{
   822a0:	b510      	push	{r4, lr}
#ifndef CONF_BOARD_KEEP_WATCHDOG_AT_INIT
	/* Disable the watchdog */
	WDT->WDT_MR = WDT_MR_WDDIS;
   822a2:	f44f 4200 	mov.w	r2, #32768	; 0x8000
   822a6:	4b12      	ldr	r3, [pc, #72]	; (822f0 <board_init+0x50>)
   822a8:	605a      	str	r2, [r3, #4]
   822aa:	200b      	movs	r0, #11
   822ac:	4c11      	ldr	r4, [pc, #68]	; (822f4 <board_init+0x54>)
   822ae:	47a0      	blx	r4
   822b0:	200c      	movs	r0, #12
   822b2:	47a0      	blx	r4
   822b4:	200d      	movs	r0, #13
   822b6:	47a0      	blx	r4
   822b8:	200e      	movs	r0, #14
   822ba:	47a0      	blx	r4
	 * In new designs IOPORT is used instead.
	 * Here IOPORT must be initialized for others to use before setting up IO.
	 */
	ioport_init();
	/* Configure LED pins */
	gpio_configure_pin(LED0_GPIO, LED0_FLAGS);
   822bc:	203b      	movs	r0, #59	; 0x3b
   822be:	f04f 5160 	mov.w	r1, #939524096	; 0x38000000
   822c2:	4c0d      	ldr	r4, [pc, #52]	; (822f8 <board_init+0x58>)
   822c4:	47a0      	blx	r4
	gpio_configure_pin(LED1_GPIO, LED1_FLAGS);
   822c6:	2055      	movs	r0, #85	; 0x55
   822c8:	f04f 5160 	mov.w	r1, #939524096	; 0x38000000
   822cc:	47a0      	blx	r4
	gpio_configure_pin(LED2_GPIO, LED2_FLAGS);
   822ce:	2056      	movs	r0, #86	; 0x56
   822d0:	f04f 5160 	mov.w	r1, #939524096	; 0x38000000
   822d4:	47a0      	blx	r4

	/* Configure Push Button pins */
	gpio_configure_pin(GPIO_PUSH_BUTTON_1, GPIO_PUSH_BUTTON_1_FLAGS);
   822d6:	2068      	movs	r0, #104	; 0x68
   822d8:	4908      	ldr	r1, [pc, #32]	; (822fc <board_init+0x5c>)
   822da:	47a0      	blx	r4
	gpio_configure_pin(GPIO_PUSH_BUTTON_2, GPIO_PUSH_BUTTON_2_FLAGS);
   822dc:	205c      	movs	r0, #92	; 0x5c
   822de:	4908      	ldr	r1, [pc, #32]	; (82300 <board_init+0x60>)
   822e0:	47a0      	blx	r4

#ifdef CONF_BOARD_UART_CONSOLE
	/* Configure UART pins */
	gpio_configure_group(PINS_UART_PIO, PINS_UART, PINS_UART_FLAGS);
   822e2:	4808      	ldr	r0, [pc, #32]	; (82304 <board_init+0x64>)
   822e4:	f44f 7140 	mov.w	r1, #768	; 0x300
   822e8:	4a07      	ldr	r2, [pc, #28]	; (82308 <board_init+0x68>)
   822ea:	4b08      	ldr	r3, [pc, #32]	; (8230c <board_init+0x6c>)
   822ec:	4798      	blx	r3
   822ee:	bd10      	pop	{r4, pc}
   822f0:	400e1a50 	.word	0x400e1a50
   822f4:	000826b5 	.word	0x000826b5
   822f8:	000823b5 	.word	0x000823b5
   822fc:	28000079 	.word	0x28000079
   82300:	28000001 	.word	0x28000001
   82304:	400e0e00 	.word	0x400e0e00
   82308:	08000001 	.word	0x08000001
   8230c:	00082489 	.word	0x00082489

00082310 <pio_set_peripheral>:
		const uint32_t ul_mask)
{
	uint32_t ul_sr;

	/* Disable interrupts on the pin(s) */
	p_pio->PIO_IDR = ul_mask;
   82310:	6442      	str	r2, [r0, #68]	; 0x44
	case PIO_OUTPUT_1:
	case PIO_NOT_A_PIN:
		return;
	}
#elif (SAM3XA|| SAM3U)
	switch (ul_type) {
   82312:	f1b1 5f80 	cmp.w	r1, #268435456	; 0x10000000
   82316:	d016      	beq.n	82346 <pio_set_peripheral+0x36>
   82318:	d804      	bhi.n	82324 <pio_set_peripheral+0x14>
   8231a:	b1c1      	cbz	r1, 8234e <pio_set_peripheral+0x3e>
   8231c:	f1b1 6f00 	cmp.w	r1, #134217728	; 0x8000000
   82320:	d00a      	beq.n	82338 <pio_set_peripheral+0x28>
   82322:	e013      	b.n	8234c <pio_set_peripheral+0x3c>
   82324:	f1b1 5f40 	cmp.w	r1, #805306368	; 0x30000000
   82328:	d011      	beq.n	8234e <pio_set_peripheral+0x3e>
   8232a:	f1b1 5f60 	cmp.w	r1, #939524096	; 0x38000000
   8232e:	d00e      	beq.n	8234e <pio_set_peripheral+0x3e>
   82330:	f1b1 5f20 	cmp.w	r1, #671088640	; 0x28000000
   82334:	d10a      	bne.n	8234c <pio_set_peripheral+0x3c>
   82336:	4770      	bx	lr
	case PIO_PERIPH_A:
		ul_sr = p_pio->PIO_ABSR;
   82338:	6f03      	ldr	r3, [r0, #112]	; 0x70
		p_pio->PIO_ABSR &= (~ul_mask & ul_sr);
   8233a:	6f01      	ldr	r1, [r0, #112]	; 0x70
   8233c:	400b      	ands	r3, r1
   8233e:	ea23 0302 	bic.w	r3, r3, r2
   82342:	6703      	str	r3, [r0, #112]	; 0x70
		break;
   82344:	e002      	b.n	8234c <pio_set_peripheral+0x3c>

	case PIO_PERIPH_B:
		ul_sr = p_pio->PIO_ABSR;
   82346:	6f03      	ldr	r3, [r0, #112]	; 0x70
		p_pio->PIO_ABSR = (ul_mask | ul_sr);
   82348:	4313      	orrs	r3, r2
   8234a:	6703      	str	r3, [r0, #112]	; 0x70
#else
#error "Unsupported device"
#endif

	/* Remove the pins from under the control of PIO */
	p_pio->PIO_PDR = ul_mask;
   8234c:	6042      	str	r2, [r0, #4]
   8234e:	4770      	bx	lr

00082350 <pio_set_input>:
 * \param p_pio Pointer to a PIO instance.
 * \param ul_mask Interrupt sources bit map.
 */
void pio_disable_interrupt(Pio *p_pio, const uint32_t ul_mask)
{
	p_pio->PIO_IDR = ul_mask;
   82350:	6441      	str	r1, [r0, #68]	; 0x44
 */
void pio_pull_up(Pio *p_pio, const uint32_t ul_mask,
		const uint32_t ul_pull_up_enable)
{
	/* Enable the pull-up(s) if necessary */
	if (ul_pull_up_enable) {
   82352:	f012 0f01 	tst.w	r2, #1
		p_pio->PIO_PUER = ul_mask;
   82356:	bf14      	ite	ne
   82358:	6641      	strne	r1, [r0, #100]	; 0x64
	} else {
		p_pio->PIO_PUDR = ul_mask;
   8235a:	6601      	streq	r1, [r0, #96]	; 0x60
{
	pio_disable_interrupt(p_pio, ul_mask);
	pio_pull_up(p_pio, ul_mask, ul_attribute & PIO_PULLUP);

	/* Enable Input Filter if necessary */
	if (ul_attribute & (PIO_DEGLITCH | PIO_DEBOUNCE)) {
   8235c:	f012 0f0a 	tst.w	r2, #10
		p_pio->PIO_IFER = ul_mask;
   82360:	bf14      	ite	ne
   82362:	6201      	strne	r1, [r0, #32]
	} else {
		p_pio->PIO_IFDR = ul_mask;
   82364:	6241      	streq	r1, [r0, #36]	; 0x24
			p_pio->PIO_IFSCER = ul_mask;
		}
	}
#elif (SAM3XA|| SAM3U)
	/* Enable de-glitch or de-bounce if necessary */
	if (ul_attribute & PIO_DEGLITCH) {
   82366:	f012 0f02 	tst.w	r2, #2
   8236a:	d002      	beq.n	82372 <pio_set_input+0x22>
		p_pio->PIO_SCIFSR = ul_mask;
   8236c:	f8c0 1080 	str.w	r1, [r0, #128]	; 0x80
   82370:	e004      	b.n	8237c <pio_set_input+0x2c>
	} else {
		if (ul_attribute & PIO_DEBOUNCE) {
   82372:	f012 0f08 	tst.w	r2, #8
			p_pio->PIO_DIFSR = ul_mask;
   82376:	bf18      	it	ne
   82378:	f8c0 1084 	strne.w	r1, [r0, #132]	; 0x84
#else
#error "Unsupported device"
#endif

	/* Configure pin as input */
	p_pio->PIO_ODR = ul_mask;
   8237c:	6141      	str	r1, [r0, #20]
	p_pio->PIO_PER = ul_mask;
   8237e:	6001      	str	r1, [r0, #0]
   82380:	4770      	bx	lr
   82382:	bf00      	nop

00082384 <pio_set_output>:
 */
void pio_set_output(Pio *p_pio, const uint32_t ul_mask,
		const uint32_t ul_default_level,
		const uint32_t ul_multidrive_enable,
		const uint32_t ul_pull_up_enable)
{
   82384:	b410      	push	{r4}
 * \param p_pio Pointer to a PIO instance.
 * \param ul_mask Interrupt sources bit map.
 */
void pio_disable_interrupt(Pio *p_pio, const uint32_t ul_mask)
{
	p_pio->PIO_IDR = ul_mask;
   82386:	6441      	str	r1, [r0, #68]	; 0x44
 */
void pio_pull_up(Pio *p_pio, const uint32_t ul_mask,
		const uint32_t ul_pull_up_enable)
{
	/* Enable the pull-up(s) if necessary */
	if (ul_pull_up_enable) {
   82388:	9c01      	ldr	r4, [sp, #4]
   8238a:	b10c      	cbz	r4, 82390 <pio_set_output+0xc>
		p_pio->PIO_PUER = ul_mask;
   8238c:	6641      	str	r1, [r0, #100]	; 0x64
   8238e:	e000      	b.n	82392 <pio_set_output+0xe>
	} else {
		p_pio->PIO_PUDR = ul_mask;
   82390:	6601      	str	r1, [r0, #96]	; 0x60
{
	pio_disable_interrupt(p_pio, ul_mask);
	pio_pull_up(p_pio, ul_mask, ul_pull_up_enable);

	/* Enable multi-drive if necessary */
	if (ul_multidrive_enable) {
   82392:	b10b      	cbz	r3, 82398 <pio_set_output+0x14>
		p_pio->PIO_MDER = ul_mask;
   82394:	6501      	str	r1, [r0, #80]	; 0x50
   82396:	e000      	b.n	8239a <pio_set_output+0x16>
	} else {
		p_pio->PIO_MDDR = ul_mask;
   82398:	6541      	str	r1, [r0, #84]	; 0x54
	}

	/* Set default value */
	if (ul_default_level) {
   8239a:	b10a      	cbz	r2, 823a0 <pio_set_output+0x1c>
		p_pio->PIO_SODR = ul_mask;
   8239c:	6301      	str	r1, [r0, #48]	; 0x30
   8239e:	e000      	b.n	823a2 <pio_set_output+0x1e>
	} else {
		p_pio->PIO_CODR = ul_mask;
   823a0:	6341      	str	r1, [r0, #52]	; 0x34
	}

	/* Configure pin(s) as output(s) */
	p_pio->PIO_OER = ul_mask;
   823a2:	6101      	str	r1, [r0, #16]
	p_pio->PIO_PER = ul_mask;
   823a4:	6001      	str	r1, [r0, #0]
}
   823a6:	f85d 4b04 	ldr.w	r4, [sp], #4
   823aa:	4770      	bx	lr

000823ac <pio_get_interrupt_status>:
 *
 * \return The interrupt status mask value.
 */
uint32_t pio_get_interrupt_status(const Pio *p_pio)
{
	return p_pio->PIO_ISR;
   823ac:	6cc0      	ldr	r0, [r0, #76]	; 0x4c
}
   823ae:	4770      	bx	lr

000823b0 <pio_get_interrupt_mask>:
 *
 * \return The interrupt mask value.
 */
uint32_t pio_get_interrupt_mask(const Pio *p_pio)
{
	return p_pio->PIO_IMR;
   823b0:	6c80      	ldr	r0, [r0, #72]	; 0x48
}
   823b2:	4770      	bx	lr

000823b4 <pio_configure_pin>:
 * \param ul_flags Pins attributes.
 *
 * \return Whether the pin(s) have been configured properly.
 */
uint32_t pio_configure_pin(uint32_t ul_pin, const uint32_t ul_flags)
{
   823b4:	b570      	push	{r4, r5, r6, lr}
   823b6:	b082      	sub	sp, #8
   823b8:	460d      	mov	r5, r1
		p_pio = PIOC;
	} else {
		p_pio = (Pio *)((uint32_t)PIOA + (PIO_DELTA * (ul_pin >> 5)));
	}
#else
	p_pio = (Pio *)((uint32_t)PIOA + (PIO_DELTA * (ul_pin >> 5)));
   823ba:	0943      	lsrs	r3, r0, #5
   823bc:	f503 1300 	add.w	r3, r3, #2097152	; 0x200000
   823c0:	f203 7307 	addw	r3, r3, #1799	; 0x707
   823c4:	025c      	lsls	r4, r3, #9
uint32_t pio_configure_pin(uint32_t ul_pin, const uint32_t ul_flags)
{
	Pio *p_pio = pio_get_pin_group(ul_pin);

	/* Configure pins */
	switch (ul_flags & PIO_TYPE_Msk) {
   823c6:	f001 43f0 	and.w	r3, r1, #2013265920	; 0x78000000
   823ca:	f1b3 5f20 	cmp.w	r3, #671088640	; 0x28000000
   823ce:	d030      	beq.n	82432 <pio_configure_pin+0x7e>
   823d0:	d806      	bhi.n	823e0 <pio_configure_pin+0x2c>
   823d2:	f1b3 6f00 	cmp.w	r3, #134217728	; 0x8000000
   823d6:	d00a      	beq.n	823ee <pio_configure_pin+0x3a>
   823d8:	f1b3 5f80 	cmp.w	r3, #268435456	; 0x10000000
   823dc:	d018      	beq.n	82410 <pio_configure_pin+0x5c>
   823de:	e049      	b.n	82474 <pio_configure_pin+0xc0>
   823e0:	f1b3 5f40 	cmp.w	r3, #805306368	; 0x30000000
   823e4:	d030      	beq.n	82448 <pio_configure_pin+0x94>
   823e6:	f1b3 5f60 	cmp.w	r3, #939524096	; 0x38000000
   823ea:	d02d      	beq.n	82448 <pio_configure_pin+0x94>
   823ec:	e042      	b.n	82474 <pio_configure_pin+0xc0>
	case PIO_TYPE_PIO_PERIPH_A:
		pio_set_peripheral(p_pio, PIO_PERIPH_A, (1 << (ul_pin & 0x1F)));
   823ee:	f000 001f 	and.w	r0, r0, #31
   823f2:	2601      	movs	r6, #1
   823f4:	4086      	lsls	r6, r0
   823f6:	4620      	mov	r0, r4
   823f8:	f04f 6100 	mov.w	r1, #134217728	; 0x8000000
   823fc:	4632      	mov	r2, r6
   823fe:	4b1f      	ldr	r3, [pc, #124]	; (8247c <pio_configure_pin+0xc8>)
   82400:	4798      	blx	r3
 */
void pio_pull_up(Pio *p_pio, const uint32_t ul_mask,
		const uint32_t ul_pull_up_enable)
{
	/* Enable the pull-up(s) if necessary */
	if (ul_pull_up_enable) {
   82402:	f015 0f01 	tst.w	r5, #1
		p_pio->PIO_PUER = ul_mask;
   82406:	bf14      	ite	ne
   82408:	6666      	strne	r6, [r4, #100]	; 0x64
	} else {
		p_pio->PIO_PUDR = ul_mask;
   8240a:	6626      	streq	r6, [r4, #96]	; 0x60

	default:
		return 0;
	}

	return 1;
   8240c:	2001      	movs	r0, #1
   8240e:	e032      	b.n	82476 <pio_configure_pin+0xc2>
		pio_set_peripheral(p_pio, PIO_PERIPH_A, (1 << (ul_pin & 0x1F)));
		pio_pull_up(p_pio, (1 << (ul_pin & 0x1F)),
				(ul_flags & PIO_PULLUP));
		break;
	case PIO_TYPE_PIO_PERIPH_B:
		pio_set_peripheral(p_pio, PIO_PERIPH_B, (1 << (ul_pin & 0x1F)));
   82410:	f000 001f 	and.w	r0, r0, #31
   82414:	2601      	movs	r6, #1
   82416:	4086      	lsls	r6, r0
   82418:	4620      	mov	r0, r4
   8241a:	f04f 5180 	mov.w	r1, #268435456	; 0x10000000
   8241e:	4632      	mov	r2, r6
   82420:	4b16      	ldr	r3, [pc, #88]	; (8247c <pio_configure_pin+0xc8>)
   82422:	4798      	blx	r3
 */
void pio_pull_up(Pio *p_pio, const uint32_t ul_mask,
		const uint32_t ul_pull_up_enable)
{
	/* Enable the pull-up(s) if necessary */
	if (ul_pull_up_enable) {
   82424:	f015 0f01 	tst.w	r5, #1
		p_pio->PIO_PUER = ul_mask;
   82428:	bf14      	ite	ne
   8242a:	6666      	strne	r6, [r4, #100]	; 0x64
	} else {
		p_pio->PIO_PUDR = ul_mask;
   8242c:	6626      	streq	r6, [r4, #96]	; 0x60

	default:
		return 0;
	}

	return 1;
   8242e:	2001      	movs	r0, #1
   82430:	e021      	b.n	82476 <pio_configure_pin+0xc2>
				(ul_flags & PIO_PULLUP));
		break;
#endif

	case PIO_TYPE_PIO_INPUT:
		pio_set_input(p_pio, (1 << (ul_pin & 0x1F)), ul_flags);
   82432:	f000 031f 	and.w	r3, r0, #31
   82436:	2601      	movs	r6, #1
   82438:	4620      	mov	r0, r4
   8243a:	fa06 f103 	lsl.w	r1, r6, r3
   8243e:	462a      	mov	r2, r5
   82440:	4b0f      	ldr	r3, [pc, #60]	; (82480 <pio_configure_pin+0xcc>)
   82442:	4798      	blx	r3

	default:
		return 0;
	}

	return 1;
   82444:	4630      	mov	r0, r6
		break;
#endif

	case PIO_TYPE_PIO_INPUT:
		pio_set_input(p_pio, (1 << (ul_pin & 0x1F)), ul_flags);
		break;
   82446:	e016      	b.n	82476 <pio_configure_pin+0xc2>

	case PIO_TYPE_PIO_OUTPUT_0:
	case PIO_TYPE_PIO_OUTPUT_1:
		pio_set_output(p_pio, (1 << (ul_pin & 0x1F)),
   82448:	f000 031f 	and.w	r3, r0, #31
   8244c:	2601      	movs	r6, #1
				((ul_flags & PIO_TYPE_PIO_OUTPUT_1)
   8244e:	f005 5260 	and.w	r2, r5, #939524096	; 0x38000000
		pio_set_input(p_pio, (1 << (ul_pin & 0x1F)), ul_flags);
		break;

	case PIO_TYPE_PIO_OUTPUT_0:
	case PIO_TYPE_PIO_OUTPUT_1:
		pio_set_output(p_pio, (1 << (ul_pin & 0x1F)),
   82452:	ea05 0106 	and.w	r1, r5, r6
   82456:	9100      	str	r1, [sp, #0]
   82458:	4620      	mov	r0, r4
   8245a:	fa06 f103 	lsl.w	r1, r6, r3
   8245e:	f1b2 5f60 	cmp.w	r2, #939524096	; 0x38000000
   82462:	bf14      	ite	ne
   82464:	2200      	movne	r2, #0
   82466:	2201      	moveq	r2, #1
   82468:	f3c5 0380 	ubfx	r3, r5, #2, #1
   8246c:	4c05      	ldr	r4, [pc, #20]	; (82484 <pio_configure_pin+0xd0>)
   8246e:	47a0      	blx	r4

	default:
		return 0;
	}

	return 1;
   82470:	4630      	mov	r0, r6
		pio_set_output(p_pio, (1 << (ul_pin & 0x1F)),
				((ul_flags & PIO_TYPE_PIO_OUTPUT_1)
				== PIO_TYPE_PIO_OUTPUT_1) ? 1 : 0,
				(ul_flags & PIO_OPENDRAIN) ? 1 : 0,
				(ul_flags & PIO_PULLUP) ? 1 : 0);
		break;
   82472:	e000      	b.n	82476 <pio_configure_pin+0xc2>

	default:
		return 0;
   82474:	2000      	movs	r0, #0
	}

	return 1;
}
   82476:	b002      	add	sp, #8
   82478:	bd70      	pop	{r4, r5, r6, pc}
   8247a:	bf00      	nop
   8247c:	00082311 	.word	0x00082311
   82480:	00082351 	.word	0x00082351
   82484:	00082385 	.word	0x00082385

00082488 <pio_configure_pin_group>:
 *
 * \return Whether the pin(s) have been configured properly.
 */
uint32_t pio_configure_pin_group(Pio *p_pio,
		uint32_t ul_mask, const uint32_t ul_flags)
{
   82488:	b570      	push	{r4, r5, r6, lr}
   8248a:	b082      	sub	sp, #8
   8248c:	4606      	mov	r6, r0
   8248e:	460d      	mov	r5, r1
   82490:	4614      	mov	r4, r2
	/* Configure pins */
	switch (ul_flags & PIO_TYPE_Msk) {
   82492:	f002 43f0 	and.w	r3, r2, #2013265920	; 0x78000000
   82496:	f1b3 5f20 	cmp.w	r3, #671088640	; 0x28000000
   8249a:	d026      	beq.n	824ea <pio_configure_pin_group+0x62>
   8249c:	d806      	bhi.n	824ac <pio_configure_pin_group+0x24>
   8249e:	f1b3 6f00 	cmp.w	r3, #134217728	; 0x8000000
   824a2:	d00a      	beq.n	824ba <pio_configure_pin_group+0x32>
   824a4:	f1b3 5f80 	cmp.w	r3, #268435456	; 0x10000000
   824a8:	d013      	beq.n	824d2 <pio_configure_pin_group+0x4a>
   824aa:	e034      	b.n	82516 <pio_configure_pin_group+0x8e>
   824ac:	f1b3 5f40 	cmp.w	r3, #805306368	; 0x30000000
   824b0:	d01f      	beq.n	824f2 <pio_configure_pin_group+0x6a>
   824b2:	f1b3 5f60 	cmp.w	r3, #939524096	; 0x38000000
   824b6:	d01c      	beq.n	824f2 <pio_configure_pin_group+0x6a>
   824b8:	e02d      	b.n	82516 <pio_configure_pin_group+0x8e>
	case PIO_TYPE_PIO_PERIPH_A:
		pio_set_peripheral(p_pio, PIO_PERIPH_A, ul_mask);
   824ba:	f04f 6100 	mov.w	r1, #134217728	; 0x8000000
   824be:	462a      	mov	r2, r5
   824c0:	4b16      	ldr	r3, [pc, #88]	; (8251c <pio_configure_pin_group+0x94>)
   824c2:	4798      	blx	r3
 */
void pio_pull_up(Pio *p_pio, const uint32_t ul_mask,
		const uint32_t ul_pull_up_enable)
{
	/* Enable the pull-up(s) if necessary */
	if (ul_pull_up_enable) {
   824c4:	f014 0f01 	tst.w	r4, #1
		p_pio->PIO_PUER = ul_mask;
   824c8:	bf14      	ite	ne
   824ca:	6675      	strne	r5, [r6, #100]	; 0x64
	} else {
		p_pio->PIO_PUDR = ul_mask;
   824cc:	6635      	streq	r5, [r6, #96]	; 0x60

	default:
		return 0;
	}

	return 1;
   824ce:	2001      	movs	r0, #1
   824d0:	e022      	b.n	82518 <pio_configure_pin_group+0x90>
	case PIO_TYPE_PIO_PERIPH_A:
		pio_set_peripheral(p_pio, PIO_PERIPH_A, ul_mask);
		pio_pull_up(p_pio, ul_mask, (ul_flags & PIO_PULLUP));
		break;
	case PIO_TYPE_PIO_PERIPH_B:
		pio_set_peripheral(p_pio, PIO_PERIPH_B, ul_mask);
   824d2:	f04f 5180 	mov.w	r1, #268435456	; 0x10000000
   824d6:	462a      	mov	r2, r5
   824d8:	4b10      	ldr	r3, [pc, #64]	; (8251c <pio_configure_pin_group+0x94>)
   824da:	4798      	blx	r3
 */
void pio_pull_up(Pio *p_pio, const uint32_t ul_mask,
		const uint32_t ul_pull_up_enable)
{
	/* Enable the pull-up(s) if necessary */
	if (ul_pull_up_enable) {
   824dc:	f014 0f01 	tst.w	r4, #1
		p_pio->PIO_PUER = ul_mask;
   824e0:	bf14      	ite	ne
   824e2:	6675      	strne	r5, [r6, #100]	; 0x64
	} else {
		p_pio->PIO_PUDR = ul_mask;
   824e4:	6635      	streq	r5, [r6, #96]	; 0x60

	default:
		return 0;
	}

	return 1;
   824e6:	2001      	movs	r0, #1
   824e8:	e016      	b.n	82518 <pio_configure_pin_group+0x90>
		pio_pull_up(p_pio, ul_mask, (ul_flags & PIO_PULLUP));
		break;
#endif

	case PIO_TYPE_PIO_INPUT:
		pio_set_input(p_pio, ul_mask, ul_flags);
   824ea:	4b0d      	ldr	r3, [pc, #52]	; (82520 <pio_configure_pin_group+0x98>)
   824ec:	4798      	blx	r3

	default:
		return 0;
	}

	return 1;
   824ee:	2001      	movs	r0, #1
		break;
#endif

	case PIO_TYPE_PIO_INPUT:
		pio_set_input(p_pio, ul_mask, ul_flags);
		break;
   824f0:	e012      	b.n	82518 <pio_configure_pin_group+0x90>

	case PIO_TYPE_PIO_OUTPUT_0:
	case PIO_TYPE_PIO_OUTPUT_1:
		pio_set_output(p_pio, ul_mask,
				((ul_flags & PIO_TYPE_PIO_OUTPUT_1)
   824f2:	f004 5260 	and.w	r2, r4, #939524096	; 0x38000000
		pio_set_input(p_pio, ul_mask, ul_flags);
		break;

	case PIO_TYPE_PIO_OUTPUT_0:
	case PIO_TYPE_PIO_OUTPUT_1:
		pio_set_output(p_pio, ul_mask,
   824f6:	f004 0301 	and.w	r3, r4, #1
   824fa:	9300      	str	r3, [sp, #0]
   824fc:	4630      	mov	r0, r6
   824fe:	4629      	mov	r1, r5
   82500:	f1b2 5f60 	cmp.w	r2, #939524096	; 0x38000000
   82504:	bf14      	ite	ne
   82506:	2200      	movne	r2, #0
   82508:	2201      	moveq	r2, #1
   8250a:	f3c4 0380 	ubfx	r3, r4, #2, #1
   8250e:	4c05      	ldr	r4, [pc, #20]	; (82524 <pio_configure_pin_group+0x9c>)
   82510:	47a0      	blx	r4

	default:
		return 0;
	}

	return 1;
   82512:	2001      	movs	r0, #1
		pio_set_output(p_pio, ul_mask,
				((ul_flags & PIO_TYPE_PIO_OUTPUT_1)
				== PIO_TYPE_PIO_OUTPUT_1) ? 1 : 0,
				(ul_flags & PIO_OPENDRAIN) ? 1 : 0,
				(ul_flags & PIO_PULLUP) ? 1 : 0);
		break;
   82514:	e000      	b.n	82518 <pio_configure_pin_group+0x90>

	default:
		return 0;
   82516:	2000      	movs	r0, #0
	}

	return 1;
}
   82518:	b002      	add	sp, #8
   8251a:	bd70      	pop	{r4, r5, r6, pc}
   8251c:	00082311 	.word	0x00082311
   82520:	00082351 	.word	0x00082351
   82524:	00082385 	.word	0x00082385

00082528 <pio_handler_process>:
 *
 * \param p_pio PIO controller base address.
 * \param ul_id PIO controller ID.
 */
void pio_handler_process(Pio *p_pio, uint32_t ul_id)
{
   82528:	e92d 41f0 	stmdb	sp!, {r4, r5, r6, r7, r8, lr}
   8252c:	4604      	mov	r4, r0
   8252e:	4688      	mov	r8, r1
	uint32_t status;
	uint32_t i;

	/* Read PIO controller status */
	status = pio_get_interrupt_status(p_pio);
   82530:	4b0e      	ldr	r3, [pc, #56]	; (8256c <pio_handler_process+0x44>)
   82532:	4798      	blx	r3
   82534:	4605      	mov	r5, r0
	status &= pio_get_interrupt_mask(p_pio);
   82536:	4620      	mov	r0, r4
   82538:	4b0d      	ldr	r3, [pc, #52]	; (82570 <pio_handler_process+0x48>)
   8253a:	4798      	blx	r3

	/* Check pending events */
	if (status != 0) {
   8253c:	4005      	ands	r5, r0
   8253e:	d013      	beq.n	82568 <pio_handler_process+0x40>
   82540:	4c0c      	ldr	r4, [pc, #48]	; (82574 <pio_handler_process+0x4c>)
   82542:	f104 0660 	add.w	r6, r4, #96	; 0x60
		/* Find triggering source */
		i = 0;
		while (status != 0) {
			/* Source is configured on the same controller */
			if (gs_interrupt_sources[i].id == ul_id) {
   82546:	6823      	ldr	r3, [r4, #0]
   82548:	4543      	cmp	r3, r8
   8254a:	d108      	bne.n	8255e <pio_handler_process+0x36>
				/* Source has PIOs whose statuses have changed */
				if ((status & gs_interrupt_sources[i].mask) != 0) {
   8254c:	6861      	ldr	r1, [r4, #4]
   8254e:	4229      	tst	r1, r5
   82550:	d005      	beq.n	8255e <pio_handler_process+0x36>
					gs_interrupt_sources[i].handler(gs_interrupt_sources[i].id,
   82552:	68e3      	ldr	r3, [r4, #12]
   82554:	4640      	mov	r0, r8
   82556:	4798      	blx	r3
							gs_interrupt_sources[i].mask);
					status &= ~(gs_interrupt_sources[i].mask);
   82558:	6863      	ldr	r3, [r4, #4]
   8255a:	ea25 0503 	bic.w	r5, r5, r3
				}
			}
			i++;
			if (i >= MAX_INTERRUPT_SOURCES) {
   8255e:	42b4      	cmp	r4, r6
   82560:	d002      	beq.n	82568 <pio_handler_process+0x40>
   82562:	3410      	adds	r4, #16

	/* Check pending events */
	if (status != 0) {
		/* Find triggering source */
		i = 0;
		while (status != 0) {
   82564:	2d00      	cmp	r5, #0
   82566:	d1ee      	bne.n	82546 <pio_handler_process+0x1e>
   82568:	e8bd 81f0 	ldmia.w	sp!, {r4, r5, r6, r7, r8, pc}
   8256c:	000823ad 	.word	0x000823ad
   82570:	000823b1 	.word	0x000823b1
   82574:	20078d20 	.word	0x20078d20

00082578 <PIOA_Handler>:
/**
 * \brief Parallel IO Controller A interrupt handler.
 * Redefined PIOA interrupt handler for NVIC interrupt table.
 */
void PIOA_Handler(void)
{
   82578:	b508      	push	{r3, lr}
	pio_handler_process(PIOA, ID_PIOA);
   8257a:	4802      	ldr	r0, [pc, #8]	; (82584 <PIOA_Handler+0xc>)
   8257c:	210b      	movs	r1, #11
   8257e:	4b02      	ldr	r3, [pc, #8]	; (82588 <PIOA_Handler+0x10>)
   82580:	4798      	blx	r3
   82582:	bd08      	pop	{r3, pc}
   82584:	400e0e00 	.word	0x400e0e00
   82588:	00082529 	.word	0x00082529

0008258c <PIOB_Handler>:
/**
 * \brief Parallel IO Controller B interrupt handler
 * Redefined PIOB interrupt handler for NVIC interrupt table.
 */
void PIOB_Handler(void)
{
   8258c:	b508      	push	{r3, lr}
    pio_handler_process(PIOB, ID_PIOB);
   8258e:	4802      	ldr	r0, [pc, #8]	; (82598 <PIOB_Handler+0xc>)
   82590:	210c      	movs	r1, #12
   82592:	4b02      	ldr	r3, [pc, #8]	; (8259c <PIOB_Handler+0x10>)
   82594:	4798      	blx	r3
   82596:	bd08      	pop	{r3, pc}
   82598:	400e1000 	.word	0x400e1000
   8259c:	00082529 	.word	0x00082529

000825a0 <PIOC_Handler>:
/**
 * \brief Parallel IO Controller C interrupt handler.
 * Redefined PIOC interrupt handler for NVIC interrupt table.
 */
void PIOC_Handler(void)
{
   825a0:	b508      	push	{r3, lr}
	pio_handler_process(PIOC, ID_PIOC);
   825a2:	4802      	ldr	r0, [pc, #8]	; (825ac <PIOC_Handler+0xc>)
   825a4:	210d      	movs	r1, #13
   825a6:	4b02      	ldr	r3, [pc, #8]	; (825b0 <PIOC_Handler+0x10>)
   825a8:	4798      	blx	r3
   825aa:	bd08      	pop	{r3, pc}
   825ac:	400e1200 	.word	0x400e1200
   825b0:	00082529 	.word	0x00082529

000825b4 <PIOD_Handler>:
/**
 * \brief Parallel IO Controller D interrupt handler.
 * Redefined PIOD interrupt handler for NVIC interrupt table.
 */
void PIOD_Handler(void)
{
   825b4:	b508      	push	{r3, lr}
	pio_handler_process(PIOD, ID_PIOD);
   825b6:	4802      	ldr	r0, [pc, #8]	; (825c0 <PIOD_Handler+0xc>)
   825b8:	210e      	movs	r1, #14
   825ba:	4b02      	ldr	r3, [pc, #8]	; (825c4 <PIOD_Handler+0x10>)
   825bc:	4798      	blx	r3
   825be:	bd08      	pop	{r3, pc}
   825c0:	400e1400 	.word	0x400e1400
   825c4:	00082529 	.word	0x00082529

000825c8 <pmc_switch_mck_to_pllack>:
 */
uint32_t pmc_switch_mck_to_pllack(uint32_t ul_pres)
{
	uint32_t ul_timeout;

	PMC->PMC_MCKR = (PMC->PMC_MCKR & (~PMC_MCKR_PRES_Msk)) | ul_pres;
   825c8:	4a18      	ldr	r2, [pc, #96]	; (8262c <pmc_switch_mck_to_pllack+0x64>)
   825ca:	6b13      	ldr	r3, [r2, #48]	; 0x30
   825cc:	f023 0370 	bic.w	r3, r3, #112	; 0x70
   825d0:	4318      	orrs	r0, r3
   825d2:	6310      	str	r0, [r2, #48]	; 0x30
	for (ul_timeout = PMC_TIMEOUT; !(PMC->PMC_SR & PMC_SR_MCKRDY);
   825d4:	6e93      	ldr	r3, [r2, #104]	; 0x68
   825d6:	f013 0f08 	tst.w	r3, #8
   825da:	d003      	beq.n	825e4 <pmc_switch_mck_to_pllack+0x1c>
   825dc:	e009      	b.n	825f2 <pmc_switch_mck_to_pllack+0x2a>
			--ul_timeout) {
		if (ul_timeout == 0) {
   825de:	3b01      	subs	r3, #1
   825e0:	d103      	bne.n	825ea <pmc_switch_mck_to_pllack+0x22>
   825e2:	e01e      	b.n	82622 <pmc_switch_mck_to_pllack+0x5a>
uint32_t pmc_switch_mck_to_pllack(uint32_t ul_pres)
{
	uint32_t ul_timeout;

	PMC->PMC_MCKR = (PMC->PMC_MCKR & (~PMC_MCKR_PRES_Msk)) | ul_pres;
	for (ul_timeout = PMC_TIMEOUT; !(PMC->PMC_SR & PMC_SR_MCKRDY);
   825e4:	f44f 6300 	mov.w	r3, #2048	; 0x800
   825e8:	4910      	ldr	r1, [pc, #64]	; (8262c <pmc_switch_mck_to_pllack+0x64>)
   825ea:	6e8a      	ldr	r2, [r1, #104]	; 0x68
   825ec:	f012 0f08 	tst.w	r2, #8
   825f0:	d0f5      	beq.n	825de <pmc_switch_mck_to_pllack+0x16>
		if (ul_timeout == 0) {
			return 1;
		}
	}

	PMC->PMC_MCKR = (PMC->PMC_MCKR & (~PMC_MCKR_CSS_Msk)) |
   825f2:	4a0e      	ldr	r2, [pc, #56]	; (8262c <pmc_switch_mck_to_pllack+0x64>)
   825f4:	6b13      	ldr	r3, [r2, #48]	; 0x30
   825f6:	f023 0303 	bic.w	r3, r3, #3
   825fa:	f043 0302 	orr.w	r3, r3, #2
   825fe:	6313      	str	r3, [r2, #48]	; 0x30
			PMC_MCKR_CSS_PLLA_CLK;

	for (ul_timeout = PMC_TIMEOUT; !(PMC->PMC_SR & PMC_SR_MCKRDY);
   82600:	6e90      	ldr	r0, [r2, #104]	; 0x68
   82602:	f010 0008 	ands.w	r0, r0, #8
   82606:	d004      	beq.n	82612 <pmc_switch_mck_to_pllack+0x4a>
		if (ul_timeout == 0) {
			return 1;
		}
	}

	return 0;
   82608:	2000      	movs	r0, #0
   8260a:	4770      	bx	lr
	PMC->PMC_MCKR = (PMC->PMC_MCKR & (~PMC_MCKR_CSS_Msk)) |
			PMC_MCKR_CSS_PLLA_CLK;

	for (ul_timeout = PMC_TIMEOUT; !(PMC->PMC_SR & PMC_SR_MCKRDY);
			--ul_timeout) {
		if (ul_timeout == 0) {
   8260c:	3b01      	subs	r3, #1
   8260e:	d103      	bne.n	82618 <pmc_switch_mck_to_pllack+0x50>
   82610:	e009      	b.n	82626 <pmc_switch_mck_to_pllack+0x5e>
	}

	PMC->PMC_MCKR = (PMC->PMC_MCKR & (~PMC_MCKR_CSS_Msk)) |
			PMC_MCKR_CSS_PLLA_CLK;

	for (ul_timeout = PMC_TIMEOUT; !(PMC->PMC_SR & PMC_SR_MCKRDY);
   82612:	f44f 6300 	mov.w	r3, #2048	; 0x800
   82616:	4905      	ldr	r1, [pc, #20]	; (8262c <pmc_switch_mck_to_pllack+0x64>)
   82618:	6e8a      	ldr	r2, [r1, #104]	; 0x68
   8261a:	f012 0f08 	tst.w	r2, #8
   8261e:	d0f5      	beq.n	8260c <pmc_switch_mck_to_pllack+0x44>
   82620:	4770      	bx	lr

	PMC->PMC_MCKR = (PMC->PMC_MCKR & (~PMC_MCKR_PRES_Msk)) | ul_pres;
	for (ul_timeout = PMC_TIMEOUT; !(PMC->PMC_SR & PMC_SR_MCKRDY);
			--ul_timeout) {
		if (ul_timeout == 0) {
			return 1;
   82622:	2001      	movs	r0, #1
   82624:	4770      	bx	lr
			PMC_MCKR_CSS_PLLA_CLK;

	for (ul_timeout = PMC_TIMEOUT; !(PMC->PMC_SR & PMC_SR_MCKRDY);
			--ul_timeout) {
		if (ul_timeout == 0) {
			return 1;
   82626:	2001      	movs	r0, #1
		}
	}

	return 0;
}
   82628:	4770      	bx	lr
   8262a:	bf00      	nop
   8262c:	400e0600 	.word	0x400e0600

00082630 <pmc_switch_mainck_to_xtal>:
 */
void pmc_switch_mainck_to_xtal(uint32_t ul_bypass,
		uint32_t ul_xtal_startup_time)
{
	/* Enable Main Xtal oscillator */
	if (ul_bypass) {
   82630:	b138      	cbz	r0, 82642 <pmc_switch_mainck_to_xtal+0x12>
		PMC->CKGR_MOR = (PMC->CKGR_MOR & ~CKGR_MOR_MOSCXTEN) |
   82632:	4911      	ldr	r1, [pc, #68]	; (82678 <pmc_switch_mainck_to_xtal+0x48>)
   82634:	6a0b      	ldr	r3, [r1, #32]
				CKGR_MOR_KEY_PASSWD | CKGR_MOR_MOSCXTBY |
   82636:	4a11      	ldr	r2, [pc, #68]	; (8267c <pmc_switch_mainck_to_xtal+0x4c>)
   82638:	401a      	ands	r2, r3
   8263a:	4b11      	ldr	r3, [pc, #68]	; (82680 <pmc_switch_mainck_to_xtal+0x50>)
   8263c:	4313      	orrs	r3, r2
void pmc_switch_mainck_to_xtal(uint32_t ul_bypass,
		uint32_t ul_xtal_startup_time)
{
	/* Enable Main Xtal oscillator */
	if (ul_bypass) {
		PMC->CKGR_MOR = (PMC->CKGR_MOR & ~CKGR_MOR_MOSCXTEN) |
   8263e:	620b      	str	r3, [r1, #32]
   82640:	4770      	bx	lr
				CKGR_MOR_KEY_PASSWD | CKGR_MOR_MOSCXTBY |
				CKGR_MOR_MOSCSEL;
	} else {
		PMC->CKGR_MOR = (PMC->CKGR_MOR & ~CKGR_MOR_MOSCXTBY) |
   82642:	4a0d      	ldr	r2, [pc, #52]	; (82678 <pmc_switch_mainck_to_xtal+0x48>)
   82644:	6a13      	ldr	r3, [r2, #32]
				CKGR_MOR_KEY_PASSWD | CKGR_MOR_MOSCXTEN |
   82646:	f423 135c 	bic.w	r3, r3, #3604480	; 0x370000
   8264a:	f023 0303 	bic.w	r3, r3, #3
   8264e:	f443 135c 	orr.w	r3, r3, #3604480	; 0x370000
   82652:	f043 0301 	orr.w	r3, r3, #1
				CKGR_MOR_MOSCXTST(ul_xtal_startup_time);
   82656:	0209      	lsls	r1, r1, #8
   82658:	b289      	uxth	r1, r1
		PMC->CKGR_MOR = (PMC->CKGR_MOR & ~CKGR_MOR_MOSCXTEN) |
				CKGR_MOR_KEY_PASSWD | CKGR_MOR_MOSCXTBY |
				CKGR_MOR_MOSCSEL;
	} else {
		PMC->CKGR_MOR = (PMC->CKGR_MOR & ~CKGR_MOR_MOSCXTBY) |
				CKGR_MOR_KEY_PASSWD | CKGR_MOR_MOSCXTEN |
   8265a:	430b      	orrs	r3, r1
	if (ul_bypass) {
		PMC->CKGR_MOR = (PMC->CKGR_MOR & ~CKGR_MOR_MOSCXTEN) |
				CKGR_MOR_KEY_PASSWD | CKGR_MOR_MOSCXTBY |
				CKGR_MOR_MOSCSEL;
	} else {
		PMC->CKGR_MOR = (PMC->CKGR_MOR & ~CKGR_MOR_MOSCXTBY) |
   8265c:	6213      	str	r3, [r2, #32]
				CKGR_MOR_KEY_PASSWD | CKGR_MOR_MOSCXTEN |
				CKGR_MOR_MOSCXTST(ul_xtal_startup_time);
		/* Wait the Xtal to stabilize */
		while (!(PMC->PMC_SR & PMC_SR_MOSCXTS));
   8265e:	6e93      	ldr	r3, [r2, #104]	; 0x68
   82660:	f013 0f01 	tst.w	r3, #1
   82664:	d0fb      	beq.n	8265e <pmc_switch_mainck_to_xtal+0x2e>

		PMC->CKGR_MOR |= CKGR_MOR_KEY_PASSWD | CKGR_MOR_MOSCSEL;
   82666:	4a04      	ldr	r2, [pc, #16]	; (82678 <pmc_switch_mainck_to_xtal+0x48>)
   82668:	6a13      	ldr	r3, [r2, #32]
   8266a:	f043 739b 	orr.w	r3, r3, #20316160	; 0x1360000
   8266e:	f443 3380 	orr.w	r3, r3, #65536	; 0x10000
   82672:	6213      	str	r3, [r2, #32]
   82674:	4770      	bx	lr
   82676:	bf00      	nop
   82678:	400e0600 	.word	0x400e0600
   8267c:	fec8fffc 	.word	0xfec8fffc
   82680:	01370002 	.word	0x01370002

00082684 <pmc_osc_is_ready_mainck>:
 * \retval 1 Xtal is ready.
 * \retval 0 Xtal is not ready.
 */
uint32_t pmc_osc_is_ready_mainck(void)
{
	return PMC->PMC_SR & PMC_SR_MOSCSELS;
   82684:	4b02      	ldr	r3, [pc, #8]	; (82690 <pmc_osc_is_ready_mainck+0xc>)
   82686:	6e98      	ldr	r0, [r3, #104]	; 0x68
}
   82688:	f400 3080 	and.w	r0, r0, #65536	; 0x10000
   8268c:	4770      	bx	lr
   8268e:	bf00      	nop
   82690:	400e0600 	.word	0x400e0600

00082694 <pmc_disable_pllack>:
void pmc_disable_pllack(void)
{
#if (SAM4C || SAM4CM || SAM4CP || SAMG)
	PMC->CKGR_PLLAR = CKGR_PLLAR_MULA(0);
#else
	PMC->CKGR_PLLAR = CKGR_PLLAR_ONE | CKGR_PLLAR_MULA(0);
   82694:	f04f 5200 	mov.w	r2, #536870912	; 0x20000000
   82698:	4b01      	ldr	r3, [pc, #4]	; (826a0 <pmc_disable_pllack+0xc>)
   8269a:	629a      	str	r2, [r3, #40]	; 0x28
   8269c:	4770      	bx	lr
   8269e:	bf00      	nop
   826a0:	400e0600 	.word	0x400e0600

000826a4 <pmc_is_locked_pllack>:
 * \retval 0 Not locked.
 * \retval 1 Locked.
 */
uint32_t pmc_is_locked_pllack(void)
{
	return (PMC->PMC_SR & PMC_SR_LOCKA);
   826a4:	4b02      	ldr	r3, [pc, #8]	; (826b0 <pmc_is_locked_pllack+0xc>)
   826a6:	6e98      	ldr	r0, [r3, #104]	; 0x68
}
   826a8:	f000 0002 	and.w	r0, r0, #2
   826ac:	4770      	bx	lr
   826ae:	bf00      	nop
   826b0:	400e0600 	.word	0x400e0600

000826b4 <pmc_enable_periph_clk>:
 * \retval 0 Success.
 * \retval 1 Invalid parameter.
 */
uint32_t pmc_enable_periph_clk(uint32_t ul_id)
{
	if (ul_id > MAX_PERIPH_ID) {
   826b4:	282c      	cmp	r0, #44	; 0x2c
   826b6:	d81e      	bhi.n	826f6 <pmc_enable_periph_clk+0x42>
		return 1;
	}

	if (ul_id < 32) {
   826b8:	281f      	cmp	r0, #31
   826ba:	d80c      	bhi.n	826d6 <pmc_enable_periph_clk+0x22>
		if ((PMC->PMC_PCSR0 & (1u << ul_id)) != (1u << ul_id)) {
   826bc:	4b11      	ldr	r3, [pc, #68]	; (82704 <pmc_enable_periph_clk+0x50>)
   826be:	699a      	ldr	r2, [r3, #24]
   826c0:	2301      	movs	r3, #1
   826c2:	4083      	lsls	r3, r0
   826c4:	401a      	ands	r2, r3
   826c6:	4293      	cmp	r3, r2
   826c8:	d017      	beq.n	826fa <pmc_enable_periph_clk+0x46>
			PMC->PMC_PCER0 = 1 << ul_id;
   826ca:	2301      	movs	r3, #1
   826cc:	4083      	lsls	r3, r0
   826ce:	4a0d      	ldr	r2, [pc, #52]	; (82704 <pmc_enable_periph_clk+0x50>)
   826d0:	6113      	str	r3, [r2, #16]
			PMC->PMC_PCER1 = 1 << ul_id;
		}
#endif
	}

	return 0;
   826d2:	2000      	movs	r0, #0
   826d4:	4770      	bx	lr
			PMC->PMC_PCER0 = 1 << ul_id;
		}
#if (SAM3S || SAM3XA || SAM4S || SAM4E || SAM4C || SAM4CM || SAM4CP || SAMG55 || SAMV71 || SAMV70 || SAME70 || SAMS70)
	} else {
		ul_id -= 32;
		if ((PMC->PMC_PCSR1 & (1u << ul_id)) != (1u << ul_id)) {
   826d6:	4b0b      	ldr	r3, [pc, #44]	; (82704 <pmc_enable_periph_clk+0x50>)
   826d8:	f8d3 2108 	ldr.w	r2, [r3, #264]	; 0x108
		if ((PMC->PMC_PCSR0 & (1u << ul_id)) != (1u << ul_id)) {
			PMC->PMC_PCER0 = 1 << ul_id;
		}
#if (SAM3S || SAM3XA || SAM4S || SAM4E || SAM4C || SAM4CM || SAM4CP || SAMG55 || SAMV71 || SAMV70 || SAME70 || SAMS70)
	} else {
		ul_id -= 32;
   826dc:	3820      	subs	r0, #32
		if ((PMC->PMC_PCSR1 & (1u << ul_id)) != (1u << ul_id)) {
   826de:	2301      	movs	r3, #1
   826e0:	4083      	lsls	r3, r0
   826e2:	401a      	ands	r2, r3
   826e4:	4293      	cmp	r3, r2
   826e6:	d00a      	beq.n	826fe <pmc_enable_periph_clk+0x4a>
			PMC->PMC_PCER1 = 1 << ul_id;
   826e8:	2301      	movs	r3, #1
   826ea:	4083      	lsls	r3, r0
   826ec:	4a05      	ldr	r2, [pc, #20]	; (82704 <pmc_enable_periph_clk+0x50>)
   826ee:	f8c2 3100 	str.w	r3, [r2, #256]	; 0x100
		}
#endif
	}

	return 0;
   826f2:	2000      	movs	r0, #0
   826f4:	4770      	bx	lr
 * \retval 1 Invalid parameter.
 */
uint32_t pmc_enable_periph_clk(uint32_t ul_id)
{
	if (ul_id > MAX_PERIPH_ID) {
		return 1;
   826f6:	2001      	movs	r0, #1
   826f8:	4770      	bx	lr
			PMC->PMC_PCER1 = 1 << ul_id;
		}
#endif
	}

	return 0;
   826fa:	2000      	movs	r0, #0
   826fc:	4770      	bx	lr
   826fe:	2000      	movs	r0, #0
}
   82700:	4770      	bx	lr
   82702:	bf00      	nop
   82704:	400e0600 	.word	0x400e0600

00082708 <Dummy_Handler>:
 * \brief Default interrupt handler for unused IRQs.
 */
void Dummy_Handler(void)
{
	while (1) {
	}
   82708:	e7fe      	b.n	82708 <Dummy_Handler>
   8270a:	bf00      	nop

0008270c <Reset_Handler>:
/**
 * \brief This is the code that gets called on processor reset.
 * To initialize the device, and call the main() routine.
 */
void Reset_Handler(void)
{
   8270c:	b508      	push	{r3, lr}

	/* Initialize the relocate segment */
	pSrc = &_etext;
	pDest = &_srelocate;

	if (pSrc != pDest) {
   8270e:	4b1f      	ldr	r3, [pc, #124]	; (8278c <Reset_Handler+0x80>)
   82710:	4a1f      	ldr	r2, [pc, #124]	; (82790 <Reset_Handler+0x84>)
   82712:	429a      	cmp	r2, r3
   82714:	d003      	beq.n	8271e <Reset_Handler+0x12>
		for (; pDest < &_erelocate;) {
   82716:	4b1f      	ldr	r3, [pc, #124]	; (82794 <Reset_Handler+0x88>)
   82718:	4a1c      	ldr	r2, [pc, #112]	; (8278c <Reset_Handler+0x80>)
   8271a:	429a      	cmp	r2, r3
   8271c:	d304      	bcc.n	82728 <Reset_Handler+0x1c>
			*pDest++ = *pSrc++;
		}
	}

	/* Clear the zero segment */
	for (pDest = &_szero; pDest < &_ezero;) {
   8271e:	4b1e      	ldr	r3, [pc, #120]	; (82798 <Reset_Handler+0x8c>)
   82720:	4a1e      	ldr	r2, [pc, #120]	; (8279c <Reset_Handler+0x90>)
   82722:	429a      	cmp	r2, r3
   82724:	d310      	bcc.n	82748 <Reset_Handler+0x3c>
   82726:	e01b      	b.n	82760 <Reset_Handler+0x54>
   82728:	4918      	ldr	r1, [pc, #96]	; (8278c <Reset_Handler+0x80>)
   8272a:	1d0a      	adds	r2, r1, #4
   8272c:	4b1c      	ldr	r3, [pc, #112]	; (827a0 <Reset_Handler+0x94>)
   8272e:	1a9b      	subs	r3, r3, r2
   82730:	f023 0303 	bic.w	r3, r3, #3
   82734:	3304      	adds	r3, #4
   82736:	4a16      	ldr	r2, [pc, #88]	; (82790 <Reset_Handler+0x84>)
   82738:	4413      	add	r3, r2
	pSrc = &_etext;
	pDest = &_srelocate;

	if (pSrc != pDest) {
		for (; pDest < &_erelocate;) {
			*pDest++ = *pSrc++;
   8273a:	f852 0b04 	ldr.w	r0, [r2], #4
   8273e:	f841 0b04 	str.w	r0, [r1], #4
	/* Initialize the relocate segment */
	pSrc = &_etext;
	pDest = &_srelocate;

	if (pSrc != pDest) {
		for (; pDest < &_erelocate;) {
   82742:	429a      	cmp	r2, r3
   82744:	d1f9      	bne.n	8273a <Reset_Handler+0x2e>
   82746:	e7ea      	b.n	8271e <Reset_Handler+0x12>
   82748:	4b16      	ldr	r3, [pc, #88]	; (827a4 <Reset_Handler+0x98>)
   8274a:	4a17      	ldr	r2, [pc, #92]	; (827a8 <Reset_Handler+0x9c>)
   8274c:	1ad2      	subs	r2, r2, r3
   8274e:	f022 0203 	bic.w	r2, r2, #3
   82752:	441a      	add	r2, r3
			*pDest++ = *pSrc++;
		}
	}

	/* Clear the zero segment */
	for (pDest = &_szero; pDest < &_ezero;) {
   82754:	3b04      	subs	r3, #4
		*pDest++ = 0;
   82756:	2100      	movs	r1, #0
   82758:	f843 1b04 	str.w	r1, [r3], #4
			*pDest++ = *pSrc++;
		}
	}

	/* Clear the zero segment */
	for (pDest = &_szero; pDest < &_ezero;) {
   8275c:	4293      	cmp	r3, r2
   8275e:	d1fb      	bne.n	82758 <Reset_Handler+0x4c>
		*pDest++ = 0;
	}

	/* Set the vector table base address */
	pSrc = (uint32_t *) & _sfixed;
	SCB->VTOR = ((uint32_t) pSrc & SCB_VTOR_TBLOFF_Msk);
   82760:	4b12      	ldr	r3, [pc, #72]	; (827ac <Reset_Handler+0xa0>)
   82762:	f023 4260 	bic.w	r2, r3, #3758096384	; 0xe0000000
   82766:	f022 027f 	bic.w	r2, r2, #127	; 0x7f
   8276a:	4911      	ldr	r1, [pc, #68]	; (827b0 <Reset_Handler+0xa4>)
   8276c:	608a      	str	r2, [r1, #8]

	if (((uint32_t) pSrc >= IRAM0_ADDR) && ((uint32_t) pSrc < NFC_RAM_ADDR)) {
   8276e:	f103 4360 	add.w	r3, r3, #3758096384	; 0xe0000000
   82772:	f5b3 1f80 	cmp.w	r3, #1048576	; 0x100000
   82776:	d203      	bcs.n	82780 <Reset_Handler+0x74>
		SCB->VTOR |= 1 << SCB_VTOR_TBLBASE_Pos;
   82778:	688b      	ldr	r3, [r1, #8]
   8277a:	f043 5300 	orr.w	r3, r3, #536870912	; 0x20000000
   8277e:	608b      	str	r3, [r1, #8]
	}

	/* Initialize the C library */
	__libc_init_array();
   82780:	4b0c      	ldr	r3, [pc, #48]	; (827b4 <Reset_Handler+0xa8>)
   82782:	4798      	blx	r3

	/* Branch to main function */
	main();
   82784:	4b0c      	ldr	r3, [pc, #48]	; (827b8 <Reset_Handler+0xac>)
   82786:	4798      	blx	r3

	/* Infinite loop */
	while (1);
   82788:	e7fe      	b.n	82788 <Reset_Handler+0x7c>
   8278a:	bf00      	nop
   8278c:	20070000 	.word	0x20070000
   82790:	000869ac 	.word	0x000869ac
   82794:	200709b0 	.word	0x200709b0
   82798:	20078dd8 	.word	0x20078dd8
   8279c:	200709b0 	.word	0x200709b0
   827a0:	200709b3 	.word	0x200709b3
   827a4:	200709b4 	.word	0x200709b4
   827a8:	20078ddb 	.word	0x20078ddb
   827ac:	00080000 	.word	0x00080000
   827b0:	e000ed00 	.word	0xe000ed00
   827b4:	0008341d 	.word	0x0008341d
   827b8:	000807c1 	.word	0x000807c1

000827bc <SystemCoreClockUpdate>:
}

void SystemCoreClockUpdate(void)
{
	/* Determine clock frequency according to clock register values */
	switch (PMC->PMC_MCKR & PMC_MCKR_CSS_Msk) {
   827bc:	4b3e      	ldr	r3, [pc, #248]	; (828b8 <SystemCoreClockUpdate+0xfc>)
   827be:	6b1b      	ldr	r3, [r3, #48]	; 0x30
   827c0:	f003 0303 	and.w	r3, r3, #3
   827c4:	2b03      	cmp	r3, #3
   827c6:	d85f      	bhi.n	82888 <SystemCoreClockUpdate+0xcc>
   827c8:	e8df f003 	tbb	[pc, r3]
   827cc:	2b2b0e02 	.word	0x2b2b0e02
	case PMC_MCKR_CSS_SLOW_CLK:	/* Slow clock */
		if (SUPC->SUPC_SR & SUPC_SR_OSCSEL) {
   827d0:	4b3a      	ldr	r3, [pc, #232]	; (828bc <SystemCoreClockUpdate+0x100>)
   827d2:	695b      	ldr	r3, [r3, #20]
   827d4:	f013 0f80 	tst.w	r3, #128	; 0x80
			SystemCoreClock = CHIP_FREQ_XTAL_32K;
   827d8:	bf14      	ite	ne
   827da:	f44f 4200 	movne.w	r2, #32768	; 0x8000
		} else {
			SystemCoreClock = CHIP_FREQ_SLCK_RC;
   827de:	f44f 42fa 	moveq.w	r2, #32000	; 0x7d00
   827e2:	4b37      	ldr	r3, [pc, #220]	; (828c0 <SystemCoreClockUpdate+0x104>)
   827e4:	601a      	str	r2, [r3, #0]
   827e6:	e04f      	b.n	82888 <SystemCoreClockUpdate+0xcc>
		}
		break;
	case PMC_MCKR_CSS_MAIN_CLK:	/* Main clock */
		if (PMC->CKGR_MOR & CKGR_MOR_MOSCSEL) {
   827e8:	4b33      	ldr	r3, [pc, #204]	; (828b8 <SystemCoreClockUpdate+0xfc>)
   827ea:	6a1b      	ldr	r3, [r3, #32]
   827ec:	f013 7f80 	tst.w	r3, #16777216	; 0x1000000
   827f0:	d003      	beq.n	827fa <SystemCoreClockUpdate+0x3e>
			SystemCoreClock = CHIP_FREQ_XTAL_12M;
   827f2:	4a34      	ldr	r2, [pc, #208]	; (828c4 <SystemCoreClockUpdate+0x108>)
   827f4:	4b32      	ldr	r3, [pc, #200]	; (828c0 <SystemCoreClockUpdate+0x104>)
   827f6:	601a      	str	r2, [r3, #0]
   827f8:	e046      	b.n	82888 <SystemCoreClockUpdate+0xcc>
		} else {
			SystemCoreClock = CHIP_FREQ_MAINCK_RC_4MHZ;
   827fa:	4a33      	ldr	r2, [pc, #204]	; (828c8 <SystemCoreClockUpdate+0x10c>)
   827fc:	4b30      	ldr	r3, [pc, #192]	; (828c0 <SystemCoreClockUpdate+0x104>)
   827fe:	601a      	str	r2, [r3, #0]

			switch (PMC->CKGR_MOR & CKGR_MOR_MOSCRCF_Msk) {
   82800:	4b2d      	ldr	r3, [pc, #180]	; (828b8 <SystemCoreClockUpdate+0xfc>)
   82802:	6a1b      	ldr	r3, [r3, #32]
   82804:	f003 0370 	and.w	r3, r3, #112	; 0x70
   82808:	2b10      	cmp	r3, #16
   8280a:	d002      	beq.n	82812 <SystemCoreClockUpdate+0x56>
   8280c:	2b20      	cmp	r3, #32
   8280e:	d004      	beq.n	8281a <SystemCoreClockUpdate+0x5e>
   82810:	e03a      	b.n	82888 <SystemCoreClockUpdate+0xcc>
			case CKGR_MOR_MOSCRCF_4_MHz:
				break;
			case CKGR_MOR_MOSCRCF_8_MHz:
				SystemCoreClock *= 2U;
   82812:	4a2e      	ldr	r2, [pc, #184]	; (828cc <SystemCoreClockUpdate+0x110>)
   82814:	4b2a      	ldr	r3, [pc, #168]	; (828c0 <SystemCoreClockUpdate+0x104>)
   82816:	601a      	str	r2, [r3, #0]
				break;
   82818:	e036      	b.n	82888 <SystemCoreClockUpdate+0xcc>
			case CKGR_MOR_MOSCRCF_12_MHz:
				SystemCoreClock *= 3U;
   8281a:	4a2a      	ldr	r2, [pc, #168]	; (828c4 <SystemCoreClockUpdate+0x108>)
   8281c:	4b28      	ldr	r3, [pc, #160]	; (828c0 <SystemCoreClockUpdate+0x104>)
   8281e:	601a      	str	r2, [r3, #0]
				break;
   82820:	e032      	b.n	82888 <SystemCoreClockUpdate+0xcc>
			}
		}
		break;
	case PMC_MCKR_CSS_PLLA_CLK:	/* PLLA clock */
	case PMC_MCKR_CSS_UPLL_CLK:	/* UPLL clock */
		if (PMC->CKGR_MOR & CKGR_MOR_MOSCSEL) {
   82822:	4b25      	ldr	r3, [pc, #148]	; (828b8 <SystemCoreClockUpdate+0xfc>)
   82824:	6a1b      	ldr	r3, [r3, #32]
   82826:	f013 7f80 	tst.w	r3, #16777216	; 0x1000000
   8282a:	d003      	beq.n	82834 <SystemCoreClockUpdate+0x78>
			SystemCoreClock = CHIP_FREQ_XTAL_12M;
   8282c:	4a25      	ldr	r2, [pc, #148]	; (828c4 <SystemCoreClockUpdate+0x108>)
   8282e:	4b24      	ldr	r3, [pc, #144]	; (828c0 <SystemCoreClockUpdate+0x104>)
   82830:	601a      	str	r2, [r3, #0]
   82832:	e012      	b.n	8285a <SystemCoreClockUpdate+0x9e>
		} else {
			SystemCoreClock = CHIP_FREQ_MAINCK_RC_4MHZ;
   82834:	4a24      	ldr	r2, [pc, #144]	; (828c8 <SystemCoreClockUpdate+0x10c>)
   82836:	4b22      	ldr	r3, [pc, #136]	; (828c0 <SystemCoreClockUpdate+0x104>)
   82838:	601a      	str	r2, [r3, #0]

			switch (PMC->CKGR_MOR & CKGR_MOR_MOSCRCF_Msk) {
   8283a:	4b1f      	ldr	r3, [pc, #124]	; (828b8 <SystemCoreClockUpdate+0xfc>)
   8283c:	6a1b      	ldr	r3, [r3, #32]
   8283e:	f003 0370 	and.w	r3, r3, #112	; 0x70
   82842:	2b10      	cmp	r3, #16
   82844:	d002      	beq.n	8284c <SystemCoreClockUpdate+0x90>
   82846:	2b20      	cmp	r3, #32
   82848:	d004      	beq.n	82854 <SystemCoreClockUpdate+0x98>
   8284a:	e006      	b.n	8285a <SystemCoreClockUpdate+0x9e>
			case CKGR_MOR_MOSCRCF_4_MHz:
				break;
			case CKGR_MOR_MOSCRCF_8_MHz:
				SystemCoreClock *= 2U;
   8284c:	4a1f      	ldr	r2, [pc, #124]	; (828cc <SystemCoreClockUpdate+0x110>)
   8284e:	4b1c      	ldr	r3, [pc, #112]	; (828c0 <SystemCoreClockUpdate+0x104>)
   82850:	601a      	str	r2, [r3, #0]
				break;
   82852:	e002      	b.n	8285a <SystemCoreClockUpdate+0x9e>
			case CKGR_MOR_MOSCRCF_12_MHz:
				SystemCoreClock *= 3U;
   82854:	4a1b      	ldr	r2, [pc, #108]	; (828c4 <SystemCoreClockUpdate+0x108>)
   82856:	4b1a      	ldr	r3, [pc, #104]	; (828c0 <SystemCoreClockUpdate+0x104>)
   82858:	601a      	str	r2, [r3, #0]
				break;
			default:
				break;
			}
		}
		if ((PMC->PMC_MCKR & PMC_MCKR_CSS_Msk) == PMC_MCKR_CSS_PLLA_CLK) {
   8285a:	4b17      	ldr	r3, [pc, #92]	; (828b8 <SystemCoreClockUpdate+0xfc>)
   8285c:	6b1b      	ldr	r3, [r3, #48]	; 0x30
   8285e:	f003 0303 	and.w	r3, r3, #3
   82862:	2b02      	cmp	r3, #2
   82864:	d10d      	bne.n	82882 <SystemCoreClockUpdate+0xc6>
			SystemCoreClock *= ((((PMC->CKGR_PLLAR) & CKGR_PLLAR_MULA_Msk) >> 
   82866:	4a14      	ldr	r2, [pc, #80]	; (828b8 <SystemCoreClockUpdate+0xfc>)
   82868:	6a93      	ldr	r3, [r2, #40]	; 0x28
				                            CKGR_PLLAR_MULA_Pos) + 1U);
			SystemCoreClock /= ((((PMC->CKGR_PLLAR) & CKGR_PLLAR_DIVA_Msk) >> 
   8286a:	6a92      	ldr	r2, [r2, #40]	; 0x28
   8286c:	4814      	ldr	r0, [pc, #80]	; (828c0 <SystemCoreClockUpdate+0x104>)
			default:
				break;
			}
		}
		if ((PMC->PMC_MCKR & PMC_MCKR_CSS_Msk) == PMC_MCKR_CSS_PLLA_CLK) {
			SystemCoreClock *= ((((PMC->CKGR_PLLAR) & CKGR_PLLAR_MULA_Msk) >> 
   8286e:	f3c3 410a 	ubfx	r1, r3, #16, #11
   82872:	6803      	ldr	r3, [r0, #0]
   82874:	fb01 3303 	mla	r3, r1, r3, r3
				                            CKGR_PLLAR_MULA_Pos) + 1U);
			SystemCoreClock /= ((((PMC->CKGR_PLLAR) & CKGR_PLLAR_DIVA_Msk) >> 
   82878:	b2d2      	uxtb	r2, r2
   8287a:	fbb3 f3f2 	udiv	r3, r3, r2
   8287e:	6003      	str	r3, [r0, #0]
   82880:	e002      	b.n	82888 <SystemCoreClockUpdate+0xcc>
				                             CKGR_PLLAR_DIVA_Pos));
		} else {
			SystemCoreClock = SYS_UTMIPLL / 2U;
   82882:	4a13      	ldr	r2, [pc, #76]	; (828d0 <SystemCoreClockUpdate+0x114>)
   82884:	4b0e      	ldr	r3, [pc, #56]	; (828c0 <SystemCoreClockUpdate+0x104>)
   82886:	601a      	str	r2, [r3, #0]
		}
		break;
	}

	if ((PMC->PMC_MCKR & PMC_MCKR_PRES_Msk) == PMC_MCKR_PRES_CLK_3) {
   82888:	4b0b      	ldr	r3, [pc, #44]	; (828b8 <SystemCoreClockUpdate+0xfc>)
   8288a:	6b1b      	ldr	r3, [r3, #48]	; 0x30
   8288c:	f003 0370 	and.w	r3, r3, #112	; 0x70
   82890:	2b70      	cmp	r3, #112	; 0x70
   82892:	d107      	bne.n	828a4 <SystemCoreClockUpdate+0xe8>
		SystemCoreClock /= 3U;
   82894:	4a0a      	ldr	r2, [pc, #40]	; (828c0 <SystemCoreClockUpdate+0x104>)
   82896:	6813      	ldr	r3, [r2, #0]
   82898:	490e      	ldr	r1, [pc, #56]	; (828d4 <SystemCoreClockUpdate+0x118>)
   8289a:	fba1 1303 	umull	r1, r3, r1, r3
   8289e:	085b      	lsrs	r3, r3, #1
   828a0:	6013      	str	r3, [r2, #0]
   828a2:	4770      	bx	lr
	} else {
		SystemCoreClock >>= ((PMC->PMC_MCKR & PMC_MCKR_PRES_Msk) >> 
   828a4:	4b04      	ldr	r3, [pc, #16]	; (828b8 <SystemCoreClockUpdate+0xfc>)
   828a6:	6b1a      	ldr	r2, [r3, #48]	; 0x30
   828a8:	4905      	ldr	r1, [pc, #20]	; (828c0 <SystemCoreClockUpdate+0x104>)
   828aa:	f3c2 1202 	ubfx	r2, r2, #4, #3
   828ae:	680b      	ldr	r3, [r1, #0]
   828b0:	40d3      	lsrs	r3, r2
   828b2:	600b      	str	r3, [r1, #0]
   828b4:	4770      	bx	lr
   828b6:	bf00      	nop
   828b8:	400e0600 	.word	0x400e0600
   828bc:	400e1a10 	.word	0x400e1a10
   828c0:	20070144 	.word	0x20070144
   828c4:	00b71b00 	.word	0x00b71b00
   828c8:	003d0900 	.word	0x003d0900
   828cc:	007a1200 	.word	0x007a1200
   828d0:	0e4e1c00 	.word	0x0e4e1c00
   828d4:	aaaaaaab 	.word	0xaaaaaaab

000828d8 <_sbrk>:
{
	static unsigned char *heap = NULL;
	unsigned char *prev_heap;
	int ramend = (int)&__ram_end__;

	if (heap == NULL) {
   828d8:	4b09      	ldr	r3, [pc, #36]	; (82900 <_sbrk+0x28>)
   828da:	681b      	ldr	r3, [r3, #0]
   828dc:	b913      	cbnz	r3, 828e4 <_sbrk+0xc>
		heap = (unsigned char *)&_end;
   828de:	4a09      	ldr	r2, [pc, #36]	; (82904 <_sbrk+0x2c>)
   828e0:	4b07      	ldr	r3, [pc, #28]	; (82900 <_sbrk+0x28>)
   828e2:	601a      	str	r2, [r3, #0]
	}
	prev_heap = heap;
   828e4:	4b06      	ldr	r3, [pc, #24]	; (82900 <_sbrk+0x28>)
   828e6:	681b      	ldr	r3, [r3, #0]

	if (((int)prev_heap + incr) > ramend) {
   828e8:	181a      	adds	r2, r3, r0
   828ea:	4907      	ldr	r1, [pc, #28]	; (82908 <_sbrk+0x30>)
   828ec:	4291      	cmp	r1, r2
   828ee:	db04      	blt.n	828fa <_sbrk+0x22>
		return (caddr_t) -1;	
	}

	heap += incr;
   828f0:	4610      	mov	r0, r2
   828f2:	4a03      	ldr	r2, [pc, #12]	; (82900 <_sbrk+0x28>)
   828f4:	6010      	str	r0, [r2, #0]

	return (caddr_t) prev_heap;
   828f6:	4618      	mov	r0, r3
   828f8:	4770      	bx	lr
		heap = (unsigned char *)&_end;
	}
	prev_heap = heap;

	if (((int)prev_heap + incr) > ramend) {
		return (caddr_t) -1;	
   828fa:	f04f 30ff 	mov.w	r0, #4294967295
	}

	heap += incr;

	return (caddr_t) prev_heap;
}
   828fe:	4770      	bx	lr
   82900:	20078d90 	.word	0x20078d90
   82904:	2007add8 	.word	0x2007add8
   82908:	20087ffc 	.word	0x20087ffc

0008290c <_close>:
}

extern int _close(int file)
{
	return -1;
}
   8290c:	f04f 30ff 	mov.w	r0, #4294967295
   82910:	4770      	bx	lr
   82912:	bf00      	nop

00082914 <_fstat>:

extern int _fstat(int file, struct stat *st)
{
	st->st_mode = S_IFCHR;
   82914:	f44f 5300 	mov.w	r3, #8192	; 0x2000
   82918:	604b      	str	r3, [r1, #4]

	return 0;
}
   8291a:	2000      	movs	r0, #0
   8291c:	4770      	bx	lr
   8291e:	bf00      	nop

00082920 <_isatty>:

extern int _isatty(int file)
{
	return 1;
}
   82920:	2001      	movs	r0, #1
   82922:	4770      	bx	lr

00082924 <_lseek>:

extern int _lseek(int file, int ptr, int dir)
{
	return 0;
}
   82924:	2000      	movs	r0, #0
   82926:	4770      	bx	lr

00082928 <__aeabi_drsub>:
   82928:	f081 4100 	eor.w	r1, r1, #2147483648	; 0x80000000
   8292c:	e002      	b.n	82934 <__adddf3>
   8292e:	bf00      	nop

00082930 <__aeabi_dsub>:
   82930:	f083 4300 	eor.w	r3, r3, #2147483648	; 0x80000000

00082934 <__adddf3>:
   82934:	b530      	push	{r4, r5, lr}
   82936:	ea4f 0441 	mov.w	r4, r1, lsl #1
   8293a:	ea4f 0543 	mov.w	r5, r3, lsl #1
   8293e:	ea94 0f05 	teq	r4, r5
   82942:	bf08      	it	eq
   82944:	ea90 0f02 	teqeq	r0, r2
   82948:	bf1f      	itttt	ne
   8294a:	ea54 0c00 	orrsne.w	ip, r4, r0
   8294e:	ea55 0c02 	orrsne.w	ip, r5, r2
   82952:	ea7f 5c64 	mvnsne.w	ip, r4, asr #21
   82956:	ea7f 5c65 	mvnsne.w	ip, r5, asr #21
   8295a:	f000 80e2 	beq.w	82b22 <__adddf3+0x1ee>
   8295e:	ea4f 5454 	mov.w	r4, r4, lsr #21
   82962:	ebd4 5555 	rsbs	r5, r4, r5, lsr #21
   82966:	bfb8      	it	lt
   82968:	426d      	neglt	r5, r5
   8296a:	dd0c      	ble.n	82986 <__adddf3+0x52>
   8296c:	442c      	add	r4, r5
   8296e:	ea80 0202 	eor.w	r2, r0, r2
   82972:	ea81 0303 	eor.w	r3, r1, r3
   82976:	ea82 0000 	eor.w	r0, r2, r0
   8297a:	ea83 0101 	eor.w	r1, r3, r1
   8297e:	ea80 0202 	eor.w	r2, r0, r2
   82982:	ea81 0303 	eor.w	r3, r1, r3
   82986:	2d36      	cmp	r5, #54	; 0x36
   82988:	bf88      	it	hi
   8298a:	bd30      	pophi	{r4, r5, pc}
   8298c:	f011 4f00 	tst.w	r1, #2147483648	; 0x80000000
   82990:	ea4f 3101 	mov.w	r1, r1, lsl #12
   82994:	f44f 1c80 	mov.w	ip, #1048576	; 0x100000
   82998:	ea4c 3111 	orr.w	r1, ip, r1, lsr #12
   8299c:	d002      	beq.n	829a4 <__adddf3+0x70>
   8299e:	4240      	negs	r0, r0
   829a0:	eb61 0141 	sbc.w	r1, r1, r1, lsl #1
   829a4:	f013 4f00 	tst.w	r3, #2147483648	; 0x80000000
   829a8:	ea4f 3303 	mov.w	r3, r3, lsl #12
   829ac:	ea4c 3313 	orr.w	r3, ip, r3, lsr #12
   829b0:	d002      	beq.n	829b8 <__adddf3+0x84>
   829b2:	4252      	negs	r2, r2
   829b4:	eb63 0343 	sbc.w	r3, r3, r3, lsl #1
   829b8:	ea94 0f05 	teq	r4, r5
   829bc:	f000 80a7 	beq.w	82b0e <__adddf3+0x1da>
   829c0:	f1a4 0401 	sub.w	r4, r4, #1
   829c4:	f1d5 0e20 	rsbs	lr, r5, #32
   829c8:	db0d      	blt.n	829e6 <__adddf3+0xb2>
   829ca:	fa02 fc0e 	lsl.w	ip, r2, lr
   829ce:	fa22 f205 	lsr.w	r2, r2, r5
   829d2:	1880      	adds	r0, r0, r2
   829d4:	f141 0100 	adc.w	r1, r1, #0
   829d8:	fa03 f20e 	lsl.w	r2, r3, lr
   829dc:	1880      	adds	r0, r0, r2
   829de:	fa43 f305 	asr.w	r3, r3, r5
   829e2:	4159      	adcs	r1, r3
   829e4:	e00e      	b.n	82a04 <__adddf3+0xd0>
   829e6:	f1a5 0520 	sub.w	r5, r5, #32
   829ea:	f10e 0e20 	add.w	lr, lr, #32
   829ee:	2a01      	cmp	r2, #1
   829f0:	fa03 fc0e 	lsl.w	ip, r3, lr
   829f4:	bf28      	it	cs
   829f6:	f04c 0c02 	orrcs.w	ip, ip, #2
   829fa:	fa43 f305 	asr.w	r3, r3, r5
   829fe:	18c0      	adds	r0, r0, r3
   82a00:	eb51 71e3 	adcs.w	r1, r1, r3, asr #31
   82a04:	f001 4500 	and.w	r5, r1, #2147483648	; 0x80000000
   82a08:	d507      	bpl.n	82a1a <__adddf3+0xe6>
   82a0a:	f04f 0e00 	mov.w	lr, #0
   82a0e:	f1dc 0c00 	rsbs	ip, ip, #0
   82a12:	eb7e 0000 	sbcs.w	r0, lr, r0
   82a16:	eb6e 0101 	sbc.w	r1, lr, r1
   82a1a:	f5b1 1f80 	cmp.w	r1, #1048576	; 0x100000
   82a1e:	d31b      	bcc.n	82a58 <__adddf3+0x124>
   82a20:	f5b1 1f00 	cmp.w	r1, #2097152	; 0x200000
   82a24:	d30c      	bcc.n	82a40 <__adddf3+0x10c>
   82a26:	0849      	lsrs	r1, r1, #1
   82a28:	ea5f 0030 	movs.w	r0, r0, rrx
   82a2c:	ea4f 0c3c 	mov.w	ip, ip, rrx
   82a30:	f104 0401 	add.w	r4, r4, #1
   82a34:	ea4f 5244 	mov.w	r2, r4, lsl #21
   82a38:	f512 0f80 	cmn.w	r2, #4194304	; 0x400000
   82a3c:	f080 809a 	bcs.w	82b74 <__adddf3+0x240>
   82a40:	f1bc 4f00 	cmp.w	ip, #2147483648	; 0x80000000
   82a44:	bf08      	it	eq
   82a46:	ea5f 0c50 	movseq.w	ip, r0, lsr #1
   82a4a:	f150 0000 	adcs.w	r0, r0, #0
   82a4e:	eb41 5104 	adc.w	r1, r1, r4, lsl #20
   82a52:	ea41 0105 	orr.w	r1, r1, r5
   82a56:	bd30      	pop	{r4, r5, pc}
   82a58:	ea5f 0c4c 	movs.w	ip, ip, lsl #1
   82a5c:	4140      	adcs	r0, r0
   82a5e:	eb41 0101 	adc.w	r1, r1, r1
   82a62:	f411 1f80 	tst.w	r1, #1048576	; 0x100000
   82a66:	f1a4 0401 	sub.w	r4, r4, #1
   82a6a:	d1e9      	bne.n	82a40 <__adddf3+0x10c>
   82a6c:	f091 0f00 	teq	r1, #0
   82a70:	bf04      	itt	eq
   82a72:	4601      	moveq	r1, r0
   82a74:	2000      	moveq	r0, #0
   82a76:	fab1 f381 	clz	r3, r1
   82a7a:	bf08      	it	eq
   82a7c:	3320      	addeq	r3, #32
   82a7e:	f1a3 030b 	sub.w	r3, r3, #11
   82a82:	f1b3 0220 	subs.w	r2, r3, #32
   82a86:	da0c      	bge.n	82aa2 <__adddf3+0x16e>
   82a88:	320c      	adds	r2, #12
   82a8a:	dd08      	ble.n	82a9e <__adddf3+0x16a>
   82a8c:	f102 0c14 	add.w	ip, r2, #20
   82a90:	f1c2 020c 	rsb	r2, r2, #12
   82a94:	fa01 f00c 	lsl.w	r0, r1, ip
   82a98:	fa21 f102 	lsr.w	r1, r1, r2
   82a9c:	e00c      	b.n	82ab8 <__adddf3+0x184>
   82a9e:	f102 0214 	add.w	r2, r2, #20
   82aa2:	bfd8      	it	le
   82aa4:	f1c2 0c20 	rsble	ip, r2, #32
   82aa8:	fa01 f102 	lsl.w	r1, r1, r2
   82aac:	fa20 fc0c 	lsr.w	ip, r0, ip
   82ab0:	bfdc      	itt	le
   82ab2:	ea41 010c 	orrle.w	r1, r1, ip
   82ab6:	4090      	lslle	r0, r2
   82ab8:	1ae4      	subs	r4, r4, r3
   82aba:	bfa2      	ittt	ge
   82abc:	eb01 5104 	addge.w	r1, r1, r4, lsl #20
   82ac0:	4329      	orrge	r1, r5
   82ac2:	bd30      	popge	{r4, r5, pc}
   82ac4:	ea6f 0404 	mvn.w	r4, r4
   82ac8:	3c1f      	subs	r4, #31
   82aca:	da1c      	bge.n	82b06 <__adddf3+0x1d2>
   82acc:	340c      	adds	r4, #12
   82ace:	dc0e      	bgt.n	82aee <__adddf3+0x1ba>
   82ad0:	f104 0414 	add.w	r4, r4, #20
   82ad4:	f1c4 0220 	rsb	r2, r4, #32
   82ad8:	fa20 f004 	lsr.w	r0, r0, r4
   82adc:	fa01 f302 	lsl.w	r3, r1, r2
   82ae0:	ea40 0003 	orr.w	r0, r0, r3
   82ae4:	fa21 f304 	lsr.w	r3, r1, r4
   82ae8:	ea45 0103 	orr.w	r1, r5, r3
   82aec:	bd30      	pop	{r4, r5, pc}
   82aee:	f1c4 040c 	rsb	r4, r4, #12
   82af2:	f1c4 0220 	rsb	r2, r4, #32
   82af6:	fa20 f002 	lsr.w	r0, r0, r2
   82afa:	fa01 f304 	lsl.w	r3, r1, r4
   82afe:	ea40 0003 	orr.w	r0, r0, r3
   82b02:	4629      	mov	r1, r5
   82b04:	bd30      	pop	{r4, r5, pc}
   82b06:	fa21 f004 	lsr.w	r0, r1, r4
   82b0a:	4629      	mov	r1, r5
   82b0c:	bd30      	pop	{r4, r5, pc}
   82b0e:	f094 0f00 	teq	r4, #0
   82b12:	f483 1380 	eor.w	r3, r3, #1048576	; 0x100000
   82b16:	bf06      	itte	eq
   82b18:	f481 1180 	eoreq.w	r1, r1, #1048576	; 0x100000
   82b1c:	3401      	addeq	r4, #1
   82b1e:	3d01      	subne	r5, #1
   82b20:	e74e      	b.n	829c0 <__adddf3+0x8c>
   82b22:	ea7f 5c64 	mvns.w	ip, r4, asr #21
   82b26:	bf18      	it	ne
   82b28:	ea7f 5c65 	mvnsne.w	ip, r5, asr #21
   82b2c:	d029      	beq.n	82b82 <__adddf3+0x24e>
   82b2e:	ea94 0f05 	teq	r4, r5
   82b32:	bf08      	it	eq
   82b34:	ea90 0f02 	teqeq	r0, r2
   82b38:	d005      	beq.n	82b46 <__adddf3+0x212>
   82b3a:	ea54 0c00 	orrs.w	ip, r4, r0
   82b3e:	bf04      	itt	eq
   82b40:	4619      	moveq	r1, r3
   82b42:	4610      	moveq	r0, r2
   82b44:	bd30      	pop	{r4, r5, pc}
   82b46:	ea91 0f03 	teq	r1, r3
   82b4a:	bf1e      	ittt	ne
   82b4c:	2100      	movne	r1, #0
   82b4e:	2000      	movne	r0, #0
   82b50:	bd30      	popne	{r4, r5, pc}
   82b52:	ea5f 5c54 	movs.w	ip, r4, lsr #21
   82b56:	d105      	bne.n	82b64 <__adddf3+0x230>
   82b58:	0040      	lsls	r0, r0, #1
   82b5a:	4149      	adcs	r1, r1
   82b5c:	bf28      	it	cs
   82b5e:	f041 4100 	orrcs.w	r1, r1, #2147483648	; 0x80000000
   82b62:	bd30      	pop	{r4, r5, pc}
   82b64:	f514 0480 	adds.w	r4, r4, #4194304	; 0x400000
   82b68:	bf3c      	itt	cc
   82b6a:	f501 1180 	addcc.w	r1, r1, #1048576	; 0x100000
   82b6e:	bd30      	popcc	{r4, r5, pc}
   82b70:	f001 4500 	and.w	r5, r1, #2147483648	; 0x80000000
   82b74:	f045 41fe 	orr.w	r1, r5, #2130706432	; 0x7f000000
   82b78:	f441 0170 	orr.w	r1, r1, #15728640	; 0xf00000
   82b7c:	f04f 0000 	mov.w	r0, #0
   82b80:	bd30      	pop	{r4, r5, pc}
   82b82:	ea7f 5c64 	mvns.w	ip, r4, asr #21
   82b86:	bf1a      	itte	ne
   82b88:	4619      	movne	r1, r3
   82b8a:	4610      	movne	r0, r2
   82b8c:	ea7f 5c65 	mvnseq.w	ip, r5, asr #21
   82b90:	bf1c      	itt	ne
   82b92:	460b      	movne	r3, r1
   82b94:	4602      	movne	r2, r0
   82b96:	ea50 3401 	orrs.w	r4, r0, r1, lsl #12
   82b9a:	bf06      	itte	eq
   82b9c:	ea52 3503 	orrseq.w	r5, r2, r3, lsl #12
   82ba0:	ea91 0f03 	teqeq	r1, r3
   82ba4:	f441 2100 	orrne.w	r1, r1, #524288	; 0x80000
   82ba8:	bd30      	pop	{r4, r5, pc}
   82baa:	bf00      	nop

00082bac <__aeabi_ui2d>:
   82bac:	f090 0f00 	teq	r0, #0
   82bb0:	bf04      	itt	eq
   82bb2:	2100      	moveq	r1, #0
   82bb4:	4770      	bxeq	lr
   82bb6:	b530      	push	{r4, r5, lr}
   82bb8:	f44f 6480 	mov.w	r4, #1024	; 0x400
   82bbc:	f104 0432 	add.w	r4, r4, #50	; 0x32
   82bc0:	f04f 0500 	mov.w	r5, #0
   82bc4:	f04f 0100 	mov.w	r1, #0
   82bc8:	e750      	b.n	82a6c <__adddf3+0x138>
   82bca:	bf00      	nop

00082bcc <__aeabi_i2d>:
   82bcc:	f090 0f00 	teq	r0, #0
   82bd0:	bf04      	itt	eq
   82bd2:	2100      	moveq	r1, #0
   82bd4:	4770      	bxeq	lr
   82bd6:	b530      	push	{r4, r5, lr}
   82bd8:	f44f 6480 	mov.w	r4, #1024	; 0x400
   82bdc:	f104 0432 	add.w	r4, r4, #50	; 0x32
   82be0:	f010 4500 	ands.w	r5, r0, #2147483648	; 0x80000000
   82be4:	bf48      	it	mi
   82be6:	4240      	negmi	r0, r0
   82be8:	f04f 0100 	mov.w	r1, #0
   82bec:	e73e      	b.n	82a6c <__adddf3+0x138>
   82bee:	bf00      	nop

00082bf0 <__aeabi_f2d>:
   82bf0:	0042      	lsls	r2, r0, #1
   82bf2:	ea4f 01e2 	mov.w	r1, r2, asr #3
   82bf6:	ea4f 0131 	mov.w	r1, r1, rrx
   82bfa:	ea4f 7002 	mov.w	r0, r2, lsl #28
   82bfe:	bf1f      	itttt	ne
   82c00:	f012 437f 	andsne.w	r3, r2, #4278190080	; 0xff000000
   82c04:	f093 4f7f 	teqne	r3, #4278190080	; 0xff000000
   82c08:	f081 5160 	eorne.w	r1, r1, #939524096	; 0x38000000
   82c0c:	4770      	bxne	lr
   82c0e:	f092 0f00 	teq	r2, #0
   82c12:	bf14      	ite	ne
   82c14:	f093 4f7f 	teqne	r3, #4278190080	; 0xff000000
   82c18:	4770      	bxeq	lr
   82c1a:	b530      	push	{r4, r5, lr}
   82c1c:	f44f 7460 	mov.w	r4, #896	; 0x380
   82c20:	f001 4500 	and.w	r5, r1, #2147483648	; 0x80000000
   82c24:	f021 4100 	bic.w	r1, r1, #2147483648	; 0x80000000
   82c28:	e720      	b.n	82a6c <__adddf3+0x138>
   82c2a:	bf00      	nop

00082c2c <__aeabi_ul2d>:
   82c2c:	ea50 0201 	orrs.w	r2, r0, r1
   82c30:	bf08      	it	eq
   82c32:	4770      	bxeq	lr
   82c34:	b530      	push	{r4, r5, lr}
   82c36:	f04f 0500 	mov.w	r5, #0
   82c3a:	e00a      	b.n	82c52 <__aeabi_l2d+0x16>

00082c3c <__aeabi_l2d>:
   82c3c:	ea50 0201 	orrs.w	r2, r0, r1
   82c40:	bf08      	it	eq
   82c42:	4770      	bxeq	lr
   82c44:	b530      	push	{r4, r5, lr}
   82c46:	f011 4500 	ands.w	r5, r1, #2147483648	; 0x80000000
   82c4a:	d502      	bpl.n	82c52 <__aeabi_l2d+0x16>
   82c4c:	4240      	negs	r0, r0
   82c4e:	eb61 0141 	sbc.w	r1, r1, r1, lsl #1
   82c52:	f44f 6480 	mov.w	r4, #1024	; 0x400
   82c56:	f104 0432 	add.w	r4, r4, #50	; 0x32
   82c5a:	ea5f 5c91 	movs.w	ip, r1, lsr #22
   82c5e:	f43f aedc 	beq.w	82a1a <__adddf3+0xe6>
   82c62:	f04f 0203 	mov.w	r2, #3
   82c66:	ea5f 0cdc 	movs.w	ip, ip, lsr #3
   82c6a:	bf18      	it	ne
   82c6c:	3203      	addne	r2, #3
   82c6e:	ea5f 0cdc 	movs.w	ip, ip, lsr #3
   82c72:	bf18      	it	ne
   82c74:	3203      	addne	r2, #3
   82c76:	eb02 02dc 	add.w	r2, r2, ip, lsr #3
   82c7a:	f1c2 0320 	rsb	r3, r2, #32
   82c7e:	fa00 fc03 	lsl.w	ip, r0, r3
   82c82:	fa20 f002 	lsr.w	r0, r0, r2
   82c86:	fa01 fe03 	lsl.w	lr, r1, r3
   82c8a:	ea40 000e 	orr.w	r0, r0, lr
   82c8e:	fa21 f102 	lsr.w	r1, r1, r2
   82c92:	4414      	add	r4, r2
   82c94:	e6c1      	b.n	82a1a <__adddf3+0xe6>
   82c96:	bf00      	nop

00082c98 <__aeabi_dmul>:
   82c98:	b570      	push	{r4, r5, r6, lr}
   82c9a:	f04f 0cff 	mov.w	ip, #255	; 0xff
   82c9e:	f44c 6ce0 	orr.w	ip, ip, #1792	; 0x700
   82ca2:	ea1c 5411 	ands.w	r4, ip, r1, lsr #20
   82ca6:	bf1d      	ittte	ne
   82ca8:	ea1c 5513 	andsne.w	r5, ip, r3, lsr #20
   82cac:	ea94 0f0c 	teqne	r4, ip
   82cb0:	ea95 0f0c 	teqne	r5, ip
   82cb4:	f000 f8de 	bleq	82e74 <__aeabi_dmul+0x1dc>
   82cb8:	442c      	add	r4, r5
   82cba:	ea81 0603 	eor.w	r6, r1, r3
   82cbe:	ea21 514c 	bic.w	r1, r1, ip, lsl #21
   82cc2:	ea23 534c 	bic.w	r3, r3, ip, lsl #21
   82cc6:	ea50 3501 	orrs.w	r5, r0, r1, lsl #12
   82cca:	bf18      	it	ne
   82ccc:	ea52 3503 	orrsne.w	r5, r2, r3, lsl #12
   82cd0:	f441 1180 	orr.w	r1, r1, #1048576	; 0x100000
   82cd4:	f443 1380 	orr.w	r3, r3, #1048576	; 0x100000
   82cd8:	d038      	beq.n	82d4c <__aeabi_dmul+0xb4>
   82cda:	fba0 ce02 	umull	ip, lr, r0, r2
   82cde:	f04f 0500 	mov.w	r5, #0
   82ce2:	fbe1 e502 	umlal	lr, r5, r1, r2
   82ce6:	f006 4200 	and.w	r2, r6, #2147483648	; 0x80000000
   82cea:	fbe0 e503 	umlal	lr, r5, r0, r3
   82cee:	f04f 0600 	mov.w	r6, #0
   82cf2:	fbe1 5603 	umlal	r5, r6, r1, r3
   82cf6:	f09c 0f00 	teq	ip, #0
   82cfa:	bf18      	it	ne
   82cfc:	f04e 0e01 	orrne.w	lr, lr, #1
   82d00:	f1a4 04ff 	sub.w	r4, r4, #255	; 0xff
   82d04:	f5b6 7f00 	cmp.w	r6, #512	; 0x200
   82d08:	f564 7440 	sbc.w	r4, r4, #768	; 0x300
   82d0c:	d204      	bcs.n	82d18 <__aeabi_dmul+0x80>
   82d0e:	ea5f 0e4e 	movs.w	lr, lr, lsl #1
   82d12:	416d      	adcs	r5, r5
   82d14:	eb46 0606 	adc.w	r6, r6, r6
   82d18:	ea42 21c6 	orr.w	r1, r2, r6, lsl #11
   82d1c:	ea41 5155 	orr.w	r1, r1, r5, lsr #21
   82d20:	ea4f 20c5 	mov.w	r0, r5, lsl #11
   82d24:	ea40 505e 	orr.w	r0, r0, lr, lsr #21
   82d28:	ea4f 2ece 	mov.w	lr, lr, lsl #11
   82d2c:	f1b4 0cfd 	subs.w	ip, r4, #253	; 0xfd
   82d30:	bf88      	it	hi
   82d32:	f5bc 6fe0 	cmphi.w	ip, #1792	; 0x700
   82d36:	d81e      	bhi.n	82d76 <__aeabi_dmul+0xde>
   82d38:	f1be 4f00 	cmp.w	lr, #2147483648	; 0x80000000
   82d3c:	bf08      	it	eq
   82d3e:	ea5f 0e50 	movseq.w	lr, r0, lsr #1
   82d42:	f150 0000 	adcs.w	r0, r0, #0
   82d46:	eb41 5104 	adc.w	r1, r1, r4, lsl #20
   82d4a:	bd70      	pop	{r4, r5, r6, pc}
   82d4c:	f006 4600 	and.w	r6, r6, #2147483648	; 0x80000000
   82d50:	ea46 0101 	orr.w	r1, r6, r1
   82d54:	ea40 0002 	orr.w	r0, r0, r2
   82d58:	ea81 0103 	eor.w	r1, r1, r3
   82d5c:	ebb4 045c 	subs.w	r4, r4, ip, lsr #1
   82d60:	bfc2      	ittt	gt
   82d62:	ebd4 050c 	rsbsgt	r5, r4, ip
   82d66:	ea41 5104 	orrgt.w	r1, r1, r4, lsl #20
   82d6a:	bd70      	popgt	{r4, r5, r6, pc}
   82d6c:	f441 1180 	orr.w	r1, r1, #1048576	; 0x100000
   82d70:	f04f 0e00 	mov.w	lr, #0
   82d74:	3c01      	subs	r4, #1
   82d76:	f300 80ab 	bgt.w	82ed0 <__aeabi_dmul+0x238>
   82d7a:	f114 0f36 	cmn.w	r4, #54	; 0x36
   82d7e:	bfde      	ittt	le
   82d80:	2000      	movle	r0, #0
   82d82:	f001 4100 	andle.w	r1, r1, #2147483648	; 0x80000000
   82d86:	bd70      	pople	{r4, r5, r6, pc}
   82d88:	f1c4 0400 	rsb	r4, r4, #0
   82d8c:	3c20      	subs	r4, #32
   82d8e:	da35      	bge.n	82dfc <__aeabi_dmul+0x164>
   82d90:	340c      	adds	r4, #12
   82d92:	dc1b      	bgt.n	82dcc <__aeabi_dmul+0x134>
   82d94:	f104 0414 	add.w	r4, r4, #20
   82d98:	f1c4 0520 	rsb	r5, r4, #32
   82d9c:	fa00 f305 	lsl.w	r3, r0, r5
   82da0:	fa20 f004 	lsr.w	r0, r0, r4
   82da4:	fa01 f205 	lsl.w	r2, r1, r5
   82da8:	ea40 0002 	orr.w	r0, r0, r2
   82dac:	f001 4200 	and.w	r2, r1, #2147483648	; 0x80000000
   82db0:	f021 4100 	bic.w	r1, r1, #2147483648	; 0x80000000
   82db4:	eb10 70d3 	adds.w	r0, r0, r3, lsr #31
   82db8:	fa21 f604 	lsr.w	r6, r1, r4
   82dbc:	eb42 0106 	adc.w	r1, r2, r6
   82dc0:	ea5e 0e43 	orrs.w	lr, lr, r3, lsl #1
   82dc4:	bf08      	it	eq
   82dc6:	ea20 70d3 	biceq.w	r0, r0, r3, lsr #31
   82dca:	bd70      	pop	{r4, r5, r6, pc}
   82dcc:	f1c4 040c 	rsb	r4, r4, #12
   82dd0:	f1c4 0520 	rsb	r5, r4, #32
   82dd4:	fa00 f304 	lsl.w	r3, r0, r4
   82dd8:	fa20 f005 	lsr.w	r0, r0, r5
   82ddc:	fa01 f204 	lsl.w	r2, r1, r4
   82de0:	ea40 0002 	orr.w	r0, r0, r2
   82de4:	f001 4100 	and.w	r1, r1, #2147483648	; 0x80000000
   82de8:	eb10 70d3 	adds.w	r0, r0, r3, lsr #31
   82dec:	f141 0100 	adc.w	r1, r1, #0
   82df0:	ea5e 0e43 	orrs.w	lr, lr, r3, lsl #1
   82df4:	bf08      	it	eq
   82df6:	ea20 70d3 	biceq.w	r0, r0, r3, lsr #31
   82dfa:	bd70      	pop	{r4, r5, r6, pc}
   82dfc:	f1c4 0520 	rsb	r5, r4, #32
   82e00:	fa00 f205 	lsl.w	r2, r0, r5
   82e04:	ea4e 0e02 	orr.w	lr, lr, r2
   82e08:	fa20 f304 	lsr.w	r3, r0, r4
   82e0c:	fa01 f205 	lsl.w	r2, r1, r5
   82e10:	ea43 0302 	orr.w	r3, r3, r2
   82e14:	fa21 f004 	lsr.w	r0, r1, r4
   82e18:	f001 4100 	and.w	r1, r1, #2147483648	; 0x80000000
   82e1c:	fa21 f204 	lsr.w	r2, r1, r4
   82e20:	ea20 0002 	bic.w	r0, r0, r2
   82e24:	eb00 70d3 	add.w	r0, r0, r3, lsr #31
   82e28:	ea5e 0e43 	orrs.w	lr, lr, r3, lsl #1
   82e2c:	bf08      	it	eq
   82e2e:	ea20 70d3 	biceq.w	r0, r0, r3, lsr #31
   82e32:	bd70      	pop	{r4, r5, r6, pc}
   82e34:	f094 0f00 	teq	r4, #0
   82e38:	d10f      	bne.n	82e5a <__aeabi_dmul+0x1c2>
   82e3a:	f001 4600 	and.w	r6, r1, #2147483648	; 0x80000000
   82e3e:	0040      	lsls	r0, r0, #1
   82e40:	eb41 0101 	adc.w	r1, r1, r1
   82e44:	f411 1f80 	tst.w	r1, #1048576	; 0x100000
   82e48:	bf08      	it	eq
   82e4a:	3c01      	subeq	r4, #1
   82e4c:	d0f7      	beq.n	82e3e <__aeabi_dmul+0x1a6>
   82e4e:	ea41 0106 	orr.w	r1, r1, r6
   82e52:	f095 0f00 	teq	r5, #0
   82e56:	bf18      	it	ne
   82e58:	4770      	bxne	lr
   82e5a:	f003 4600 	and.w	r6, r3, #2147483648	; 0x80000000
   82e5e:	0052      	lsls	r2, r2, #1
   82e60:	eb43 0303 	adc.w	r3, r3, r3
   82e64:	f413 1f80 	tst.w	r3, #1048576	; 0x100000
   82e68:	bf08      	it	eq
   82e6a:	3d01      	subeq	r5, #1
   82e6c:	d0f7      	beq.n	82e5e <__aeabi_dmul+0x1c6>
   82e6e:	ea43 0306 	orr.w	r3, r3, r6
   82e72:	4770      	bx	lr
   82e74:	ea94 0f0c 	teq	r4, ip
   82e78:	ea0c 5513 	and.w	r5, ip, r3, lsr #20
   82e7c:	bf18      	it	ne
   82e7e:	ea95 0f0c 	teqne	r5, ip
   82e82:	d00c      	beq.n	82e9e <__aeabi_dmul+0x206>
   82e84:	ea50 0641 	orrs.w	r6, r0, r1, lsl #1
   82e88:	bf18      	it	ne
   82e8a:	ea52 0643 	orrsne.w	r6, r2, r3, lsl #1
   82e8e:	d1d1      	bne.n	82e34 <__aeabi_dmul+0x19c>
   82e90:	ea81 0103 	eor.w	r1, r1, r3
   82e94:	f001 4100 	and.w	r1, r1, #2147483648	; 0x80000000
   82e98:	f04f 0000 	mov.w	r0, #0
   82e9c:	bd70      	pop	{r4, r5, r6, pc}
   82e9e:	ea50 0641 	orrs.w	r6, r0, r1, lsl #1
   82ea2:	bf06      	itte	eq
   82ea4:	4610      	moveq	r0, r2
   82ea6:	4619      	moveq	r1, r3
   82ea8:	ea52 0643 	orrsne.w	r6, r2, r3, lsl #1
   82eac:	d019      	beq.n	82ee2 <__aeabi_dmul+0x24a>
   82eae:	ea94 0f0c 	teq	r4, ip
   82eb2:	d102      	bne.n	82eba <__aeabi_dmul+0x222>
   82eb4:	ea50 3601 	orrs.w	r6, r0, r1, lsl #12
   82eb8:	d113      	bne.n	82ee2 <__aeabi_dmul+0x24a>
   82eba:	ea95 0f0c 	teq	r5, ip
   82ebe:	d105      	bne.n	82ecc <__aeabi_dmul+0x234>
   82ec0:	ea52 3603 	orrs.w	r6, r2, r3, lsl #12
   82ec4:	bf1c      	itt	ne
   82ec6:	4610      	movne	r0, r2
   82ec8:	4619      	movne	r1, r3
   82eca:	d10a      	bne.n	82ee2 <__aeabi_dmul+0x24a>
   82ecc:	ea81 0103 	eor.w	r1, r1, r3
   82ed0:	f001 4100 	and.w	r1, r1, #2147483648	; 0x80000000
   82ed4:	f041 41fe 	orr.w	r1, r1, #2130706432	; 0x7f000000
   82ed8:	f441 0170 	orr.w	r1, r1, #15728640	; 0xf00000
   82edc:	f04f 0000 	mov.w	r0, #0
   82ee0:	bd70      	pop	{r4, r5, r6, pc}
   82ee2:	f041 41fe 	orr.w	r1, r1, #2130706432	; 0x7f000000
   82ee6:	f441 0178 	orr.w	r1, r1, #16252928	; 0xf80000
   82eea:	bd70      	pop	{r4, r5, r6, pc}

00082eec <__aeabi_ddiv>:
   82eec:	b570      	push	{r4, r5, r6, lr}
   82eee:	f04f 0cff 	mov.w	ip, #255	; 0xff
   82ef2:	f44c 6ce0 	orr.w	ip, ip, #1792	; 0x700
   82ef6:	ea1c 5411 	ands.w	r4, ip, r1, lsr #20
   82efa:	bf1d      	ittte	ne
   82efc:	ea1c 5513 	andsne.w	r5, ip, r3, lsr #20
   82f00:	ea94 0f0c 	teqne	r4, ip
   82f04:	ea95 0f0c 	teqne	r5, ip
   82f08:	f000 f8a7 	bleq	8305a <__aeabi_ddiv+0x16e>
   82f0c:	eba4 0405 	sub.w	r4, r4, r5
   82f10:	ea81 0e03 	eor.w	lr, r1, r3
   82f14:	ea52 3503 	orrs.w	r5, r2, r3, lsl #12
   82f18:	ea4f 3101 	mov.w	r1, r1, lsl #12
   82f1c:	f000 8088 	beq.w	83030 <__aeabi_ddiv+0x144>
   82f20:	ea4f 3303 	mov.w	r3, r3, lsl #12
   82f24:	f04f 5580 	mov.w	r5, #268435456	; 0x10000000
   82f28:	ea45 1313 	orr.w	r3, r5, r3, lsr #4
   82f2c:	ea43 6312 	orr.w	r3, r3, r2, lsr #24
   82f30:	ea4f 2202 	mov.w	r2, r2, lsl #8
   82f34:	ea45 1511 	orr.w	r5, r5, r1, lsr #4
   82f38:	ea45 6510 	orr.w	r5, r5, r0, lsr #24
   82f3c:	ea4f 2600 	mov.w	r6, r0, lsl #8
   82f40:	f00e 4100 	and.w	r1, lr, #2147483648	; 0x80000000
   82f44:	429d      	cmp	r5, r3
   82f46:	bf08      	it	eq
   82f48:	4296      	cmpeq	r6, r2
   82f4a:	f144 04fd 	adc.w	r4, r4, #253	; 0xfd
   82f4e:	f504 7440 	add.w	r4, r4, #768	; 0x300
   82f52:	d202      	bcs.n	82f5a <__aeabi_ddiv+0x6e>
   82f54:	085b      	lsrs	r3, r3, #1
   82f56:	ea4f 0232 	mov.w	r2, r2, rrx
   82f5a:	1ab6      	subs	r6, r6, r2
   82f5c:	eb65 0503 	sbc.w	r5, r5, r3
   82f60:	085b      	lsrs	r3, r3, #1
   82f62:	ea4f 0232 	mov.w	r2, r2, rrx
   82f66:	f44f 1080 	mov.w	r0, #1048576	; 0x100000
   82f6a:	f44f 2c00 	mov.w	ip, #524288	; 0x80000
   82f6e:	ebb6 0e02 	subs.w	lr, r6, r2
   82f72:	eb75 0e03 	sbcs.w	lr, r5, r3
   82f76:	bf22      	ittt	cs
   82f78:	1ab6      	subcs	r6, r6, r2
   82f7a:	4675      	movcs	r5, lr
   82f7c:	ea40 000c 	orrcs.w	r0, r0, ip
   82f80:	085b      	lsrs	r3, r3, #1
   82f82:	ea4f 0232 	mov.w	r2, r2, rrx
   82f86:	ebb6 0e02 	subs.w	lr, r6, r2
   82f8a:	eb75 0e03 	sbcs.w	lr, r5, r3
   82f8e:	bf22      	ittt	cs
   82f90:	1ab6      	subcs	r6, r6, r2
   82f92:	4675      	movcs	r5, lr
   82f94:	ea40 005c 	orrcs.w	r0, r0, ip, lsr #1
   82f98:	085b      	lsrs	r3, r3, #1
   82f9a:	ea4f 0232 	mov.w	r2, r2, rrx
   82f9e:	ebb6 0e02 	subs.w	lr, r6, r2
   82fa2:	eb75 0e03 	sbcs.w	lr, r5, r3
   82fa6:	bf22      	ittt	cs
   82fa8:	1ab6      	subcs	r6, r6, r2
   82faa:	4675      	movcs	r5, lr
   82fac:	ea40 009c 	orrcs.w	r0, r0, ip, lsr #2
   82fb0:	085b      	lsrs	r3, r3, #1
   82fb2:	ea4f 0232 	mov.w	r2, r2, rrx
   82fb6:	ebb6 0e02 	subs.w	lr, r6, r2
   82fba:	eb75 0e03 	sbcs.w	lr, r5, r3
   82fbe:	bf22      	ittt	cs
   82fc0:	1ab6      	subcs	r6, r6, r2
   82fc2:	4675      	movcs	r5, lr
   82fc4:	ea40 00dc 	orrcs.w	r0, r0, ip, lsr #3
   82fc8:	ea55 0e06 	orrs.w	lr, r5, r6
   82fcc:	d018      	beq.n	83000 <__aeabi_ddiv+0x114>
   82fce:	ea4f 1505 	mov.w	r5, r5, lsl #4
   82fd2:	ea45 7516 	orr.w	r5, r5, r6, lsr #28
   82fd6:	ea4f 1606 	mov.w	r6, r6, lsl #4
   82fda:	ea4f 03c3 	mov.w	r3, r3, lsl #3
   82fde:	ea43 7352 	orr.w	r3, r3, r2, lsr #29
   82fe2:	ea4f 02c2 	mov.w	r2, r2, lsl #3
   82fe6:	ea5f 1c1c 	movs.w	ip, ip, lsr #4
   82fea:	d1c0      	bne.n	82f6e <__aeabi_ddiv+0x82>
   82fec:	f411 1f80 	tst.w	r1, #1048576	; 0x100000
   82ff0:	d10b      	bne.n	8300a <__aeabi_ddiv+0x11e>
   82ff2:	ea41 0100 	orr.w	r1, r1, r0
   82ff6:	f04f 0000 	mov.w	r0, #0
   82ffa:	f04f 4c00 	mov.w	ip, #2147483648	; 0x80000000
   82ffe:	e7b6      	b.n	82f6e <__aeabi_ddiv+0x82>
   83000:	f411 1f80 	tst.w	r1, #1048576	; 0x100000
   83004:	bf04      	itt	eq
   83006:	4301      	orreq	r1, r0
   83008:	2000      	moveq	r0, #0
   8300a:	f1b4 0cfd 	subs.w	ip, r4, #253	; 0xfd
   8300e:	bf88      	it	hi
   83010:	f5bc 6fe0 	cmphi.w	ip, #1792	; 0x700
   83014:	f63f aeaf 	bhi.w	82d76 <__aeabi_dmul+0xde>
   83018:	ebb5 0c03 	subs.w	ip, r5, r3
   8301c:	bf04      	itt	eq
   8301e:	ebb6 0c02 	subseq.w	ip, r6, r2
   83022:	ea5f 0c50 	movseq.w	ip, r0, lsr #1
   83026:	f150 0000 	adcs.w	r0, r0, #0
   8302a:	eb41 5104 	adc.w	r1, r1, r4, lsl #20
   8302e:	bd70      	pop	{r4, r5, r6, pc}
   83030:	f00e 4e00 	and.w	lr, lr, #2147483648	; 0x80000000
   83034:	ea4e 3111 	orr.w	r1, lr, r1, lsr #12
   83038:	eb14 045c 	adds.w	r4, r4, ip, lsr #1
   8303c:	bfc2      	ittt	gt
   8303e:	ebd4 050c 	rsbsgt	r5, r4, ip
   83042:	ea41 5104 	orrgt.w	r1, r1, r4, lsl #20
   83046:	bd70      	popgt	{r4, r5, r6, pc}
   83048:	f441 1180 	orr.w	r1, r1, #1048576	; 0x100000
   8304c:	f04f 0e00 	mov.w	lr, #0
   83050:	3c01      	subs	r4, #1
   83052:	e690      	b.n	82d76 <__aeabi_dmul+0xde>
   83054:	ea45 0e06 	orr.w	lr, r5, r6
   83058:	e68d      	b.n	82d76 <__aeabi_dmul+0xde>
   8305a:	ea0c 5513 	and.w	r5, ip, r3, lsr #20
   8305e:	ea94 0f0c 	teq	r4, ip
   83062:	bf08      	it	eq
   83064:	ea95 0f0c 	teqeq	r5, ip
   83068:	f43f af3b 	beq.w	82ee2 <__aeabi_dmul+0x24a>
   8306c:	ea94 0f0c 	teq	r4, ip
   83070:	d10a      	bne.n	83088 <__aeabi_ddiv+0x19c>
   83072:	ea50 3401 	orrs.w	r4, r0, r1, lsl #12
   83076:	f47f af34 	bne.w	82ee2 <__aeabi_dmul+0x24a>
   8307a:	ea95 0f0c 	teq	r5, ip
   8307e:	f47f af25 	bne.w	82ecc <__aeabi_dmul+0x234>
   83082:	4610      	mov	r0, r2
   83084:	4619      	mov	r1, r3
   83086:	e72c      	b.n	82ee2 <__aeabi_dmul+0x24a>
   83088:	ea95 0f0c 	teq	r5, ip
   8308c:	d106      	bne.n	8309c <__aeabi_ddiv+0x1b0>
   8308e:	ea52 3503 	orrs.w	r5, r2, r3, lsl #12
   83092:	f43f aefd 	beq.w	82e90 <__aeabi_dmul+0x1f8>
   83096:	4610      	mov	r0, r2
   83098:	4619      	mov	r1, r3
   8309a:	e722      	b.n	82ee2 <__aeabi_dmul+0x24a>
   8309c:	ea50 0641 	orrs.w	r6, r0, r1, lsl #1
   830a0:	bf18      	it	ne
   830a2:	ea52 0643 	orrsne.w	r6, r2, r3, lsl #1
   830a6:	f47f aec5 	bne.w	82e34 <__aeabi_dmul+0x19c>
   830aa:	ea50 0441 	orrs.w	r4, r0, r1, lsl #1
   830ae:	f47f af0d 	bne.w	82ecc <__aeabi_dmul+0x234>
   830b2:	ea52 0543 	orrs.w	r5, r2, r3, lsl #1
   830b6:	f47f aeeb 	bne.w	82e90 <__aeabi_dmul+0x1f8>
   830ba:	e712      	b.n	82ee2 <__aeabi_dmul+0x24a>

000830bc <__aeabi_d2f>:
   830bc:	ea4f 0241 	mov.w	r2, r1, lsl #1
   830c0:	f1b2 43e0 	subs.w	r3, r2, #1879048192	; 0x70000000
   830c4:	bf24      	itt	cs
   830c6:	f5b3 1c00 	subscs.w	ip, r3, #2097152	; 0x200000
   830ca:	f1dc 5cfe 	rsbscs	ip, ip, #532676608	; 0x1fc00000
   830ce:	d90d      	bls.n	830ec <__aeabi_d2f+0x30>
   830d0:	f001 4c00 	and.w	ip, r1, #2147483648	; 0x80000000
   830d4:	ea4f 02c0 	mov.w	r2, r0, lsl #3
   830d8:	ea4c 7050 	orr.w	r0, ip, r0, lsr #29
   830dc:	f1b2 4f00 	cmp.w	r2, #2147483648	; 0x80000000
   830e0:	eb40 0083 	adc.w	r0, r0, r3, lsl #2
   830e4:	bf08      	it	eq
   830e6:	f020 0001 	biceq.w	r0, r0, #1
   830ea:	4770      	bx	lr
   830ec:	f011 4f80 	tst.w	r1, #1073741824	; 0x40000000
   830f0:	d121      	bne.n	83136 <__aeabi_d2f+0x7a>
   830f2:	f113 7238 	adds.w	r2, r3, #48234496	; 0x2e00000
   830f6:	bfbc      	itt	lt
   830f8:	f001 4000 	andlt.w	r0, r1, #2147483648	; 0x80000000
   830fc:	4770      	bxlt	lr
   830fe:	f441 1180 	orr.w	r1, r1, #1048576	; 0x100000
   83102:	ea4f 5252 	mov.w	r2, r2, lsr #21
   83106:	f1c2 0218 	rsb	r2, r2, #24
   8310a:	f1c2 0c20 	rsb	ip, r2, #32
   8310e:	fa10 f30c 	lsls.w	r3, r0, ip
   83112:	fa20 f002 	lsr.w	r0, r0, r2
   83116:	bf18      	it	ne
   83118:	f040 0001 	orrne.w	r0, r0, #1
   8311c:	ea4f 23c1 	mov.w	r3, r1, lsl #11
   83120:	ea4f 23d3 	mov.w	r3, r3, lsr #11
   83124:	fa03 fc0c 	lsl.w	ip, r3, ip
   83128:	ea40 000c 	orr.w	r0, r0, ip
   8312c:	fa23 f302 	lsr.w	r3, r3, r2
   83130:	ea4f 0343 	mov.w	r3, r3, lsl #1
   83134:	e7cc      	b.n	830d0 <__aeabi_d2f+0x14>
   83136:	ea7f 5362 	mvns.w	r3, r2, asr #21
   8313a:	d107      	bne.n	8314c <__aeabi_d2f+0x90>
   8313c:	ea50 3301 	orrs.w	r3, r0, r1, lsl #12
   83140:	bf1e      	ittt	ne
   83142:	f04f 40fe 	movne.w	r0, #2130706432	; 0x7f000000
   83146:	f440 0040 	orrne.w	r0, r0, #12582912	; 0xc00000
   8314a:	4770      	bxne	lr
   8314c:	f001 4000 	and.w	r0, r1, #2147483648	; 0x80000000
   83150:	f040 40fe 	orr.w	r0, r0, #2130706432	; 0x7f000000
   83154:	f440 0000 	orr.w	r0, r0, #8388608	; 0x800000
   83158:	4770      	bx	lr
   8315a:	bf00      	nop

0008315c <__aeabi_frsub>:
   8315c:	f080 4000 	eor.w	r0, r0, #2147483648	; 0x80000000
   83160:	e002      	b.n	83168 <__addsf3>
   83162:	bf00      	nop

00083164 <__aeabi_fsub>:
   83164:	f081 4100 	eor.w	r1, r1, #2147483648	; 0x80000000

00083168 <__addsf3>:
   83168:	0042      	lsls	r2, r0, #1
   8316a:	bf1f      	itttt	ne
   8316c:	ea5f 0341 	movsne.w	r3, r1, lsl #1
   83170:	ea92 0f03 	teqne	r2, r3
   83174:	ea7f 6c22 	mvnsne.w	ip, r2, asr #24
   83178:	ea7f 6c23 	mvnsne.w	ip, r3, asr #24
   8317c:	d06a      	beq.n	83254 <__addsf3+0xec>
   8317e:	ea4f 6212 	mov.w	r2, r2, lsr #24
   83182:	ebd2 6313 	rsbs	r3, r2, r3, lsr #24
   83186:	bfc1      	itttt	gt
   83188:	18d2      	addgt	r2, r2, r3
   8318a:	4041      	eorgt	r1, r0
   8318c:	4048      	eorgt	r0, r1
   8318e:	4041      	eorgt	r1, r0
   83190:	bfb8      	it	lt
   83192:	425b      	neglt	r3, r3
   83194:	2b19      	cmp	r3, #25
   83196:	bf88      	it	hi
   83198:	4770      	bxhi	lr
   8319a:	f010 4f00 	tst.w	r0, #2147483648	; 0x80000000
   8319e:	f440 0000 	orr.w	r0, r0, #8388608	; 0x800000
   831a2:	f020 407f 	bic.w	r0, r0, #4278190080	; 0xff000000
   831a6:	bf18      	it	ne
   831a8:	4240      	negne	r0, r0
   831aa:	f011 4f00 	tst.w	r1, #2147483648	; 0x80000000
   831ae:	f441 0100 	orr.w	r1, r1, #8388608	; 0x800000
   831b2:	f021 417f 	bic.w	r1, r1, #4278190080	; 0xff000000
   831b6:	bf18      	it	ne
   831b8:	4249      	negne	r1, r1
   831ba:	ea92 0f03 	teq	r2, r3
   831be:	d03f      	beq.n	83240 <__addsf3+0xd8>
   831c0:	f1a2 0201 	sub.w	r2, r2, #1
   831c4:	fa41 fc03 	asr.w	ip, r1, r3
   831c8:	eb10 000c 	adds.w	r0, r0, ip
   831cc:	f1c3 0320 	rsb	r3, r3, #32
   831d0:	fa01 f103 	lsl.w	r1, r1, r3
   831d4:	f000 4300 	and.w	r3, r0, #2147483648	; 0x80000000
   831d8:	d502      	bpl.n	831e0 <__addsf3+0x78>
   831da:	4249      	negs	r1, r1
   831dc:	eb60 0040 	sbc.w	r0, r0, r0, lsl #1
   831e0:	f5b0 0f00 	cmp.w	r0, #8388608	; 0x800000
   831e4:	d313      	bcc.n	8320e <__addsf3+0xa6>
   831e6:	f1b0 7f80 	cmp.w	r0, #16777216	; 0x1000000
   831ea:	d306      	bcc.n	831fa <__addsf3+0x92>
   831ec:	0840      	lsrs	r0, r0, #1
   831ee:	ea4f 0131 	mov.w	r1, r1, rrx
   831f2:	f102 0201 	add.w	r2, r2, #1
   831f6:	2afe      	cmp	r2, #254	; 0xfe
   831f8:	d251      	bcs.n	8329e <__addsf3+0x136>
   831fa:	f1b1 4f00 	cmp.w	r1, #2147483648	; 0x80000000
   831fe:	eb40 50c2 	adc.w	r0, r0, r2, lsl #23
   83202:	bf08      	it	eq
   83204:	f020 0001 	biceq.w	r0, r0, #1
   83208:	ea40 0003 	orr.w	r0, r0, r3
   8320c:	4770      	bx	lr
   8320e:	0049      	lsls	r1, r1, #1
   83210:	eb40 0000 	adc.w	r0, r0, r0
   83214:	f410 0f00 	tst.w	r0, #8388608	; 0x800000
   83218:	f1a2 0201 	sub.w	r2, r2, #1
   8321c:	d1ed      	bne.n	831fa <__addsf3+0x92>
   8321e:	fab0 fc80 	clz	ip, r0
   83222:	f1ac 0c08 	sub.w	ip, ip, #8
   83226:	ebb2 020c 	subs.w	r2, r2, ip
   8322a:	fa00 f00c 	lsl.w	r0, r0, ip
   8322e:	bfaa      	itet	ge
   83230:	eb00 50c2 	addge.w	r0, r0, r2, lsl #23
   83234:	4252      	neglt	r2, r2
   83236:	4318      	orrge	r0, r3
   83238:	bfbc      	itt	lt
   8323a:	40d0      	lsrlt	r0, r2
   8323c:	4318      	orrlt	r0, r3
   8323e:	4770      	bx	lr
   83240:	f092 0f00 	teq	r2, #0
   83244:	f481 0100 	eor.w	r1, r1, #8388608	; 0x800000
   83248:	bf06      	itte	eq
   8324a:	f480 0000 	eoreq.w	r0, r0, #8388608	; 0x800000
   8324e:	3201      	addeq	r2, #1
   83250:	3b01      	subne	r3, #1
   83252:	e7b5      	b.n	831c0 <__addsf3+0x58>
   83254:	ea4f 0341 	mov.w	r3, r1, lsl #1
   83258:	ea7f 6c22 	mvns.w	ip, r2, asr #24
   8325c:	bf18      	it	ne
   8325e:	ea7f 6c23 	mvnsne.w	ip, r3, asr #24
   83262:	d021      	beq.n	832a8 <__addsf3+0x140>
   83264:	ea92 0f03 	teq	r2, r3
   83268:	d004      	beq.n	83274 <__addsf3+0x10c>
   8326a:	f092 0f00 	teq	r2, #0
   8326e:	bf08      	it	eq
   83270:	4608      	moveq	r0, r1
   83272:	4770      	bx	lr
   83274:	ea90 0f01 	teq	r0, r1
   83278:	bf1c      	itt	ne
   8327a:	2000      	movne	r0, #0
   8327c:	4770      	bxne	lr
   8327e:	f012 4f7f 	tst.w	r2, #4278190080	; 0xff000000
   83282:	d104      	bne.n	8328e <__addsf3+0x126>
   83284:	0040      	lsls	r0, r0, #1
   83286:	bf28      	it	cs
   83288:	f040 4000 	orrcs.w	r0, r0, #2147483648	; 0x80000000
   8328c:	4770      	bx	lr
   8328e:	f112 7200 	adds.w	r2, r2, #33554432	; 0x2000000
   83292:	bf3c      	itt	cc
   83294:	f500 0000 	addcc.w	r0, r0, #8388608	; 0x800000
   83298:	4770      	bxcc	lr
   8329a:	f000 4300 	and.w	r3, r0, #2147483648	; 0x80000000
   8329e:	f043 40fe 	orr.w	r0, r3, #2130706432	; 0x7f000000
   832a2:	f440 0000 	orr.w	r0, r0, #8388608	; 0x800000
   832a6:	4770      	bx	lr
   832a8:	ea7f 6222 	mvns.w	r2, r2, asr #24
   832ac:	bf16      	itet	ne
   832ae:	4608      	movne	r0, r1
   832b0:	ea7f 6323 	mvnseq.w	r3, r3, asr #24
   832b4:	4601      	movne	r1, r0
   832b6:	0242      	lsls	r2, r0, #9
   832b8:	bf06      	itte	eq
   832ba:	ea5f 2341 	movseq.w	r3, r1, lsl #9
   832be:	ea90 0f01 	teqeq	r0, r1
   832c2:	f440 0080 	orrne.w	r0, r0, #4194304	; 0x400000
   832c6:	4770      	bx	lr

000832c8 <__aeabi_ui2f>:
   832c8:	f04f 0300 	mov.w	r3, #0
   832cc:	e004      	b.n	832d8 <__aeabi_i2f+0x8>
   832ce:	bf00      	nop

000832d0 <__aeabi_i2f>:
   832d0:	f010 4300 	ands.w	r3, r0, #2147483648	; 0x80000000
   832d4:	bf48      	it	mi
   832d6:	4240      	negmi	r0, r0
   832d8:	ea5f 0c00 	movs.w	ip, r0
   832dc:	bf08      	it	eq
   832de:	4770      	bxeq	lr
   832e0:	f043 4396 	orr.w	r3, r3, #1258291200	; 0x4b000000
   832e4:	4601      	mov	r1, r0
   832e6:	f04f 0000 	mov.w	r0, #0
   832ea:	e01c      	b.n	83326 <__aeabi_l2f+0x2a>

000832ec <__aeabi_ul2f>:
   832ec:	ea50 0201 	orrs.w	r2, r0, r1
   832f0:	bf08      	it	eq
   832f2:	4770      	bxeq	lr
   832f4:	f04f 0300 	mov.w	r3, #0
   832f8:	e00a      	b.n	83310 <__aeabi_l2f+0x14>
   832fa:	bf00      	nop

000832fc <__aeabi_l2f>:
   832fc:	ea50 0201 	orrs.w	r2, r0, r1
   83300:	bf08      	it	eq
   83302:	4770      	bxeq	lr
   83304:	f011 4300 	ands.w	r3, r1, #2147483648	; 0x80000000
   83308:	d502      	bpl.n	83310 <__aeabi_l2f+0x14>
   8330a:	4240      	negs	r0, r0
   8330c:	eb61 0141 	sbc.w	r1, r1, r1, lsl #1
   83310:	ea5f 0c01 	movs.w	ip, r1
   83314:	bf02      	ittt	eq
   83316:	4684      	moveq	ip, r0
   83318:	4601      	moveq	r1, r0
   8331a:	2000      	moveq	r0, #0
   8331c:	f043 43b6 	orr.w	r3, r3, #1526726656	; 0x5b000000
   83320:	bf08      	it	eq
   83322:	f1a3 5380 	subeq.w	r3, r3, #268435456	; 0x10000000
   83326:	f5a3 0300 	sub.w	r3, r3, #8388608	; 0x800000
   8332a:	fabc f28c 	clz	r2, ip
   8332e:	3a08      	subs	r2, #8
   83330:	eba3 53c2 	sub.w	r3, r3, r2, lsl #23
   83334:	db10      	blt.n	83358 <__aeabi_l2f+0x5c>
   83336:	fa01 fc02 	lsl.w	ip, r1, r2
   8333a:	4463      	add	r3, ip
   8333c:	fa00 fc02 	lsl.w	ip, r0, r2
   83340:	f1c2 0220 	rsb	r2, r2, #32
   83344:	f1bc 4f00 	cmp.w	ip, #2147483648	; 0x80000000
   83348:	fa20 f202 	lsr.w	r2, r0, r2
   8334c:	eb43 0002 	adc.w	r0, r3, r2
   83350:	bf08      	it	eq
   83352:	f020 0001 	biceq.w	r0, r0, #1
   83356:	4770      	bx	lr
   83358:	f102 0220 	add.w	r2, r2, #32
   8335c:	fa01 fc02 	lsl.w	ip, r1, r2
   83360:	f1c2 0220 	rsb	r2, r2, #32
   83364:	ea50 004c 	orrs.w	r0, r0, ip, lsl #1
   83368:	fa21 f202 	lsr.w	r2, r1, r2
   8336c:	eb43 0002 	adc.w	r0, r3, r2
   83370:	bf08      	it	eq
   83372:	ea20 70dc 	biceq.w	r0, r0, ip, lsr #31
   83376:	4770      	bx	lr

00083378 <__aeabi_f2uiz>:
   83378:	0042      	lsls	r2, r0, #1
   8337a:	d20e      	bcs.n	8339a <__aeabi_f2uiz+0x22>
   8337c:	f1b2 4ffe 	cmp.w	r2, #2130706432	; 0x7f000000
   83380:	d30b      	bcc.n	8339a <__aeabi_f2uiz+0x22>
   83382:	f04f 039e 	mov.w	r3, #158	; 0x9e
   83386:	ebb3 6212 	subs.w	r2, r3, r2, lsr #24
   8338a:	d409      	bmi.n	833a0 <__aeabi_f2uiz+0x28>
   8338c:	ea4f 2300 	mov.w	r3, r0, lsl #8
   83390:	f043 4300 	orr.w	r3, r3, #2147483648	; 0x80000000
   83394:	fa23 f002 	lsr.w	r0, r3, r2
   83398:	4770      	bx	lr
   8339a:	f04f 0000 	mov.w	r0, #0
   8339e:	4770      	bx	lr
   833a0:	f112 0f61 	cmn.w	r2, #97	; 0x61
   833a4:	d101      	bne.n	833aa <__aeabi_f2uiz+0x32>
   833a6:	0242      	lsls	r2, r0, #9
   833a8:	d102      	bne.n	833b0 <__aeabi_f2uiz+0x38>
   833aa:	f04f 30ff 	mov.w	r0, #4294967295
   833ae:	4770      	bx	lr
   833b0:	f04f 0000 	mov.w	r0, #0
   833b4:	4770      	bx	lr
   833b6:	bf00      	nop

000833b8 <atoi>:
   833b8:	2100      	movs	r1, #0
   833ba:	220a      	movs	r2, #10
   833bc:	f000 bad6 	b.w	8396c <strtol>

000833c0 <_gets_r>:
   833c0:	b5f8      	push	{r3, r4, r5, r6, r7, lr}
   833c2:	460f      	mov	r7, r1
   833c4:	4605      	mov	r5, r0
   833c6:	460c      	mov	r4, r1
   833c8:	4e0f      	ldr	r6, [pc, #60]	; (83408 <_gets_r+0x48>)
   833ca:	e007      	b.n	833dc <_gets_r+0x1c>
   833cc:	680b      	ldr	r3, [r1, #0]
   833ce:	1c5a      	adds	r2, r3, #1
   833d0:	600a      	str	r2, [r1, #0]
   833d2:	7818      	ldrb	r0, [r3, #0]
   833d4:	280a      	cmp	r0, #10
   833d6:	d011      	beq.n	833fc <_gets_r+0x3c>
   833d8:	f804 0b01 	strb.w	r0, [r4], #1
   833dc:	6833      	ldr	r3, [r6, #0]
   833de:	6859      	ldr	r1, [r3, #4]
   833e0:	684b      	ldr	r3, [r1, #4]
   833e2:	3b01      	subs	r3, #1
   833e4:	2b00      	cmp	r3, #0
   833e6:	604b      	str	r3, [r1, #4]
   833e8:	daf0      	bge.n	833cc <_gets_r+0xc>
   833ea:	4628      	mov	r0, r5
   833ec:	f000 f930 	bl	83650 <__srget_r>
   833f0:	280a      	cmp	r0, #10
   833f2:	d003      	beq.n	833fc <_gets_r+0x3c>
   833f4:	1c43      	adds	r3, r0, #1
   833f6:	d1ef      	bne.n	833d8 <_gets_r+0x18>
   833f8:	42a7      	cmp	r7, r4
   833fa:	d003      	beq.n	83404 <_gets_r+0x44>
   833fc:	2300      	movs	r3, #0
   833fe:	7023      	strb	r3, [r4, #0]
   83400:	4638      	mov	r0, r7
   83402:	bdf8      	pop	{r3, r4, r5, r6, r7, pc}
   83404:	2000      	movs	r0, #0
   83406:	bdf8      	pop	{r3, r4, r5, r6, r7, pc}
   83408:	20070570 	.word	0x20070570

0008340c <gets>:
   8340c:	4b02      	ldr	r3, [pc, #8]	; (83418 <gets+0xc>)
   8340e:	4601      	mov	r1, r0
   83410:	6818      	ldr	r0, [r3, #0]
   83412:	f7ff bfd5 	b.w	833c0 <_gets_r>
   83416:	bf00      	nop
   83418:	20070570 	.word	0x20070570

0008341c <__libc_init_array>:
   8341c:	b570      	push	{r4, r5, r6, lr}
   8341e:	4e0f      	ldr	r6, [pc, #60]	; (8345c <__libc_init_array+0x40>)
   83420:	4d0f      	ldr	r5, [pc, #60]	; (83460 <__libc_init_array+0x44>)
   83422:	1b76      	subs	r6, r6, r5
   83424:	10b6      	asrs	r6, r6, #2
   83426:	bf18      	it	ne
   83428:	2400      	movne	r4, #0
   8342a:	d005      	beq.n	83438 <__libc_init_array+0x1c>
   8342c:	3401      	adds	r4, #1
   8342e:	f855 3b04 	ldr.w	r3, [r5], #4
   83432:	4798      	blx	r3
   83434:	42a6      	cmp	r6, r4
   83436:	d1f9      	bne.n	8342c <__libc_init_array+0x10>
   83438:	4e0a      	ldr	r6, [pc, #40]	; (83464 <__libc_init_array+0x48>)
   8343a:	4d0b      	ldr	r5, [pc, #44]	; (83468 <__libc_init_array+0x4c>)
   8343c:	f003 faa0 	bl	86980 <_init>
   83440:	1b76      	subs	r6, r6, r5
   83442:	10b6      	asrs	r6, r6, #2
   83444:	bf18      	it	ne
   83446:	2400      	movne	r4, #0
   83448:	d006      	beq.n	83458 <__libc_init_array+0x3c>
   8344a:	3401      	adds	r4, #1
   8344c:	f855 3b04 	ldr.w	r3, [r5], #4
   83450:	4798      	blx	r3
   83452:	42a6      	cmp	r6, r4
   83454:	d1f9      	bne.n	8344a <__libc_init_array+0x2e>
   83456:	bd70      	pop	{r4, r5, r6, pc}
   83458:	bd70      	pop	{r4, r5, r6, pc}
   8345a:	bf00      	nop
   8345c:	0008698c 	.word	0x0008698c
   83460:	0008698c 	.word	0x0008698c
   83464:	00086994 	.word	0x00086994
   83468:	0008698c 	.word	0x0008698c

0008346c <iprintf>:
   8346c:	b40f      	push	{r0, r1, r2, r3}
   8346e:	b510      	push	{r4, lr}
   83470:	4b07      	ldr	r3, [pc, #28]	; (83490 <iprintf+0x24>)
   83472:	b082      	sub	sp, #8
   83474:	ac04      	add	r4, sp, #16
   83476:	f854 2b04 	ldr.w	r2, [r4], #4
   8347a:	6818      	ldr	r0, [r3, #0]
   8347c:	4623      	mov	r3, r4
   8347e:	6881      	ldr	r1, [r0, #8]
   83480:	9401      	str	r4, [sp, #4]
   83482:	f000 fafb 	bl	83a7c <_vfiprintf_r>
   83486:	b002      	add	sp, #8
   83488:	e8bd 4010 	ldmia.w	sp!, {r4, lr}
   8348c:	b004      	add	sp, #16
   8348e:	4770      	bx	lr
   83490:	20070570 	.word	0x20070570

00083494 <__itoa>:
   83494:	1e93      	subs	r3, r2, #2
   83496:	2b22      	cmp	r3, #34	; 0x22
   83498:	d810      	bhi.n	834bc <__itoa+0x28>
   8349a:	2a0a      	cmp	r2, #10
   8349c:	b510      	push	{r4, lr}
   8349e:	d006      	beq.n	834ae <__itoa+0x1a>
   834a0:	2300      	movs	r3, #0
   834a2:	460c      	mov	r4, r1
   834a4:	4419      	add	r1, r3
   834a6:	f000 fa6d 	bl	83984 <__utoa>
   834aa:	4620      	mov	r0, r4
   834ac:	bd10      	pop	{r4, pc}
   834ae:	2800      	cmp	r0, #0
   834b0:	daf6      	bge.n	834a0 <__itoa+0xc>
   834b2:	232d      	movs	r3, #45	; 0x2d
   834b4:	700b      	strb	r3, [r1, #0]
   834b6:	4240      	negs	r0, r0
   834b8:	2301      	movs	r3, #1
   834ba:	e7f2      	b.n	834a2 <__itoa+0xe>
   834bc:	2000      	movs	r0, #0
   834be:	7008      	strb	r0, [r1, #0]
   834c0:	4770      	bx	lr
   834c2:	bf00      	nop

000834c4 <itoa>:
   834c4:	f7ff bfe6 	b.w	83494 <__itoa>

000834c8 <memcpy>:
   834c8:	4684      	mov	ip, r0
   834ca:	ea41 0300 	orr.w	r3, r1, r0
   834ce:	f013 0303 	ands.w	r3, r3, #3
   834d2:	d149      	bne.n	83568 <memcpy+0xa0>
   834d4:	3a40      	subs	r2, #64	; 0x40
   834d6:	d323      	bcc.n	83520 <memcpy+0x58>
   834d8:	680b      	ldr	r3, [r1, #0]
   834da:	6003      	str	r3, [r0, #0]
   834dc:	684b      	ldr	r3, [r1, #4]
   834de:	6043      	str	r3, [r0, #4]
   834e0:	688b      	ldr	r3, [r1, #8]
   834e2:	6083      	str	r3, [r0, #8]
   834e4:	68cb      	ldr	r3, [r1, #12]
   834e6:	60c3      	str	r3, [r0, #12]
   834e8:	690b      	ldr	r3, [r1, #16]
   834ea:	6103      	str	r3, [r0, #16]
   834ec:	694b      	ldr	r3, [r1, #20]
   834ee:	6143      	str	r3, [r0, #20]
   834f0:	698b      	ldr	r3, [r1, #24]
   834f2:	6183      	str	r3, [r0, #24]
   834f4:	69cb      	ldr	r3, [r1, #28]
   834f6:	61c3      	str	r3, [r0, #28]
   834f8:	6a0b      	ldr	r3, [r1, #32]
   834fa:	6203      	str	r3, [r0, #32]
   834fc:	6a4b      	ldr	r3, [r1, #36]	; 0x24
   834fe:	6243      	str	r3, [r0, #36]	; 0x24
   83500:	6a8b      	ldr	r3, [r1, #40]	; 0x28
   83502:	6283      	str	r3, [r0, #40]	; 0x28
   83504:	6acb      	ldr	r3, [r1, #44]	; 0x2c
   83506:	62c3      	str	r3, [r0, #44]	; 0x2c
   83508:	6b0b      	ldr	r3, [r1, #48]	; 0x30
   8350a:	6303      	str	r3, [r0, #48]	; 0x30
   8350c:	6b4b      	ldr	r3, [r1, #52]	; 0x34
   8350e:	6343      	str	r3, [r0, #52]	; 0x34
   83510:	6b8b      	ldr	r3, [r1, #56]	; 0x38
   83512:	6383      	str	r3, [r0, #56]	; 0x38
   83514:	6bcb      	ldr	r3, [r1, #60]	; 0x3c
   83516:	63c3      	str	r3, [r0, #60]	; 0x3c
   83518:	3040      	adds	r0, #64	; 0x40
   8351a:	3140      	adds	r1, #64	; 0x40
   8351c:	3a40      	subs	r2, #64	; 0x40
   8351e:	d2db      	bcs.n	834d8 <memcpy+0x10>
   83520:	3230      	adds	r2, #48	; 0x30
   83522:	d30b      	bcc.n	8353c <memcpy+0x74>
   83524:	680b      	ldr	r3, [r1, #0]
   83526:	6003      	str	r3, [r0, #0]
   83528:	684b      	ldr	r3, [r1, #4]
   8352a:	6043      	str	r3, [r0, #4]
   8352c:	688b      	ldr	r3, [r1, #8]
   8352e:	6083      	str	r3, [r0, #8]
   83530:	68cb      	ldr	r3, [r1, #12]
   83532:	60c3      	str	r3, [r0, #12]
   83534:	3010      	adds	r0, #16
   83536:	3110      	adds	r1, #16
   83538:	3a10      	subs	r2, #16
   8353a:	d2f3      	bcs.n	83524 <memcpy+0x5c>
   8353c:	320c      	adds	r2, #12
   8353e:	d305      	bcc.n	8354c <memcpy+0x84>
   83540:	f851 3b04 	ldr.w	r3, [r1], #4
   83544:	f840 3b04 	str.w	r3, [r0], #4
   83548:	3a04      	subs	r2, #4
   8354a:	d2f9      	bcs.n	83540 <memcpy+0x78>
   8354c:	3204      	adds	r2, #4
   8354e:	d008      	beq.n	83562 <memcpy+0x9a>
   83550:	07d2      	lsls	r2, r2, #31
   83552:	bf1c      	itt	ne
   83554:	f811 3b01 	ldrbne.w	r3, [r1], #1
   83558:	f800 3b01 	strbne.w	r3, [r0], #1
   8355c:	d301      	bcc.n	83562 <memcpy+0x9a>
   8355e:	880b      	ldrh	r3, [r1, #0]
   83560:	8003      	strh	r3, [r0, #0]
   83562:	4660      	mov	r0, ip
   83564:	4770      	bx	lr
   83566:	bf00      	nop
   83568:	2a08      	cmp	r2, #8
   8356a:	d313      	bcc.n	83594 <memcpy+0xcc>
   8356c:	078b      	lsls	r3, r1, #30
   8356e:	d0b1      	beq.n	834d4 <memcpy+0xc>
   83570:	f010 0303 	ands.w	r3, r0, #3
   83574:	d0ae      	beq.n	834d4 <memcpy+0xc>
   83576:	f1c3 0304 	rsb	r3, r3, #4
   8357a:	1ad2      	subs	r2, r2, r3
   8357c:	07db      	lsls	r3, r3, #31
   8357e:	bf1c      	itt	ne
   83580:	f811 3b01 	ldrbne.w	r3, [r1], #1
   83584:	f800 3b01 	strbne.w	r3, [r0], #1
   83588:	d3a4      	bcc.n	834d4 <memcpy+0xc>
   8358a:	f831 3b02 	ldrh.w	r3, [r1], #2
   8358e:	f820 3b02 	strh.w	r3, [r0], #2
   83592:	e79f      	b.n	834d4 <memcpy+0xc>
   83594:	3a04      	subs	r2, #4
   83596:	d3d9      	bcc.n	8354c <memcpy+0x84>
   83598:	3a01      	subs	r2, #1
   8359a:	f811 3b01 	ldrb.w	r3, [r1], #1
   8359e:	f800 3b01 	strb.w	r3, [r0], #1
   835a2:	d2f9      	bcs.n	83598 <memcpy+0xd0>
   835a4:	780b      	ldrb	r3, [r1, #0]
   835a6:	7003      	strb	r3, [r0, #0]
   835a8:	784b      	ldrb	r3, [r1, #1]
   835aa:	7043      	strb	r3, [r0, #1]
   835ac:	788b      	ldrb	r3, [r1, #2]
   835ae:	7083      	strb	r3, [r0, #2]
   835b0:	4660      	mov	r0, ip
   835b2:	4770      	bx	lr

000835b4 <memset>:
   835b4:	b470      	push	{r4, r5, r6}
   835b6:	0784      	lsls	r4, r0, #30
   835b8:	d046      	beq.n	83648 <memset+0x94>
   835ba:	1e54      	subs	r4, r2, #1
   835bc:	2a00      	cmp	r2, #0
   835be:	d041      	beq.n	83644 <memset+0x90>
   835c0:	b2cd      	uxtb	r5, r1
   835c2:	4603      	mov	r3, r0
   835c4:	e002      	b.n	835cc <memset+0x18>
   835c6:	1e62      	subs	r2, r4, #1
   835c8:	b3e4      	cbz	r4, 83644 <memset+0x90>
   835ca:	4614      	mov	r4, r2
   835cc:	f803 5b01 	strb.w	r5, [r3], #1
   835d0:	079a      	lsls	r2, r3, #30
   835d2:	d1f8      	bne.n	835c6 <memset+0x12>
   835d4:	2c03      	cmp	r4, #3
   835d6:	d92e      	bls.n	83636 <memset+0x82>
   835d8:	b2cd      	uxtb	r5, r1
   835da:	ea45 2505 	orr.w	r5, r5, r5, lsl #8
   835de:	2c0f      	cmp	r4, #15
   835e0:	ea45 4505 	orr.w	r5, r5, r5, lsl #16
   835e4:	d919      	bls.n	8361a <memset+0x66>
   835e6:	4626      	mov	r6, r4
   835e8:	f103 0210 	add.w	r2, r3, #16
   835ec:	3e10      	subs	r6, #16
   835ee:	2e0f      	cmp	r6, #15
   835f0:	f842 5c10 	str.w	r5, [r2, #-16]
   835f4:	f842 5c0c 	str.w	r5, [r2, #-12]
   835f8:	f842 5c08 	str.w	r5, [r2, #-8]
   835fc:	f842 5c04 	str.w	r5, [r2, #-4]
   83600:	f102 0210 	add.w	r2, r2, #16
   83604:	d8f2      	bhi.n	835ec <memset+0x38>
   83606:	f1a4 0210 	sub.w	r2, r4, #16
   8360a:	f022 020f 	bic.w	r2, r2, #15
   8360e:	f004 040f 	and.w	r4, r4, #15
   83612:	3210      	adds	r2, #16
   83614:	2c03      	cmp	r4, #3
   83616:	4413      	add	r3, r2
   83618:	d90d      	bls.n	83636 <memset+0x82>
   8361a:	461e      	mov	r6, r3
   8361c:	4622      	mov	r2, r4
   8361e:	3a04      	subs	r2, #4
   83620:	2a03      	cmp	r2, #3
   83622:	f846 5b04 	str.w	r5, [r6], #4
   83626:	d8fa      	bhi.n	8361e <memset+0x6a>
   83628:	1f22      	subs	r2, r4, #4
   8362a:	f022 0203 	bic.w	r2, r2, #3
   8362e:	3204      	adds	r2, #4
   83630:	4413      	add	r3, r2
   83632:	f004 0403 	and.w	r4, r4, #3
   83636:	b12c      	cbz	r4, 83644 <memset+0x90>
   83638:	b2c9      	uxtb	r1, r1
   8363a:	441c      	add	r4, r3
   8363c:	f803 1b01 	strb.w	r1, [r3], #1
   83640:	42a3      	cmp	r3, r4
   83642:	d1fb      	bne.n	8363c <memset+0x88>
   83644:	bc70      	pop	{r4, r5, r6}
   83646:	4770      	bx	lr
   83648:	4614      	mov	r4, r2
   8364a:	4603      	mov	r3, r0
   8364c:	e7c2      	b.n	835d4 <memset+0x20>
   8364e:	bf00      	nop

00083650 <__srget_r>:
   83650:	b538      	push	{r3, r4, r5, lr}
   83652:	460c      	mov	r4, r1
   83654:	4605      	mov	r5, r0
   83656:	b108      	cbz	r0, 8365c <__srget_r+0xc>
   83658:	6b83      	ldr	r3, [r0, #56]	; 0x38
   8365a:	b163      	cbz	r3, 83676 <__srget_r+0x26>
   8365c:	4628      	mov	r0, r5
   8365e:	4621      	mov	r1, r4
   83660:	f002 fb4e 	bl	85d00 <__srefill_r>
   83664:	b950      	cbnz	r0, 8367c <__srget_r+0x2c>
   83666:	e894 000c 	ldmia.w	r4, {r2, r3}
   8366a:	3b01      	subs	r3, #1
   8366c:	1c51      	adds	r1, r2, #1
   8366e:	e884 000a 	stmia.w	r4, {r1, r3}
   83672:	7810      	ldrb	r0, [r2, #0]
   83674:	bd38      	pop	{r3, r4, r5, pc}
   83676:	f001 fa03 	bl	84a80 <__sinit>
   8367a:	e7ef      	b.n	8365c <__srget_r+0xc>
   8367c:	f04f 30ff 	mov.w	r0, #4294967295
   83680:	bd38      	pop	{r3, r4, r5, pc}
   83682:	bf00      	nop

00083684 <setbuf>:
   83684:	2900      	cmp	r1, #0
   83686:	bf0c      	ite	eq
   83688:	2202      	moveq	r2, #2
   8368a:	2200      	movne	r2, #0
   8368c:	f44f 6380 	mov.w	r3, #1024	; 0x400
   83690:	f000 b800 	b.w	83694 <setvbuf>

00083694 <setvbuf>:
   83694:	e92d 41f0 	stmdb	sp!, {r4, r5, r6, r7, r8, lr}
   83698:	4d3a      	ldr	r5, [pc, #232]	; (83784 <setvbuf+0xf0>)
   8369a:	4604      	mov	r4, r0
   8369c:	682e      	ldr	r6, [r5, #0]
   8369e:	4690      	mov	r8, r2
   836a0:	460d      	mov	r5, r1
   836a2:	461f      	mov	r7, r3
   836a4:	b116      	cbz	r6, 836ac <setvbuf+0x18>
   836a6:	6bb3      	ldr	r3, [r6, #56]	; 0x38
   836a8:	2b00      	cmp	r3, #0
   836aa:	d03c      	beq.n	83726 <setvbuf+0x92>
   836ac:	f1b8 0f02 	cmp.w	r8, #2
   836b0:	d82f      	bhi.n	83712 <setvbuf+0x7e>
   836b2:	2f00      	cmp	r7, #0
   836b4:	db2d      	blt.n	83712 <setvbuf+0x7e>
   836b6:	4621      	mov	r1, r4
   836b8:	4630      	mov	r0, r6
   836ba:	f001 f93b 	bl	84934 <_fflush_r>
   836be:	89a1      	ldrh	r1, [r4, #12]
   836c0:	2300      	movs	r3, #0
   836c2:	6063      	str	r3, [r4, #4]
   836c4:	61a3      	str	r3, [r4, #24]
   836c6:	060b      	lsls	r3, r1, #24
   836c8:	d427      	bmi.n	8371a <setvbuf+0x86>
   836ca:	f021 0183 	bic.w	r1, r1, #131	; 0x83
   836ce:	b289      	uxth	r1, r1
   836d0:	f1b8 0f02 	cmp.w	r8, #2
   836d4:	81a1      	strh	r1, [r4, #12]
   836d6:	d02a      	beq.n	8372e <setvbuf+0x9a>
   836d8:	2d00      	cmp	r5, #0
   836da:	d036      	beq.n	8374a <setvbuf+0xb6>
   836dc:	f1b8 0f01 	cmp.w	r8, #1
   836e0:	d011      	beq.n	83706 <setvbuf+0x72>
   836e2:	b289      	uxth	r1, r1
   836e4:	f001 0008 	and.w	r0, r1, #8
   836e8:	4b27      	ldr	r3, [pc, #156]	; (83788 <setvbuf+0xf4>)
   836ea:	b280      	uxth	r0, r0
   836ec:	63f3      	str	r3, [r6, #60]	; 0x3c
   836ee:	6025      	str	r5, [r4, #0]
   836f0:	6125      	str	r5, [r4, #16]
   836f2:	6167      	str	r7, [r4, #20]
   836f4:	b178      	cbz	r0, 83716 <setvbuf+0x82>
   836f6:	f011 0f03 	tst.w	r1, #3
   836fa:	bf18      	it	ne
   836fc:	2700      	movne	r7, #0
   836fe:	2000      	movs	r0, #0
   83700:	60a7      	str	r7, [r4, #8]
   83702:	e8bd 81f0 	ldmia.w	sp!, {r4, r5, r6, r7, r8, pc}
   83706:	f041 0101 	orr.w	r1, r1, #1
   8370a:	427b      	negs	r3, r7
   8370c:	81a1      	strh	r1, [r4, #12]
   8370e:	61a3      	str	r3, [r4, #24]
   83710:	e7e7      	b.n	836e2 <setvbuf+0x4e>
   83712:	f04f 30ff 	mov.w	r0, #4294967295
   83716:	e8bd 81f0 	ldmia.w	sp!, {r4, r5, r6, r7, r8, pc}
   8371a:	6921      	ldr	r1, [r4, #16]
   8371c:	4630      	mov	r0, r6
   8371e:	f001 fa87 	bl	84c30 <_free_r>
   83722:	89a1      	ldrh	r1, [r4, #12]
   83724:	e7d1      	b.n	836ca <setvbuf+0x36>
   83726:	4630      	mov	r0, r6
   83728:	f001 f9aa 	bl	84a80 <__sinit>
   8372c:	e7be      	b.n	836ac <setvbuf+0x18>
   8372e:	2000      	movs	r0, #0
   83730:	f104 0343 	add.w	r3, r4, #67	; 0x43
   83734:	f041 0102 	orr.w	r1, r1, #2
   83738:	2500      	movs	r5, #0
   8373a:	2201      	movs	r2, #1
   8373c:	81a1      	strh	r1, [r4, #12]
   8373e:	60a5      	str	r5, [r4, #8]
   83740:	6023      	str	r3, [r4, #0]
   83742:	6123      	str	r3, [r4, #16]
   83744:	6162      	str	r2, [r4, #20]
   83746:	e8bd 81f0 	ldmia.w	sp!, {r4, r5, r6, r7, r8, pc}
   8374a:	2f00      	cmp	r7, #0
   8374c:	bf08      	it	eq
   8374e:	f44f 6780 	moveq.w	r7, #1024	; 0x400
   83752:	4638      	mov	r0, r7
   83754:	f001 fd9a 	bl	8528c <malloc>
   83758:	4605      	mov	r5, r0
   8375a:	b128      	cbz	r0, 83768 <setvbuf+0xd4>
   8375c:	89a1      	ldrh	r1, [r4, #12]
   8375e:	f041 0180 	orr.w	r1, r1, #128	; 0x80
   83762:	b289      	uxth	r1, r1
   83764:	81a1      	strh	r1, [r4, #12]
   83766:	e7b9      	b.n	836dc <setvbuf+0x48>
   83768:	f44f 6080 	mov.w	r0, #1024	; 0x400
   8376c:	f001 fd8e 	bl	8528c <malloc>
   83770:	4605      	mov	r5, r0
   83772:	b918      	cbnz	r0, 8377c <setvbuf+0xe8>
   83774:	89a1      	ldrh	r1, [r4, #12]
   83776:	f04f 30ff 	mov.w	r0, #4294967295
   8377a:	e7d9      	b.n	83730 <setvbuf+0x9c>
   8377c:	f44f 6780 	mov.w	r7, #1024	; 0x400
   83780:	e7ec      	b.n	8375c <setvbuf+0xc8>
   83782:	bf00      	nop
   83784:	20070570 	.word	0x20070570
   83788:	00084985 	.word	0x00084985

0008378c <strlen>:
   8378c:	f020 0103 	bic.w	r1, r0, #3
   83790:	f010 0003 	ands.w	r0, r0, #3
   83794:	f1c0 0000 	rsb	r0, r0, #0
   83798:	f851 3b04 	ldr.w	r3, [r1], #4
   8379c:	f100 0c04 	add.w	ip, r0, #4
   837a0:	ea4f 0ccc 	mov.w	ip, ip, lsl #3
   837a4:	f06f 0200 	mvn.w	r2, #0
   837a8:	bf1c      	itt	ne
   837aa:	fa22 f20c 	lsrne.w	r2, r2, ip
   837ae:	4313      	orrne	r3, r2
   837b0:	f04f 0c01 	mov.w	ip, #1
   837b4:	ea4c 2c0c 	orr.w	ip, ip, ip, lsl #8
   837b8:	ea4c 4c0c 	orr.w	ip, ip, ip, lsl #16
   837bc:	eba3 020c 	sub.w	r2, r3, ip
   837c0:	ea22 0203 	bic.w	r2, r2, r3
   837c4:	ea12 12cc 	ands.w	r2, r2, ip, lsl #7
   837c8:	bf04      	itt	eq
   837ca:	f851 3b04 	ldreq.w	r3, [r1], #4
   837ce:	3004      	addeq	r0, #4
   837d0:	d0f4      	beq.n	837bc <strlen+0x30>
   837d2:	f1c2 0100 	rsb	r1, r2, #0
   837d6:	ea02 0201 	and.w	r2, r2, r1
   837da:	fab2 f282 	clz	r2, r2
   837de:	f1c2 021f 	rsb	r2, r2, #31
   837e2:	eb00 00d2 	add.w	r0, r0, r2, lsr #3
   837e6:	4770      	bx	lr

000837e8 <strncpy>:
   837e8:	ea40 0301 	orr.w	r3, r0, r1
   837ec:	079b      	lsls	r3, r3, #30
   837ee:	b470      	push	{r4, r5, r6}
   837f0:	d12b      	bne.n	8384a <strncpy+0x62>
   837f2:	2a03      	cmp	r2, #3
   837f4:	d929      	bls.n	8384a <strncpy+0x62>
   837f6:	460c      	mov	r4, r1
   837f8:	4603      	mov	r3, r0
   837fa:	4621      	mov	r1, r4
   837fc:	f854 6b04 	ldr.w	r6, [r4], #4
   83800:	f1a6 3501 	sub.w	r5, r6, #16843009	; 0x1010101
   83804:	ea25 0506 	bic.w	r5, r5, r6
   83808:	f015 3f80 	tst.w	r5, #2155905152	; 0x80808080
   8380c:	d105      	bne.n	8381a <strncpy+0x32>
   8380e:	3a04      	subs	r2, #4
   83810:	2a03      	cmp	r2, #3
   83812:	f843 6b04 	str.w	r6, [r3], #4
   83816:	4621      	mov	r1, r4
   83818:	d8ef      	bhi.n	837fa <strncpy+0x12>
   8381a:	b1a2      	cbz	r2, 83846 <strncpy+0x5e>
   8381c:	780c      	ldrb	r4, [r1, #0]
   8381e:	3a01      	subs	r2, #1
   83820:	701c      	strb	r4, [r3, #0]
   83822:	3101      	adds	r1, #1
   83824:	3301      	adds	r3, #1
   83826:	b13c      	cbz	r4, 83838 <strncpy+0x50>
   83828:	b16a      	cbz	r2, 83846 <strncpy+0x5e>
   8382a:	f811 4b01 	ldrb.w	r4, [r1], #1
   8382e:	3a01      	subs	r2, #1
   83830:	f803 4b01 	strb.w	r4, [r3], #1
   83834:	2c00      	cmp	r4, #0
   83836:	d1f7      	bne.n	83828 <strncpy+0x40>
   83838:	b12a      	cbz	r2, 83846 <strncpy+0x5e>
   8383a:	441a      	add	r2, r3
   8383c:	2100      	movs	r1, #0
   8383e:	f803 1b01 	strb.w	r1, [r3], #1
   83842:	4293      	cmp	r3, r2
   83844:	d1fb      	bne.n	8383e <strncpy+0x56>
   83846:	bc70      	pop	{r4, r5, r6}
   83848:	4770      	bx	lr
   8384a:	4603      	mov	r3, r0
   8384c:	e7e5      	b.n	8381a <strncpy+0x32>
   8384e:	bf00      	nop

00083850 <_strtol_r>:
   83850:	e92d 4ff0 	stmdb	sp!, {r4, r5, r6, r7, r8, r9, sl, fp, lr}
   83854:	4c44      	ldr	r4, [pc, #272]	; (83968 <_strtol_r+0x118>)
   83856:	4683      	mov	fp, r0
   83858:	460e      	mov	r6, r1
   8385a:	f8d4 e000 	ldr.w	lr, [r4]
   8385e:	e000      	b.n	83862 <_strtol_r+0x12>
   83860:	4626      	mov	r6, r4
   83862:	4634      	mov	r4, r6
   83864:	f814 5b01 	ldrb.w	r5, [r4], #1
   83868:	eb0e 0005 	add.w	r0, lr, r5
   8386c:	7840      	ldrb	r0, [r0, #1]
   8386e:	f000 0008 	and.w	r0, r0, #8
   83872:	f000 08ff 	and.w	r8, r0, #255	; 0xff
   83876:	2800      	cmp	r0, #0
   83878:	d1f2      	bne.n	83860 <_strtol_r+0x10>
   8387a:	2d2d      	cmp	r5, #45	; 0x2d
   8387c:	d04b      	beq.n	83916 <_strtol_r+0xc6>
   8387e:	2d2b      	cmp	r5, #43	; 0x2b
   83880:	bf04      	itt	eq
   83882:	7875      	ldrbeq	r5, [r6, #1]
   83884:	1cb4      	addeq	r4, r6, #2
   83886:	b11b      	cbz	r3, 83890 <_strtol_r+0x40>
   83888:	2b10      	cmp	r3, #16
   8388a:	d060      	beq.n	8394e <_strtol_r+0xfe>
   8388c:	469a      	mov	sl, r3
   8388e:	e003      	b.n	83898 <_strtol_r+0x48>
   83890:	2d30      	cmp	r5, #48	; 0x30
   83892:	d054      	beq.n	8393e <_strtol_r+0xee>
   83894:	230a      	movs	r3, #10
   83896:	469a      	mov	sl, r3
   83898:	f1b8 0f00 	cmp.w	r8, #0
   8389c:	bf14      	ite	ne
   8389e:	f04f 4000 	movne.w	r0, #2147483648	; 0x80000000
   838a2:	f06f 4000 	mvneq.w	r0, #2147483648	; 0x80000000
   838a6:	fbb0 f9fa 	udiv	r9, r0, sl
   838aa:	2700      	movs	r7, #0
   838ac:	46bc      	mov	ip, r7
   838ae:	fb0a 0019 	mls	r0, sl, r9, r0
   838b2:	e00c      	b.n	838ce <_strtol_r+0x7e>
   838b4:	3d30      	subs	r5, #48	; 0x30
   838b6:	42ab      	cmp	r3, r5
   838b8:	dd19      	ble.n	838ee <_strtol_r+0x9e>
   838ba:	1c7e      	adds	r6, r7, #1
   838bc:	d005      	beq.n	838ca <_strtol_r+0x7a>
   838be:	45cc      	cmp	ip, r9
   838c0:	d824      	bhi.n	8390c <_strtol_r+0xbc>
   838c2:	d021      	beq.n	83908 <_strtol_r+0xb8>
   838c4:	fb0a 5c0c 	mla	ip, sl, ip, r5
   838c8:	2701      	movs	r7, #1
   838ca:	f814 5b01 	ldrb.w	r5, [r4], #1
   838ce:	eb0e 0605 	add.w	r6, lr, r5
   838d2:	7876      	ldrb	r6, [r6, #1]
   838d4:	f016 0f04 	tst.w	r6, #4
   838d8:	d1ec      	bne.n	838b4 <_strtol_r+0x64>
   838da:	f016 0603 	ands.w	r6, r6, #3
   838de:	d006      	beq.n	838ee <_strtol_r+0x9e>
   838e0:	2e01      	cmp	r6, #1
   838e2:	bf0c      	ite	eq
   838e4:	2637      	moveq	r6, #55	; 0x37
   838e6:	2657      	movne	r6, #87	; 0x57
   838e8:	1bad      	subs	r5, r5, r6
   838ea:	42ab      	cmp	r3, r5
   838ec:	dce5      	bgt.n	838ba <_strtol_r+0x6a>
   838ee:	1c7b      	adds	r3, r7, #1
   838f0:	d016      	beq.n	83920 <_strtol_r+0xd0>
   838f2:	f1c8 0000 	rsb	r0, r8, #0
   838f6:	ea8c 0000 	eor.w	r0, ip, r0
   838fa:	4440      	add	r0, r8
   838fc:	b14a      	cbz	r2, 83912 <_strtol_r+0xc2>
   838fe:	b107      	cbz	r7, 83902 <_strtol_r+0xb2>
   83900:	1e61      	subs	r1, r4, #1
   83902:	6011      	str	r1, [r2, #0]
   83904:	e8bd 8ff0 	ldmia.w	sp!, {r4, r5, r6, r7, r8, r9, sl, fp, pc}
   83908:	4285      	cmp	r5, r0
   8390a:	dddb      	ble.n	838c4 <_strtol_r+0x74>
   8390c:	f04f 37ff 	mov.w	r7, #4294967295
   83910:	e7db      	b.n	838ca <_strtol_r+0x7a>
   83912:	e8bd 8ff0 	ldmia.w	sp!, {r4, r5, r6, r7, r8, r9, sl, fp, pc}
   83916:	1cb4      	adds	r4, r6, #2
   83918:	7875      	ldrb	r5, [r6, #1]
   8391a:	f04f 0801 	mov.w	r8, #1
   8391e:	e7b2      	b.n	83886 <_strtol_r+0x36>
   83920:	f1b8 0f00 	cmp.w	r8, #0
   83924:	f04f 0322 	mov.w	r3, #34	; 0x22
   83928:	bf14      	ite	ne
   8392a:	f04f 4000 	movne.w	r0, #2147483648	; 0x80000000
   8392e:	f06f 4000 	mvneq.w	r0, #2147483648	; 0x80000000
   83932:	f8cb 3000 	str.w	r3, [fp]
   83936:	2a00      	cmp	r2, #0
   83938:	d1e2      	bne.n	83900 <_strtol_r+0xb0>
   8393a:	e8bd 8ff0 	ldmia.w	sp!, {r4, r5, r6, r7, r8, r9, sl, fp, pc}
   8393e:	7823      	ldrb	r3, [r4, #0]
   83940:	f003 03df 	and.w	r3, r3, #223	; 0xdf
   83944:	2b58      	cmp	r3, #88	; 0x58
   83946:	d009      	beq.n	8395c <_strtol_r+0x10c>
   83948:	2308      	movs	r3, #8
   8394a:	469a      	mov	sl, r3
   8394c:	e7a4      	b.n	83898 <_strtol_r+0x48>
   8394e:	2d30      	cmp	r5, #48	; 0x30
   83950:	d19c      	bne.n	8388c <_strtol_r+0x3c>
   83952:	7820      	ldrb	r0, [r4, #0]
   83954:	f000 00df 	and.w	r0, r0, #223	; 0xdf
   83958:	2858      	cmp	r0, #88	; 0x58
   8395a:	d197      	bne.n	8388c <_strtol_r+0x3c>
   8395c:	f04f 0a10 	mov.w	sl, #16
   83960:	7865      	ldrb	r5, [r4, #1]
   83962:	4653      	mov	r3, sl
   83964:	3402      	adds	r4, #2
   83966:	e797      	b.n	83898 <_strtol_r+0x48>
   83968:	20070574 	.word	0x20070574

0008396c <strtol>:
   8396c:	b430      	push	{r4, r5}
   8396e:	460d      	mov	r5, r1
   83970:	4c03      	ldr	r4, [pc, #12]	; (83980 <strtol+0x14>)
   83972:	4613      	mov	r3, r2
   83974:	4601      	mov	r1, r0
   83976:	462a      	mov	r2, r5
   83978:	6820      	ldr	r0, [r4, #0]
   8397a:	bc30      	pop	{r4, r5}
   8397c:	f7ff bf68 	b.w	83850 <_strtol_r>
   83980:	20070570 	.word	0x20070570

00083984 <__utoa>:
   83984:	b5f0      	push	{r4, r5, r6, r7, lr}
   83986:	b08b      	sub	sp, #44	; 0x2c
   83988:	466f      	mov	r7, sp
   8398a:	4615      	mov	r5, r2
   8398c:	f8df e070 	ldr.w	lr, [pc, #112]	; 83a00 <__utoa+0x7c>
   83990:	4604      	mov	r4, r0
   83992:	460e      	mov	r6, r1
   83994:	e8be 000f 	ldmia.w	lr!, {r0, r1, r2, r3}
   83998:	c70f      	stmia	r7!, {r0, r1, r2, r3}
   8399a:	e8be 000f 	ldmia.w	lr!, {r0, r1, r2, r3}
   8399e:	c70f      	stmia	r7!, {r0, r1, r2, r3}
   839a0:	e89e 0003 	ldmia.w	lr, {r0, r1}
   839a4:	1eab      	subs	r3, r5, #2
   839a6:	f847 0b04 	str.w	r0, [r7], #4
   839aa:	2b22      	cmp	r3, #34	; 0x22
   839ac:	7039      	strb	r1, [r7, #0]
   839ae:	d822      	bhi.n	839f6 <__utoa+0x72>
   839b0:	1e71      	subs	r1, r6, #1
   839b2:	4608      	mov	r0, r1
   839b4:	2300      	movs	r3, #0
   839b6:	e000      	b.n	839ba <__utoa+0x36>
   839b8:	4613      	mov	r3, r2
   839ba:	fbb4 f2f5 	udiv	r2, r4, r5
   839be:	fb05 4412 	mls	r4, r5, r2, r4
   839c2:	af0a      	add	r7, sp, #40	; 0x28
   839c4:	443c      	add	r4, r7
   839c6:	f814 7c28 	ldrb.w	r7, [r4, #-40]
   839ca:	4614      	mov	r4, r2
   839cc:	f800 7f01 	strb.w	r7, [r0, #1]!
   839d0:	1c5a      	adds	r2, r3, #1
   839d2:	2c00      	cmp	r4, #0
   839d4:	d1f0      	bne.n	839b8 <__utoa+0x34>
   839d6:	54b4      	strb	r4, [r6, r2]
   839d8:	18f2      	adds	r2, r6, r3
   839da:	b14b      	cbz	r3, 839f0 <__utoa+0x6c>
   839dc:	3401      	adds	r4, #1
   839de:	f811 5f01 	ldrb.w	r5, [r1, #1]!
   839e2:	7817      	ldrb	r7, [r2, #0]
   839e4:	1b18      	subs	r0, r3, r4
   839e6:	4284      	cmp	r4, r0
   839e8:	700f      	strb	r7, [r1, #0]
   839ea:	f802 5901 	strb.w	r5, [r2], #-1
   839ee:	dbf5      	blt.n	839dc <__utoa+0x58>
   839f0:	4630      	mov	r0, r6
   839f2:	b00b      	add	sp, #44	; 0x2c
   839f4:	bdf0      	pop	{r4, r5, r6, r7, pc}
   839f6:	2000      	movs	r0, #0
   839f8:	7030      	strb	r0, [r6, #0]
   839fa:	b00b      	add	sp, #44	; 0x2c
   839fc:	bdf0      	pop	{r4, r5, r6, r7, pc}
   839fe:	bf00      	nop
   83a00:	00086804 	.word	0x00086804

00083a04 <__sprint_r.part.0>:
   83a04:	6e4b      	ldr	r3, [r1, #100]	; 0x64
   83a06:	e92d 47f0 	stmdb	sp!, {r4, r5, r6, r7, r8, r9, sl, lr}
   83a0a:	049c      	lsls	r4, r3, #18
   83a0c:	460f      	mov	r7, r1
   83a0e:	4692      	mov	sl, r2
   83a10:	d52b      	bpl.n	83a6a <__sprint_r.part.0+0x66>
   83a12:	6893      	ldr	r3, [r2, #8]
   83a14:	6812      	ldr	r2, [r2, #0]
   83a16:	b333      	cbz	r3, 83a66 <__sprint_r.part.0+0x62>
   83a18:	4680      	mov	r8, r0
   83a1a:	f102 0908 	add.w	r9, r2, #8
   83a1e:	e919 0060 	ldmdb	r9, {r5, r6}
   83a22:	08b6      	lsrs	r6, r6, #2
   83a24:	d017      	beq.n	83a56 <__sprint_r.part.0+0x52>
   83a26:	3d04      	subs	r5, #4
   83a28:	2400      	movs	r4, #0
   83a2a:	e001      	b.n	83a30 <__sprint_r.part.0+0x2c>
   83a2c:	42a6      	cmp	r6, r4
   83a2e:	d010      	beq.n	83a52 <__sprint_r.part.0+0x4e>
   83a30:	4640      	mov	r0, r8
   83a32:	f855 1f04 	ldr.w	r1, [r5, #4]!
   83a36:	463a      	mov	r2, r7
   83a38:	f001 f89a 	bl	84b70 <_fputwc_r>
   83a3c:	1c43      	adds	r3, r0, #1
   83a3e:	f104 0401 	add.w	r4, r4, #1
   83a42:	d1f3      	bne.n	83a2c <__sprint_r.part.0+0x28>
   83a44:	2300      	movs	r3, #0
   83a46:	f8ca 3008 	str.w	r3, [sl, #8]
   83a4a:	f8ca 3004 	str.w	r3, [sl, #4]
   83a4e:	e8bd 87f0 	ldmia.w	sp!, {r4, r5, r6, r7, r8, r9, sl, pc}
   83a52:	f8da 3008 	ldr.w	r3, [sl, #8]
   83a56:	eba3 0386 	sub.w	r3, r3, r6, lsl #2
   83a5a:	f8ca 3008 	str.w	r3, [sl, #8]
   83a5e:	f109 0908 	add.w	r9, r9, #8
   83a62:	2b00      	cmp	r3, #0
   83a64:	d1db      	bne.n	83a1e <__sprint_r.part.0+0x1a>
   83a66:	2000      	movs	r0, #0
   83a68:	e7ec      	b.n	83a44 <__sprint_r.part.0+0x40>
   83a6a:	f001 f9b9 	bl	84de0 <__sfvwrite_r>
   83a6e:	2300      	movs	r3, #0
   83a70:	f8ca 3008 	str.w	r3, [sl, #8]
   83a74:	f8ca 3004 	str.w	r3, [sl, #4]
   83a78:	e8bd 87f0 	ldmia.w	sp!, {r4, r5, r6, r7, r8, r9, sl, pc}

00083a7c <_vfiprintf_r>:
   83a7c:	e92d 4ff0 	stmdb	sp!, {r4, r5, r6, r7, r8, r9, sl, fp, lr}
   83a80:	b0ab      	sub	sp, #172	; 0xac
   83a82:	461c      	mov	r4, r3
   83a84:	9100      	str	r1, [sp, #0]
   83a86:	4693      	mov	fp, r2
   83a88:	9304      	str	r3, [sp, #16]
   83a8a:	9001      	str	r0, [sp, #4]
   83a8c:	b118      	cbz	r0, 83a96 <_vfiprintf_r+0x1a>
   83a8e:	6b83      	ldr	r3, [r0, #56]	; 0x38
   83a90:	2b00      	cmp	r3, #0
   83a92:	f000 80e3 	beq.w	83c5c <_vfiprintf_r+0x1e0>
   83a96:	9b00      	ldr	r3, [sp, #0]
   83a98:	8999      	ldrh	r1, [r3, #12]
   83a9a:	b28a      	uxth	r2, r1
   83a9c:	0490      	lsls	r0, r2, #18
   83a9e:	d408      	bmi.n	83ab2 <_vfiprintf_r+0x36>
   83aa0:	4618      	mov	r0, r3
   83aa2:	6e5b      	ldr	r3, [r3, #100]	; 0x64
   83aa4:	f441 5200 	orr.w	r2, r1, #8192	; 0x2000
   83aa8:	f423 5300 	bic.w	r3, r3, #8192	; 0x2000
   83aac:	8182      	strh	r2, [r0, #12]
   83aae:	6643      	str	r3, [r0, #100]	; 0x64
   83ab0:	b292      	uxth	r2, r2
   83ab2:	0711      	lsls	r1, r2, #28
   83ab4:	f140 80b2 	bpl.w	83c1c <_vfiprintf_r+0x1a0>
   83ab8:	9b00      	ldr	r3, [sp, #0]
   83aba:	691b      	ldr	r3, [r3, #16]
   83abc:	2b00      	cmp	r3, #0
   83abe:	f000 80ad 	beq.w	83c1c <_vfiprintf_r+0x1a0>
   83ac2:	f002 021a 	and.w	r2, r2, #26
   83ac6:	2a0a      	cmp	r2, #10
   83ac8:	f000 80b4 	beq.w	83c34 <_vfiprintf_r+0x1b8>
   83acc:	f10d 0a68 	add.w	sl, sp, #104	; 0x68
   83ad0:	4654      	mov	r4, sl
   83ad2:	2300      	movs	r3, #0
   83ad4:	9309      	str	r3, [sp, #36]	; 0x24
   83ad6:	9302      	str	r3, [sp, #8]
   83ad8:	930f      	str	r3, [sp, #60]	; 0x3c
   83ada:	930e      	str	r3, [sp, #56]	; 0x38
   83adc:	f8cd a034 	str.w	sl, [sp, #52]	; 0x34
   83ae0:	f89b 3000 	ldrb.w	r3, [fp]
   83ae4:	2b00      	cmp	r3, #0
   83ae6:	f000 84a3 	beq.w	84430 <_vfiprintf_r+0x9b4>
   83aea:	2b25      	cmp	r3, #37	; 0x25
   83aec:	f000 84a0 	beq.w	84430 <_vfiprintf_r+0x9b4>
   83af0:	465a      	mov	r2, fp
   83af2:	e001      	b.n	83af8 <_vfiprintf_r+0x7c>
   83af4:	2b25      	cmp	r3, #37	; 0x25
   83af6:	d003      	beq.n	83b00 <_vfiprintf_r+0x84>
   83af8:	f812 3f01 	ldrb.w	r3, [r2, #1]!
   83afc:	2b00      	cmp	r3, #0
   83afe:	d1f9      	bne.n	83af4 <_vfiprintf_r+0x78>
   83b00:	ebcb 0602 	rsb	r6, fp, r2
   83b04:	4615      	mov	r5, r2
   83b06:	b196      	cbz	r6, 83b2e <_vfiprintf_r+0xb2>
   83b08:	9b0e      	ldr	r3, [sp, #56]	; 0x38
   83b0a:	9a0f      	ldr	r2, [sp, #60]	; 0x3c
   83b0c:	3301      	adds	r3, #1
   83b0e:	4432      	add	r2, r6
   83b10:	2b07      	cmp	r3, #7
   83b12:	f8c4 b000 	str.w	fp, [r4]
   83b16:	6066      	str	r6, [r4, #4]
   83b18:	920f      	str	r2, [sp, #60]	; 0x3c
   83b1a:	930e      	str	r3, [sp, #56]	; 0x38
   83b1c:	dd79      	ble.n	83c12 <_vfiprintf_r+0x196>
   83b1e:	2a00      	cmp	r2, #0
   83b20:	f040 84ad 	bne.w	8447e <_vfiprintf_r+0xa02>
   83b24:	4654      	mov	r4, sl
   83b26:	9b02      	ldr	r3, [sp, #8]
   83b28:	920e      	str	r2, [sp, #56]	; 0x38
   83b2a:	4433      	add	r3, r6
   83b2c:	9302      	str	r3, [sp, #8]
   83b2e:	782b      	ldrb	r3, [r5, #0]
   83b30:	2b00      	cmp	r3, #0
   83b32:	f000 835f 	beq.w	841f4 <_vfiprintf_r+0x778>
   83b36:	f04f 0300 	mov.w	r3, #0
   83b3a:	2100      	movs	r1, #0
   83b3c:	f04f 3cff 	mov.w	ip, #4294967295
   83b40:	f88d 302f 	strb.w	r3, [sp, #47]	; 0x2f
   83b44:	1c68      	adds	r0, r5, #1
   83b46:	786b      	ldrb	r3, [r5, #1]
   83b48:	4688      	mov	r8, r1
   83b4a:	460d      	mov	r5, r1
   83b4c:	4666      	mov	r6, ip
   83b4e:	f100 0b01 	add.w	fp, r0, #1
   83b52:	f1a3 0220 	sub.w	r2, r3, #32
   83b56:	2a58      	cmp	r2, #88	; 0x58
   83b58:	f200 82aa 	bhi.w	840b0 <_vfiprintf_r+0x634>
   83b5c:	e8df f012 	tbh	[pc, r2, lsl #1]
   83b60:	02a8029a 	.word	0x02a8029a
   83b64:	02a202a8 	.word	0x02a202a8
   83b68:	02a802a8 	.word	0x02a802a8
   83b6c:	02a802a8 	.word	0x02a802a8
   83b70:	02a802a8 	.word	0x02a802a8
   83b74:	02600254 	.word	0x02600254
   83b78:	010d02a8 	.word	0x010d02a8
   83b7c:	02a8026c 	.word	0x02a8026c
   83b80:	012f0129 	.word	0x012f0129
   83b84:	012f012f 	.word	0x012f012f
   83b88:	012f012f 	.word	0x012f012f
   83b8c:	012f012f 	.word	0x012f012f
   83b90:	012f012f 	.word	0x012f012f
   83b94:	02a802a8 	.word	0x02a802a8
   83b98:	02a802a8 	.word	0x02a802a8
   83b9c:	02a802a8 	.word	0x02a802a8
   83ba0:	02a802a8 	.word	0x02a802a8
   83ba4:	02a802a8 	.word	0x02a802a8
   83ba8:	02a8013d 	.word	0x02a8013d
   83bac:	02a802a8 	.word	0x02a802a8
   83bb0:	02a802a8 	.word	0x02a802a8
   83bb4:	02a802a8 	.word	0x02a802a8
   83bb8:	02a802a8 	.word	0x02a802a8
   83bbc:	017402a8 	.word	0x017402a8
   83bc0:	02a802a8 	.word	0x02a802a8
   83bc4:	02a802a8 	.word	0x02a802a8
   83bc8:	018b02a8 	.word	0x018b02a8
   83bcc:	02a802a8 	.word	0x02a802a8
   83bd0:	02a801a3 	.word	0x02a801a3
   83bd4:	02a802a8 	.word	0x02a802a8
   83bd8:	02a802a8 	.word	0x02a802a8
   83bdc:	02a802a8 	.word	0x02a802a8
   83be0:	02a802a8 	.word	0x02a802a8
   83be4:	01c702a8 	.word	0x01c702a8
   83be8:	02a801da 	.word	0x02a801da
   83bec:	02a802a8 	.word	0x02a802a8
   83bf0:	01da0123 	.word	0x01da0123
   83bf4:	02a802a8 	.word	0x02a802a8
   83bf8:	02a8024b 	.word	0x02a8024b
   83bfc:	01130288 	.word	0x01130288
   83c00:	020701f4 	.word	0x020701f4
   83c04:	020d02a8 	.word	0x020d02a8
   83c08:	008102a8 	.word	0x008102a8
   83c0c:	02a802a8 	.word	0x02a802a8
   83c10:	0232      	.short	0x0232
   83c12:	3408      	adds	r4, #8
   83c14:	9b02      	ldr	r3, [sp, #8]
   83c16:	4433      	add	r3, r6
   83c18:	9302      	str	r3, [sp, #8]
   83c1a:	e788      	b.n	83b2e <_vfiprintf_r+0xb2>
   83c1c:	9801      	ldr	r0, [sp, #4]
   83c1e:	9900      	ldr	r1, [sp, #0]
   83c20:	f000 fd72 	bl	84708 <__swsetup_r>
   83c24:	b9a8      	cbnz	r0, 83c52 <_vfiprintf_r+0x1d6>
   83c26:	9b00      	ldr	r3, [sp, #0]
   83c28:	899a      	ldrh	r2, [r3, #12]
   83c2a:	f002 021a 	and.w	r2, r2, #26
   83c2e:	2a0a      	cmp	r2, #10
   83c30:	f47f af4c 	bne.w	83acc <_vfiprintf_r+0x50>
   83c34:	9b00      	ldr	r3, [sp, #0]
   83c36:	f9b3 300e 	ldrsh.w	r3, [r3, #14]
   83c3a:	2b00      	cmp	r3, #0
   83c3c:	f6ff af46 	blt.w	83acc <_vfiprintf_r+0x50>
   83c40:	9801      	ldr	r0, [sp, #4]
   83c42:	9900      	ldr	r1, [sp, #0]
   83c44:	465a      	mov	r2, fp
   83c46:	4623      	mov	r3, r4
   83c48:	f000 fd20 	bl	8468c <__sbprintf>
   83c4c:	b02b      	add	sp, #172	; 0xac
   83c4e:	e8bd 8ff0 	ldmia.w	sp!, {r4, r5, r6, r7, r8, r9, sl, fp, pc}
   83c52:	f04f 30ff 	mov.w	r0, #4294967295
   83c56:	b02b      	add	sp, #172	; 0xac
   83c58:	e8bd 8ff0 	ldmia.w	sp!, {r4, r5, r6, r7, r8, r9, sl, fp, pc}
   83c5c:	f000 ff10 	bl	84a80 <__sinit>
   83c60:	e719      	b.n	83a96 <_vfiprintf_r+0x1a>
   83c62:	f018 0f20 	tst.w	r8, #32
   83c66:	9503      	str	r5, [sp, #12]
   83c68:	46b4      	mov	ip, r6
   83c6a:	f000 810c 	beq.w	83e86 <_vfiprintf_r+0x40a>
   83c6e:	9b04      	ldr	r3, [sp, #16]
   83c70:	3307      	adds	r3, #7
   83c72:	f023 0307 	bic.w	r3, r3, #7
   83c76:	f103 0208 	add.w	r2, r3, #8
   83c7a:	e9d3 6700 	ldrd	r6, r7, [r3]
   83c7e:	9204      	str	r2, [sp, #16]
   83c80:	2301      	movs	r3, #1
   83c82:	f04f 0200 	mov.w	r2, #0
   83c86:	46e1      	mov	r9, ip
   83c88:	f88d 202f 	strb.w	r2, [sp, #47]	; 0x2f
   83c8c:	2500      	movs	r5, #0
   83c8e:	f1bc 0f00 	cmp.w	ip, #0
   83c92:	bfa8      	it	ge
   83c94:	f028 0880 	bicge.w	r8, r8, #128	; 0x80
   83c98:	ea56 0207 	orrs.w	r2, r6, r7
   83c9c:	f040 80c4 	bne.w	83e28 <_vfiprintf_r+0x3ac>
   83ca0:	f1bc 0f00 	cmp.w	ip, #0
   83ca4:	f000 8380 	beq.w	843a8 <_vfiprintf_r+0x92c>
   83ca8:	2b01      	cmp	r3, #1
   83caa:	f000 80c5 	beq.w	83e38 <_vfiprintf_r+0x3bc>
   83cae:	2b02      	cmp	r3, #2
   83cb0:	f000 8386 	beq.w	843c0 <_vfiprintf_r+0x944>
   83cb4:	4651      	mov	r1, sl
   83cb6:	08f2      	lsrs	r2, r6, #3
   83cb8:	ea42 7247 	orr.w	r2, r2, r7, lsl #29
   83cbc:	08f8      	lsrs	r0, r7, #3
   83cbe:	f006 0307 	and.w	r3, r6, #7
   83cc2:	4607      	mov	r7, r0
   83cc4:	4616      	mov	r6, r2
   83cc6:	3330      	adds	r3, #48	; 0x30
   83cc8:	ea56 0207 	orrs.w	r2, r6, r7
   83ccc:	f801 3d01 	strb.w	r3, [r1, #-1]!
   83cd0:	d1f1      	bne.n	83cb6 <_vfiprintf_r+0x23a>
   83cd2:	f018 0f01 	tst.w	r8, #1
   83cd6:	9107      	str	r1, [sp, #28]
   83cd8:	f040 83fa 	bne.w	844d0 <_vfiprintf_r+0xa54>
   83cdc:	ebc1 090a 	rsb	r9, r1, sl
   83ce0:	45e1      	cmp	r9, ip
   83ce2:	464e      	mov	r6, r9
   83ce4:	bfb8      	it	lt
   83ce6:	4666      	movlt	r6, ip
   83ce8:	b105      	cbz	r5, 83cec <_vfiprintf_r+0x270>
   83cea:	3601      	adds	r6, #1
   83cec:	f018 0302 	ands.w	r3, r8, #2
   83cf0:	9305      	str	r3, [sp, #20]
   83cf2:	bf18      	it	ne
   83cf4:	3602      	addne	r6, #2
   83cf6:	f018 0384 	ands.w	r3, r8, #132	; 0x84
   83cfa:	9306      	str	r3, [sp, #24]
   83cfc:	f040 81f9 	bne.w	840f2 <_vfiprintf_r+0x676>
   83d00:	9b03      	ldr	r3, [sp, #12]
   83d02:	1b9d      	subs	r5, r3, r6
   83d04:	2d00      	cmp	r5, #0
   83d06:	f340 81f4 	ble.w	840f2 <_vfiprintf_r+0x676>
   83d0a:	2d10      	cmp	r5, #16
   83d0c:	f340 848a 	ble.w	84624 <_vfiprintf_r+0xba8>
   83d10:	4620      	mov	r0, r4
   83d12:	f8dd e038 	ldr.w	lr, [sp, #56]	; 0x38
   83d16:	4664      	mov	r4, ip
   83d18:	9a0f      	ldr	r2, [sp, #60]	; 0x3c
   83d1a:	4fc4      	ldr	r7, [pc, #784]	; (8402c <_vfiprintf_r+0x5b0>)
   83d1c:	2310      	movs	r3, #16
   83d1e:	4671      	mov	r1, lr
   83d20:	4684      	mov	ip, r0
   83d22:	e007      	b.n	83d34 <_vfiprintf_r+0x2b8>
   83d24:	f101 0e02 	add.w	lr, r1, #2
   83d28:	4601      	mov	r1, r0
   83d2a:	f10c 0c08 	add.w	ip, ip, #8
   83d2e:	3d10      	subs	r5, #16
   83d30:	2d10      	cmp	r5, #16
   83d32:	dd13      	ble.n	83d5c <_vfiprintf_r+0x2e0>
   83d34:	1c48      	adds	r0, r1, #1
   83d36:	3210      	adds	r2, #16
   83d38:	2807      	cmp	r0, #7
   83d3a:	920f      	str	r2, [sp, #60]	; 0x3c
   83d3c:	f8cc 7000 	str.w	r7, [ip]
   83d40:	f8cc 3004 	str.w	r3, [ip, #4]
   83d44:	900e      	str	r0, [sp, #56]	; 0x38
   83d46:	dded      	ble.n	83d24 <_vfiprintf_r+0x2a8>
   83d48:	2a00      	cmp	r2, #0
   83d4a:	f040 81c2 	bne.w	840d2 <_vfiprintf_r+0x656>
   83d4e:	3d10      	subs	r5, #16
   83d50:	2d10      	cmp	r5, #16
   83d52:	4611      	mov	r1, r2
   83d54:	f04f 0e01 	mov.w	lr, #1
   83d58:	46d4      	mov	ip, sl
   83d5a:	dceb      	bgt.n	83d34 <_vfiprintf_r+0x2b8>
   83d5c:	4663      	mov	r3, ip
   83d5e:	4671      	mov	r1, lr
   83d60:	46a4      	mov	ip, r4
   83d62:	461c      	mov	r4, r3
   83d64:	442a      	add	r2, r5
   83d66:	2907      	cmp	r1, #7
   83d68:	920f      	str	r2, [sp, #60]	; 0x3c
   83d6a:	6027      	str	r7, [r4, #0]
   83d6c:	6065      	str	r5, [r4, #4]
   83d6e:	910e      	str	r1, [sp, #56]	; 0x38
   83d70:	f300 8346 	bgt.w	84400 <_vfiprintf_r+0x984>
   83d74:	3408      	adds	r4, #8
   83d76:	1c48      	adds	r0, r1, #1
   83d78:	e1be      	b.n	840f8 <_vfiprintf_r+0x67c>
   83d7a:	4658      	mov	r0, fp
   83d7c:	f048 0804 	orr.w	r8, r8, #4
   83d80:	f89b 3000 	ldrb.w	r3, [fp]
   83d84:	e6e3      	b.n	83b4e <_vfiprintf_r+0xd2>
   83d86:	f018 0320 	ands.w	r3, r8, #32
   83d8a:	9503      	str	r5, [sp, #12]
   83d8c:	46b4      	mov	ip, r6
   83d8e:	d062      	beq.n	83e56 <_vfiprintf_r+0x3da>
   83d90:	9b04      	ldr	r3, [sp, #16]
   83d92:	3307      	adds	r3, #7
   83d94:	f023 0307 	bic.w	r3, r3, #7
   83d98:	f103 0208 	add.w	r2, r3, #8
   83d9c:	e9d3 6700 	ldrd	r6, r7, [r3]
   83da0:	9204      	str	r2, [sp, #16]
   83da2:	2300      	movs	r3, #0
   83da4:	e76d      	b.n	83c82 <_vfiprintf_r+0x206>
   83da6:	f048 0840 	orr.w	r8, r8, #64	; 0x40
   83daa:	f89b 3000 	ldrb.w	r3, [fp]
   83dae:	4658      	mov	r0, fp
   83db0:	e6cd      	b.n	83b4e <_vfiprintf_r+0xd2>
   83db2:	f048 0880 	orr.w	r8, r8, #128	; 0x80
   83db6:	f89b 3000 	ldrb.w	r3, [fp]
   83dba:	4658      	mov	r0, fp
   83dbc:	e6c7      	b.n	83b4e <_vfiprintf_r+0xd2>
   83dbe:	f1a3 0230 	sub.w	r2, r3, #48	; 0x30
   83dc2:	2500      	movs	r5, #0
   83dc4:	f81b 3b01 	ldrb.w	r3, [fp], #1
   83dc8:	eb05 0585 	add.w	r5, r5, r5, lsl #2
   83dcc:	eb02 0545 	add.w	r5, r2, r5, lsl #1
   83dd0:	f1a3 0230 	sub.w	r2, r3, #48	; 0x30
   83dd4:	2a09      	cmp	r2, #9
   83dd6:	d9f5      	bls.n	83dc4 <_vfiprintf_r+0x348>
   83dd8:	e6bb      	b.n	83b52 <_vfiprintf_r+0xd6>
   83dda:	f048 0810 	orr.w	r8, r8, #16
   83dde:	f018 0f20 	tst.w	r8, #32
   83de2:	9503      	str	r5, [sp, #12]
   83de4:	46b4      	mov	ip, r6
   83de6:	f88d 102f 	strb.w	r1, [sp, #47]	; 0x2f
   83dea:	f000 809b 	beq.w	83f24 <_vfiprintf_r+0x4a8>
   83dee:	9904      	ldr	r1, [sp, #16]
   83df0:	3107      	adds	r1, #7
   83df2:	f021 0107 	bic.w	r1, r1, #7
   83df6:	e9d1 2300 	ldrd	r2, r3, [r1]
   83dfa:	4616      	mov	r6, r2
   83dfc:	461f      	mov	r7, r3
   83dfe:	3108      	adds	r1, #8
   83e00:	9104      	str	r1, [sp, #16]
   83e02:	2a00      	cmp	r2, #0
   83e04:	f173 0300 	sbcs.w	r3, r3, #0
   83e08:	f2c0 83a4 	blt.w	84554 <_vfiprintf_r+0xad8>
   83e0c:	f1bc 0f00 	cmp.w	ip, #0
   83e10:	bfa8      	it	ge
   83e12:	f028 0880 	bicge.w	r8, r8, #128	; 0x80
   83e16:	ea56 0207 	orrs.w	r2, r6, r7
   83e1a:	f89d 502f 	ldrb.w	r5, [sp, #47]	; 0x2f
   83e1e:	46e1      	mov	r9, ip
   83e20:	f04f 0301 	mov.w	r3, #1
   83e24:	f43f af3c 	beq.w	83ca0 <_vfiprintf_r+0x224>
   83e28:	2b01      	cmp	r3, #1
   83e2a:	f47f af40 	bne.w	83cae <_vfiprintf_r+0x232>
   83e2e:	2f00      	cmp	r7, #0
   83e30:	bf08      	it	eq
   83e32:	2e0a      	cmpeq	r6, #10
   83e34:	f080 8332 	bcs.w	8449c <_vfiprintf_r+0xa20>
   83e38:	ab2a      	add	r3, sp, #168	; 0xa8
   83e3a:	3630      	adds	r6, #48	; 0x30
   83e3c:	f803 6d41 	strb.w	r6, [r3, #-65]!
   83e40:	ebc3 090a 	rsb	r9, r3, sl
   83e44:	9307      	str	r3, [sp, #28]
   83e46:	e74b      	b.n	83ce0 <_vfiprintf_r+0x264>
   83e48:	f048 0810 	orr.w	r8, r8, #16
   83e4c:	f018 0320 	ands.w	r3, r8, #32
   83e50:	9503      	str	r5, [sp, #12]
   83e52:	46b4      	mov	ip, r6
   83e54:	d19c      	bne.n	83d90 <_vfiprintf_r+0x314>
   83e56:	f018 0210 	ands.w	r2, r8, #16
   83e5a:	f040 82f7 	bne.w	8444c <_vfiprintf_r+0x9d0>
   83e5e:	f018 0340 	ands.w	r3, r8, #64	; 0x40
   83e62:	f000 82f3 	beq.w	8444c <_vfiprintf_r+0x9d0>
   83e66:	9904      	ldr	r1, [sp, #16]
   83e68:	4613      	mov	r3, r2
   83e6a:	460a      	mov	r2, r1
   83e6c:	3204      	adds	r2, #4
   83e6e:	880e      	ldrh	r6, [r1, #0]
   83e70:	2700      	movs	r7, #0
   83e72:	9204      	str	r2, [sp, #16]
   83e74:	e705      	b.n	83c82 <_vfiprintf_r+0x206>
   83e76:	f048 0810 	orr.w	r8, r8, #16
   83e7a:	f018 0f20 	tst.w	r8, #32
   83e7e:	9503      	str	r5, [sp, #12]
   83e80:	46b4      	mov	ip, r6
   83e82:	f47f aef4 	bne.w	83c6e <_vfiprintf_r+0x1f2>
   83e86:	9a04      	ldr	r2, [sp, #16]
   83e88:	f018 0f10 	tst.w	r8, #16
   83e8c:	4613      	mov	r3, r2
   83e8e:	f040 82e4 	bne.w	8445a <_vfiprintf_r+0x9de>
   83e92:	f018 0f40 	tst.w	r8, #64	; 0x40
   83e96:	f000 82e0 	beq.w	8445a <_vfiprintf_r+0x9de>
   83e9a:	8816      	ldrh	r6, [r2, #0]
   83e9c:	3204      	adds	r2, #4
   83e9e:	2700      	movs	r7, #0
   83ea0:	2301      	movs	r3, #1
   83ea2:	9204      	str	r2, [sp, #16]
   83ea4:	e6ed      	b.n	83c82 <_vfiprintf_r+0x206>
   83ea6:	4a62      	ldr	r2, [pc, #392]	; (84030 <_vfiprintf_r+0x5b4>)
   83ea8:	f018 0f20 	tst.w	r8, #32
   83eac:	9503      	str	r5, [sp, #12]
   83eae:	46b4      	mov	ip, r6
   83eb0:	f88d 102f 	strb.w	r1, [sp, #47]	; 0x2f
   83eb4:	9209      	str	r2, [sp, #36]	; 0x24
   83eb6:	f000 808f 	beq.w	83fd8 <_vfiprintf_r+0x55c>
   83eba:	9a04      	ldr	r2, [sp, #16]
   83ebc:	3207      	adds	r2, #7
   83ebe:	f022 0207 	bic.w	r2, r2, #7
   83ec2:	f102 0108 	add.w	r1, r2, #8
   83ec6:	9104      	str	r1, [sp, #16]
   83ec8:	e9d2 6700 	ldrd	r6, r7, [r2]
   83ecc:	f018 0f01 	tst.w	r8, #1
   83ed0:	f000 828f 	beq.w	843f2 <_vfiprintf_r+0x976>
   83ed4:	ea56 0207 	orrs.w	r2, r6, r7
   83ed8:	f000 828b 	beq.w	843f2 <_vfiprintf_r+0x976>
   83edc:	2230      	movs	r2, #48	; 0x30
   83ede:	f88d 3031 	strb.w	r3, [sp, #49]	; 0x31
   83ee2:	f048 0802 	orr.w	r8, r8, #2
   83ee6:	f88d 2030 	strb.w	r2, [sp, #48]	; 0x30
   83eea:	2302      	movs	r3, #2
   83eec:	e6c9      	b.n	83c82 <_vfiprintf_r+0x206>
   83eee:	9a04      	ldr	r2, [sp, #16]
   83ef0:	2601      	movs	r6, #1
   83ef2:	6813      	ldr	r3, [r2, #0]
   83ef4:	f04f 0100 	mov.w	r1, #0
   83ef8:	f88d 3040 	strb.w	r3, [sp, #64]	; 0x40
   83efc:	4613      	mov	r3, r2
   83efe:	46b1      	mov	r9, r6
   83f00:	3304      	adds	r3, #4
   83f02:	9304      	str	r3, [sp, #16]
   83f04:	ab10      	add	r3, sp, #64	; 0x40
   83f06:	9503      	str	r5, [sp, #12]
   83f08:	f88d 102f 	strb.w	r1, [sp, #47]	; 0x2f
   83f0c:	9307      	str	r3, [sp, #28]
   83f0e:	f04f 0c00 	mov.w	ip, #0
   83f12:	e6eb      	b.n	83cec <_vfiprintf_r+0x270>
   83f14:	f018 0f20 	tst.w	r8, #32
   83f18:	9503      	str	r5, [sp, #12]
   83f1a:	46b4      	mov	ip, r6
   83f1c:	f88d 102f 	strb.w	r1, [sp, #47]	; 0x2f
   83f20:	f47f af65 	bne.w	83dee <_vfiprintf_r+0x372>
   83f24:	9a04      	ldr	r2, [sp, #16]
   83f26:	f018 0f10 	tst.w	r8, #16
   83f2a:	4613      	mov	r3, r2
   83f2c:	f040 82a0 	bne.w	84470 <_vfiprintf_r+0x9f4>
   83f30:	f018 0f40 	tst.w	r8, #64	; 0x40
   83f34:	f000 829c 	beq.w	84470 <_vfiprintf_r+0x9f4>
   83f38:	f9b2 6000 	ldrsh.w	r6, [r2]
   83f3c:	3304      	adds	r3, #4
   83f3e:	17f7      	asrs	r7, r6, #31
   83f40:	9304      	str	r3, [sp, #16]
   83f42:	4632      	mov	r2, r6
   83f44:	463b      	mov	r3, r7
   83f46:	e75c      	b.n	83e02 <_vfiprintf_r+0x386>
   83f48:	9904      	ldr	r1, [sp, #16]
   83f4a:	2378      	movs	r3, #120	; 0x78
   83f4c:	f88d 3031 	strb.w	r3, [sp, #49]	; 0x31
   83f50:	4b38      	ldr	r3, [pc, #224]	; (84034 <_vfiprintf_r+0x5b8>)
   83f52:	46b4      	mov	ip, r6
   83f54:	2230      	movs	r2, #48	; 0x30
   83f56:	680e      	ldr	r6, [r1, #0]
   83f58:	3104      	adds	r1, #4
   83f5a:	9309      	str	r3, [sp, #36]	; 0x24
   83f5c:	9503      	str	r5, [sp, #12]
   83f5e:	f048 0802 	orr.w	r8, r8, #2
   83f62:	9104      	str	r1, [sp, #16]
   83f64:	2700      	movs	r7, #0
   83f66:	f88d 2030 	strb.w	r2, [sp, #48]	; 0x30
   83f6a:	2302      	movs	r3, #2
   83f6c:	e689      	b.n	83c82 <_vfiprintf_r+0x206>
   83f6e:	f048 0820 	orr.w	r8, r8, #32
   83f72:	f89b 3000 	ldrb.w	r3, [fp]
   83f76:	4658      	mov	r0, fp
   83f78:	e5e9      	b.n	83b4e <_vfiprintf_r+0xd2>
   83f7a:	f04f 0100 	mov.w	r1, #0
   83f7e:	9a04      	ldr	r2, [sp, #16]
   83f80:	9503      	str	r5, [sp, #12]
   83f82:	6813      	ldr	r3, [r2, #0]
   83f84:	46b4      	mov	ip, r6
   83f86:	9307      	str	r3, [sp, #28]
   83f88:	f88d 102f 	strb.w	r1, [sp, #47]	; 0x2f
   83f8c:	1d15      	adds	r5, r2, #4
   83f8e:	2b00      	cmp	r3, #0
   83f90:	f000 834e 	beq.w	84630 <_vfiprintf_r+0xbb4>
   83f94:	2e00      	cmp	r6, #0
   83f96:	f2c0 8329 	blt.w	845ec <_vfiprintf_r+0xb70>
   83f9a:	9e07      	ldr	r6, [sp, #28]
   83f9c:	4662      	mov	r2, ip
   83f9e:	4630      	mov	r0, r6
   83fa0:	2100      	movs	r1, #0
   83fa2:	f8cd c010 	str.w	ip, [sp, #16]
   83fa6:	f001 fbff 	bl	857a8 <memchr>
   83faa:	f8dd c010 	ldr.w	ip, [sp, #16]
   83fae:	2800      	cmp	r0, #0
   83fb0:	f000 834e 	beq.w	84650 <_vfiprintf_r+0xbd4>
   83fb4:	9504      	str	r5, [sp, #16]
   83fb6:	ebc6 0900 	rsb	r9, r6, r0
   83fba:	f89d 502f 	ldrb.w	r5, [sp, #47]	; 0x2f
   83fbe:	f04f 0c00 	mov.w	ip, #0
   83fc2:	e68d      	b.n	83ce0 <_vfiprintf_r+0x264>
   83fc4:	4a1b      	ldr	r2, [pc, #108]	; (84034 <_vfiprintf_r+0x5b8>)
   83fc6:	f018 0f20 	tst.w	r8, #32
   83fca:	9503      	str	r5, [sp, #12]
   83fcc:	46b4      	mov	ip, r6
   83fce:	9209      	str	r2, [sp, #36]	; 0x24
   83fd0:	f88d 102f 	strb.w	r1, [sp, #47]	; 0x2f
   83fd4:	f47f af71 	bne.w	83eba <_vfiprintf_r+0x43e>
   83fd8:	9904      	ldr	r1, [sp, #16]
   83fda:	f018 0f10 	tst.w	r8, #16
   83fde:	460a      	mov	r2, r1
   83fe0:	f040 8241 	bne.w	84466 <_vfiprintf_r+0x9ea>
   83fe4:	f018 0f40 	tst.w	r8, #64	; 0x40
   83fe8:	f000 823d 	beq.w	84466 <_vfiprintf_r+0x9ea>
   83fec:	3204      	adds	r2, #4
   83fee:	880e      	ldrh	r6, [r1, #0]
   83ff0:	2700      	movs	r7, #0
   83ff2:	9204      	str	r2, [sp, #16]
   83ff4:	e76a      	b.n	83ecc <_vfiprintf_r+0x450>
   83ff6:	f89b 3000 	ldrb.w	r3, [fp]
   83ffa:	2b6c      	cmp	r3, #108	; 0x6c
   83ffc:	f000 82e9 	beq.w	845d2 <_vfiprintf_r+0xb56>
   84000:	f048 0810 	orr.w	r8, r8, #16
   84004:	4658      	mov	r0, fp
   84006:	e5a2      	b.n	83b4e <_vfiprintf_r+0xd2>
   84008:	9a04      	ldr	r2, [sp, #16]
   8400a:	4613      	mov	r3, r2
   8400c:	6815      	ldr	r5, [r2, #0]
   8400e:	3304      	adds	r3, #4
   84010:	2d00      	cmp	r5, #0
   84012:	f2c0 82e6 	blt.w	845e2 <_vfiprintf_r+0xb66>
   84016:	9304      	str	r3, [sp, #16]
   84018:	f89b 3000 	ldrb.w	r3, [fp]
   8401c:	4658      	mov	r0, fp
   8401e:	e596      	b.n	83b4e <_vfiprintf_r+0xd2>
   84020:	f89b 3000 	ldrb.w	r3, [fp]
   84024:	4658      	mov	r0, fp
   84026:	212b      	movs	r1, #43	; 0x2b
   84028:	e591      	b.n	83b4e <_vfiprintf_r+0xd2>
   8402a:	bf00      	nop
   8402c:	0008686c 	.word	0x0008686c
   84030:	0008683c 	.word	0x0008683c
   84034:	00086850 	.word	0x00086850
   84038:	f89b 3000 	ldrb.w	r3, [fp]
   8403c:	f10b 0001 	add.w	r0, fp, #1
   84040:	2b2a      	cmp	r3, #42	; 0x2a
   84042:	f000 830f 	beq.w	84664 <_vfiprintf_r+0xbe8>
   84046:	f1a3 0230 	sub.w	r2, r3, #48	; 0x30
   8404a:	2a09      	cmp	r2, #9
   8404c:	4683      	mov	fp, r0
   8404e:	f04f 0600 	mov.w	r6, #0
   84052:	f63f ad7e 	bhi.w	83b52 <_vfiprintf_r+0xd6>
   84056:	f81b 3b01 	ldrb.w	r3, [fp], #1
   8405a:	eb06 0686 	add.w	r6, r6, r6, lsl #2
   8405e:	eb02 0646 	add.w	r6, r2, r6, lsl #1
   84062:	f1a3 0230 	sub.w	r2, r3, #48	; 0x30
   84066:	2a09      	cmp	r2, #9
   84068:	d9f5      	bls.n	84056 <_vfiprintf_r+0x5da>
   8406a:	ea46 76e6 	orr.w	r6, r6, r6, asr #31
   8406e:	e570      	b.n	83b52 <_vfiprintf_r+0xd6>
   84070:	f018 0f20 	tst.w	r8, #32
   84074:	f88d 102f 	strb.w	r1, [sp, #47]	; 0x2f
   84078:	f000 8283 	beq.w	84582 <_vfiprintf_r+0xb06>
   8407c:	9a04      	ldr	r2, [sp, #16]
   8407e:	4613      	mov	r3, r2
   84080:	3304      	adds	r3, #4
   84082:	9304      	str	r3, [sp, #16]
   84084:	9b02      	ldr	r3, [sp, #8]
   84086:	6811      	ldr	r1, [r2, #0]
   84088:	17df      	asrs	r7, r3, #31
   8408a:	461a      	mov	r2, r3
   8408c:	463b      	mov	r3, r7
   8408e:	e9c1 2300 	strd	r2, r3, [r1]
   84092:	e525      	b.n	83ae0 <_vfiprintf_r+0x64>
   84094:	4658      	mov	r0, fp
   84096:	f89b 3000 	ldrb.w	r3, [fp]
   8409a:	2900      	cmp	r1, #0
   8409c:	f47f ad57 	bne.w	83b4e <_vfiprintf_r+0xd2>
   840a0:	2120      	movs	r1, #32
   840a2:	e554      	b.n	83b4e <_vfiprintf_r+0xd2>
   840a4:	f048 0801 	orr.w	r8, r8, #1
   840a8:	4658      	mov	r0, fp
   840aa:	f89b 3000 	ldrb.w	r3, [fp]
   840ae:	e54e      	b.n	83b4e <_vfiprintf_r+0xd2>
   840b0:	9503      	str	r5, [sp, #12]
   840b2:	f88d 102f 	strb.w	r1, [sp, #47]	; 0x2f
   840b6:	2b00      	cmp	r3, #0
   840b8:	f000 809c 	beq.w	841f4 <_vfiprintf_r+0x778>
   840bc:	f88d 3040 	strb.w	r3, [sp, #64]	; 0x40
   840c0:	f04f 0300 	mov.w	r3, #0
   840c4:	2601      	movs	r6, #1
   840c6:	f88d 302f 	strb.w	r3, [sp, #47]	; 0x2f
   840ca:	ab10      	add	r3, sp, #64	; 0x40
   840cc:	46b1      	mov	r9, r6
   840ce:	9307      	str	r3, [sp, #28]
   840d0:	e71d      	b.n	83f0e <_vfiprintf_r+0x492>
   840d2:	9801      	ldr	r0, [sp, #4]
   840d4:	9900      	ldr	r1, [sp, #0]
   840d6:	aa0d      	add	r2, sp, #52	; 0x34
   840d8:	9308      	str	r3, [sp, #32]
   840da:	f7ff fc93 	bl	83a04 <__sprint_r.part.0>
   840de:	2800      	cmp	r0, #0
   840e0:	f040 808f 	bne.w	84202 <_vfiprintf_r+0x786>
   840e4:	990e      	ldr	r1, [sp, #56]	; 0x38
   840e6:	46d4      	mov	ip, sl
   840e8:	9a0f      	ldr	r2, [sp, #60]	; 0x3c
   840ea:	f101 0e01 	add.w	lr, r1, #1
   840ee:	9b08      	ldr	r3, [sp, #32]
   840f0:	e61d      	b.n	83d2e <_vfiprintf_r+0x2b2>
   840f2:	990e      	ldr	r1, [sp, #56]	; 0x38
   840f4:	9a0f      	ldr	r2, [sp, #60]	; 0x3c
   840f6:	1c48      	adds	r0, r1, #1
   840f8:	f89d 302f 	ldrb.w	r3, [sp, #47]	; 0x2f
   840fc:	b16b      	cbz	r3, 8411a <_vfiprintf_r+0x69e>
   840fe:	3201      	adds	r2, #1
   84100:	f10d 032f 	add.w	r3, sp, #47	; 0x2f
   84104:	2101      	movs	r1, #1
   84106:	2807      	cmp	r0, #7
   84108:	920f      	str	r2, [sp, #60]	; 0x3c
   8410a:	900e      	str	r0, [sp, #56]	; 0x38
   8410c:	6023      	str	r3, [r4, #0]
   8410e:	6061      	str	r1, [r4, #4]
   84110:	f300 8134 	bgt.w	8437c <_vfiprintf_r+0x900>
   84114:	4601      	mov	r1, r0
   84116:	3408      	adds	r4, #8
   84118:	3001      	adds	r0, #1
   8411a:	9b05      	ldr	r3, [sp, #20]
   8411c:	b163      	cbz	r3, 84138 <_vfiprintf_r+0x6bc>
   8411e:	3202      	adds	r2, #2
   84120:	a90c      	add	r1, sp, #48	; 0x30
   84122:	2302      	movs	r3, #2
   84124:	2807      	cmp	r0, #7
   84126:	920f      	str	r2, [sp, #60]	; 0x3c
   84128:	900e      	str	r0, [sp, #56]	; 0x38
   8412a:	e884 000a 	stmia.w	r4, {r1, r3}
   8412e:	f300 8134 	bgt.w	8439a <_vfiprintf_r+0x91e>
   84132:	4601      	mov	r1, r0
   84134:	3408      	adds	r4, #8
   84136:	3001      	adds	r0, #1
   84138:	9b06      	ldr	r3, [sp, #24]
   8413a:	2b80      	cmp	r3, #128	; 0x80
   8413c:	f000 80d4 	beq.w	842e8 <_vfiprintf_r+0x86c>
   84140:	ebc9 070c 	rsb	r7, r9, ip
   84144:	2f00      	cmp	r7, #0
   84146:	dd2b      	ble.n	841a0 <_vfiprintf_r+0x724>
   84148:	2f10      	cmp	r7, #16
   8414a:	4dab      	ldr	r5, [pc, #684]	; (843f8 <_vfiprintf_r+0x97c>)
   8414c:	dd1f      	ble.n	8418e <_vfiprintf_r+0x712>
   8414e:	46a6      	mov	lr, r4
   84150:	2310      	movs	r3, #16
   84152:	9c01      	ldr	r4, [sp, #4]
   84154:	e007      	b.n	84166 <_vfiprintf_r+0x6ea>
   84156:	f101 0c02 	add.w	ip, r1, #2
   8415a:	4601      	mov	r1, r0
   8415c:	f10e 0e08 	add.w	lr, lr, #8
   84160:	3f10      	subs	r7, #16
   84162:	2f10      	cmp	r7, #16
   84164:	dd11      	ble.n	8418a <_vfiprintf_r+0x70e>
   84166:	1c48      	adds	r0, r1, #1
   84168:	3210      	adds	r2, #16
   8416a:	2807      	cmp	r0, #7
   8416c:	920f      	str	r2, [sp, #60]	; 0x3c
   8416e:	f8ce 5000 	str.w	r5, [lr]
   84172:	f8ce 3004 	str.w	r3, [lr, #4]
   84176:	900e      	str	r0, [sp, #56]	; 0x38
   84178:	dded      	ble.n	84156 <_vfiprintf_r+0x6da>
   8417a:	bb6a      	cbnz	r2, 841d8 <_vfiprintf_r+0x75c>
   8417c:	3f10      	subs	r7, #16
   8417e:	2f10      	cmp	r7, #16
   84180:	f04f 0c01 	mov.w	ip, #1
   84184:	4611      	mov	r1, r2
   84186:	46d6      	mov	lr, sl
   84188:	dced      	bgt.n	84166 <_vfiprintf_r+0x6ea>
   8418a:	4674      	mov	r4, lr
   8418c:	4660      	mov	r0, ip
   8418e:	443a      	add	r2, r7
   84190:	2807      	cmp	r0, #7
   84192:	920f      	str	r2, [sp, #60]	; 0x3c
   84194:	e884 00a0 	stmia.w	r4, {r5, r7}
   84198:	900e      	str	r0, [sp, #56]	; 0x38
   8419a:	dc3b      	bgt.n	84214 <_vfiprintf_r+0x798>
   8419c:	3408      	adds	r4, #8
   8419e:	3001      	adds	r0, #1
   841a0:	eb02 0309 	add.w	r3, r2, r9
   841a4:	9a07      	ldr	r2, [sp, #28]
   841a6:	2807      	cmp	r0, #7
   841a8:	930f      	str	r3, [sp, #60]	; 0x3c
   841aa:	e884 0204 	stmia.w	r4, {r2, r9}
   841ae:	900e      	str	r0, [sp, #56]	; 0x38
   841b0:	dd3d      	ble.n	8422e <_vfiprintf_r+0x7b2>
   841b2:	2b00      	cmp	r3, #0
   841b4:	f040 813f 	bne.w	84436 <_vfiprintf_r+0x9ba>
   841b8:	f018 0f04 	tst.w	r8, #4
   841bc:	930e      	str	r3, [sp, #56]	; 0x38
   841be:	f040 8130 	bne.w	84422 <_vfiprintf_r+0x9a6>
   841c2:	9b02      	ldr	r3, [sp, #8]
   841c4:	9a03      	ldr	r2, [sp, #12]
   841c6:	4296      	cmp	r6, r2
   841c8:	bfac      	ite	ge
   841ca:	199b      	addge	r3, r3, r6
   841cc:	189b      	addlt	r3, r3, r2
   841ce:	9302      	str	r3, [sp, #8]
   841d0:	2300      	movs	r3, #0
   841d2:	930e      	str	r3, [sp, #56]	; 0x38
   841d4:	4654      	mov	r4, sl
   841d6:	e483      	b.n	83ae0 <_vfiprintf_r+0x64>
   841d8:	4620      	mov	r0, r4
   841da:	9900      	ldr	r1, [sp, #0]
   841dc:	aa0d      	add	r2, sp, #52	; 0x34
   841de:	9305      	str	r3, [sp, #20]
   841e0:	f7ff fc10 	bl	83a04 <__sprint_r.part.0>
   841e4:	b968      	cbnz	r0, 84202 <_vfiprintf_r+0x786>
   841e6:	990e      	ldr	r1, [sp, #56]	; 0x38
   841e8:	46d6      	mov	lr, sl
   841ea:	9a0f      	ldr	r2, [sp, #60]	; 0x3c
   841ec:	f101 0c01 	add.w	ip, r1, #1
   841f0:	9b05      	ldr	r3, [sp, #20]
   841f2:	e7b5      	b.n	84160 <_vfiprintf_r+0x6e4>
   841f4:	9b0f      	ldr	r3, [sp, #60]	; 0x3c
   841f6:	b123      	cbz	r3, 84202 <_vfiprintf_r+0x786>
   841f8:	9801      	ldr	r0, [sp, #4]
   841fa:	9900      	ldr	r1, [sp, #0]
   841fc:	aa0d      	add	r2, sp, #52	; 0x34
   841fe:	f7ff fc01 	bl	83a04 <__sprint_r.part.0>
   84202:	9b00      	ldr	r3, [sp, #0]
   84204:	899b      	ldrh	r3, [r3, #12]
   84206:	065b      	lsls	r3, r3, #25
   84208:	f53f ad23 	bmi.w	83c52 <_vfiprintf_r+0x1d6>
   8420c:	9802      	ldr	r0, [sp, #8]
   8420e:	b02b      	add	sp, #172	; 0xac
   84210:	e8bd 8ff0 	ldmia.w	sp!, {r4, r5, r6, r7, r8, r9, sl, fp, pc}
   84214:	2a00      	cmp	r2, #0
   84216:	f040 8190 	bne.w	8453a <_vfiprintf_r+0xabe>
   8421a:	464b      	mov	r3, r9
   8421c:	4654      	mov	r4, sl
   8421e:	9907      	ldr	r1, [sp, #28]
   84220:	2201      	movs	r2, #1
   84222:	f8cd 906c 	str.w	r9, [sp, #108]	; 0x6c
   84226:	f8cd 903c 	str.w	r9, [sp, #60]	; 0x3c
   8422a:	911a      	str	r1, [sp, #104]	; 0x68
   8422c:	920e      	str	r2, [sp, #56]	; 0x38
   8422e:	f104 0208 	add.w	r2, r4, #8
   84232:	f018 0f04 	tst.w	r8, #4
   84236:	d039      	beq.n	842ac <_vfiprintf_r+0x830>
   84238:	9903      	ldr	r1, [sp, #12]
   8423a:	1b8d      	subs	r5, r1, r6
   8423c:	2d00      	cmp	r5, #0
   8423e:	dd35      	ble.n	842ac <_vfiprintf_r+0x830>
   84240:	2d10      	cmp	r5, #16
   84242:	f340 8200 	ble.w	84646 <_vfiprintf_r+0xbca>
   84246:	980e      	ldr	r0, [sp, #56]	; 0x38
   84248:	4f6c      	ldr	r7, [pc, #432]	; (843fc <_vfiprintf_r+0x980>)
   8424a:	2410      	movs	r4, #16
   8424c:	f8dd 8004 	ldr.w	r8, [sp, #4]
   84250:	f8dd 9000 	ldr.w	r9, [sp]
   84254:	e006      	b.n	84264 <_vfiprintf_r+0x7e8>
   84256:	f100 0e02 	add.w	lr, r0, #2
   8425a:	4608      	mov	r0, r1
   8425c:	3208      	adds	r2, #8
   8425e:	3d10      	subs	r5, #16
   84260:	2d10      	cmp	r5, #16
   84262:	dd10      	ble.n	84286 <_vfiprintf_r+0x80a>
   84264:	1c41      	adds	r1, r0, #1
   84266:	3310      	adds	r3, #16
   84268:	2907      	cmp	r1, #7
   8426a:	930f      	str	r3, [sp, #60]	; 0x3c
   8426c:	6017      	str	r7, [r2, #0]
   8426e:	6054      	str	r4, [r2, #4]
   84270:	910e      	str	r1, [sp, #56]	; 0x38
   84272:	ddf0      	ble.n	84256 <_vfiprintf_r+0x7da>
   84274:	2b00      	cmp	r3, #0
   84276:	d12a      	bne.n	842ce <_vfiprintf_r+0x852>
   84278:	3d10      	subs	r5, #16
   8427a:	2d10      	cmp	r5, #16
   8427c:	f04f 0e01 	mov.w	lr, #1
   84280:	4618      	mov	r0, r3
   84282:	4652      	mov	r2, sl
   84284:	dcee      	bgt.n	84264 <_vfiprintf_r+0x7e8>
   84286:	442b      	add	r3, r5
   84288:	f1be 0f07 	cmp.w	lr, #7
   8428c:	930f      	str	r3, [sp, #60]	; 0x3c
   8428e:	6017      	str	r7, [r2, #0]
   84290:	6055      	str	r5, [r2, #4]
   84292:	f8cd e038 	str.w	lr, [sp, #56]	; 0x38
   84296:	dd09      	ble.n	842ac <_vfiprintf_r+0x830>
   84298:	2b00      	cmp	r3, #0
   8429a:	d092      	beq.n	841c2 <_vfiprintf_r+0x746>
   8429c:	9801      	ldr	r0, [sp, #4]
   8429e:	9900      	ldr	r1, [sp, #0]
   842a0:	aa0d      	add	r2, sp, #52	; 0x34
   842a2:	f7ff fbaf 	bl	83a04 <__sprint_r.part.0>
   842a6:	2800      	cmp	r0, #0
   842a8:	d1ab      	bne.n	84202 <_vfiprintf_r+0x786>
   842aa:	9b0f      	ldr	r3, [sp, #60]	; 0x3c
   842ac:	9a02      	ldr	r2, [sp, #8]
   842ae:	9903      	ldr	r1, [sp, #12]
   842b0:	428e      	cmp	r6, r1
   842b2:	bfac      	ite	ge
   842b4:	1992      	addge	r2, r2, r6
   842b6:	1852      	addlt	r2, r2, r1
   842b8:	9202      	str	r2, [sp, #8]
   842ba:	2b00      	cmp	r3, #0
   842bc:	d088      	beq.n	841d0 <_vfiprintf_r+0x754>
   842be:	9801      	ldr	r0, [sp, #4]
   842c0:	9900      	ldr	r1, [sp, #0]
   842c2:	aa0d      	add	r2, sp, #52	; 0x34
   842c4:	f7ff fb9e 	bl	83a04 <__sprint_r.part.0>
   842c8:	2800      	cmp	r0, #0
   842ca:	d081      	beq.n	841d0 <_vfiprintf_r+0x754>
   842cc:	e799      	b.n	84202 <_vfiprintf_r+0x786>
   842ce:	4640      	mov	r0, r8
   842d0:	4649      	mov	r1, r9
   842d2:	aa0d      	add	r2, sp, #52	; 0x34
   842d4:	f7ff fb96 	bl	83a04 <__sprint_r.part.0>
   842d8:	2800      	cmp	r0, #0
   842da:	d192      	bne.n	84202 <_vfiprintf_r+0x786>
   842dc:	980e      	ldr	r0, [sp, #56]	; 0x38
   842de:	4652      	mov	r2, sl
   842e0:	9b0f      	ldr	r3, [sp, #60]	; 0x3c
   842e2:	f100 0e01 	add.w	lr, r0, #1
   842e6:	e7ba      	b.n	8425e <_vfiprintf_r+0x7e2>
   842e8:	9b03      	ldr	r3, [sp, #12]
   842ea:	1b9f      	subs	r7, r3, r6
   842ec:	2f00      	cmp	r7, #0
   842ee:	f77f af27 	ble.w	84140 <_vfiprintf_r+0x6c4>
   842f2:	2f10      	cmp	r7, #16
   842f4:	f340 81b3 	ble.w	8465e <_vfiprintf_r+0xbe2>
   842f8:	4620      	mov	r0, r4
   842fa:	4d3f      	ldr	r5, [pc, #252]	; (843f8 <_vfiprintf_r+0x97c>)
   842fc:	4664      	mov	r4, ip
   842fe:	2310      	movs	r3, #16
   84300:	4684      	mov	ip, r0
   84302:	e007      	b.n	84314 <_vfiprintf_r+0x898>
   84304:	f101 0e02 	add.w	lr, r1, #2
   84308:	4601      	mov	r1, r0
   8430a:	f10c 0c08 	add.w	ip, ip, #8
   8430e:	3f10      	subs	r7, #16
   84310:	2f10      	cmp	r7, #16
   84312:	dd11      	ble.n	84338 <_vfiprintf_r+0x8bc>
   84314:	1c48      	adds	r0, r1, #1
   84316:	3210      	adds	r2, #16
   84318:	2807      	cmp	r0, #7
   8431a:	920f      	str	r2, [sp, #60]	; 0x3c
   8431c:	f8cc 5000 	str.w	r5, [ip]
   84320:	f8cc 3004 	str.w	r3, [ip, #4]
   84324:	900e      	str	r0, [sp, #56]	; 0x38
   84326:	dded      	ble.n	84304 <_vfiprintf_r+0x888>
   84328:	b9c2      	cbnz	r2, 8435c <_vfiprintf_r+0x8e0>
   8432a:	3f10      	subs	r7, #16
   8432c:	2f10      	cmp	r7, #16
   8432e:	f04f 0e01 	mov.w	lr, #1
   84332:	4611      	mov	r1, r2
   84334:	46d4      	mov	ip, sl
   84336:	dced      	bgt.n	84314 <_vfiprintf_r+0x898>
   84338:	4663      	mov	r3, ip
   8433a:	46a4      	mov	ip, r4
   8433c:	461c      	mov	r4, r3
   8433e:	443a      	add	r2, r7
   84340:	f1be 0f07 	cmp.w	lr, #7
   84344:	920f      	str	r2, [sp, #60]	; 0x3c
   84346:	e884 00a0 	stmia.w	r4, {r5, r7}
   8434a:	f8cd e038 	str.w	lr, [sp, #56]	; 0x38
   8434e:	f300 80ee 	bgt.w	8452e <_vfiprintf_r+0xab2>
   84352:	3408      	adds	r4, #8
   84354:	f10e 0001 	add.w	r0, lr, #1
   84358:	4671      	mov	r1, lr
   8435a:	e6f1      	b.n	84140 <_vfiprintf_r+0x6c4>
   8435c:	9801      	ldr	r0, [sp, #4]
   8435e:	9900      	ldr	r1, [sp, #0]
   84360:	aa0d      	add	r2, sp, #52	; 0x34
   84362:	9305      	str	r3, [sp, #20]
   84364:	f7ff fb4e 	bl	83a04 <__sprint_r.part.0>
   84368:	2800      	cmp	r0, #0
   8436a:	f47f af4a 	bne.w	84202 <_vfiprintf_r+0x786>
   8436e:	990e      	ldr	r1, [sp, #56]	; 0x38
   84370:	46d4      	mov	ip, sl
   84372:	9a0f      	ldr	r2, [sp, #60]	; 0x3c
   84374:	f101 0e01 	add.w	lr, r1, #1
   84378:	9b05      	ldr	r3, [sp, #20]
   8437a:	e7c8      	b.n	8430e <_vfiprintf_r+0x892>
   8437c:	2a00      	cmp	r2, #0
   8437e:	f040 80c5 	bne.w	8450c <_vfiprintf_r+0xa90>
   84382:	9b05      	ldr	r3, [sp, #20]
   84384:	2b00      	cmp	r3, #0
   84386:	f000 8085 	beq.w	84494 <_vfiprintf_r+0xa18>
   8438a:	aa0c      	add	r2, sp, #48	; 0x30
   8438c:	2302      	movs	r3, #2
   8438e:	921a      	str	r2, [sp, #104]	; 0x68
   84390:	4608      	mov	r0, r1
   84392:	931b      	str	r3, [sp, #108]	; 0x6c
   84394:	461a      	mov	r2, r3
   84396:	4654      	mov	r4, sl
   84398:	e6cb      	b.n	84132 <_vfiprintf_r+0x6b6>
   8439a:	2a00      	cmp	r2, #0
   8439c:	f040 80a5 	bne.w	844ea <_vfiprintf_r+0xa6e>
   843a0:	2001      	movs	r0, #1
   843a2:	4611      	mov	r1, r2
   843a4:	4654      	mov	r4, sl
   843a6:	e6c7      	b.n	84138 <_vfiprintf_r+0x6bc>
   843a8:	bb03      	cbnz	r3, 843ec <_vfiprintf_r+0x970>
   843aa:	f018 0f01 	tst.w	r8, #1
   843ae:	d01d      	beq.n	843ec <_vfiprintf_r+0x970>
   843b0:	ab2a      	add	r3, sp, #168	; 0xa8
   843b2:	2230      	movs	r2, #48	; 0x30
   843b4:	f803 2d41 	strb.w	r2, [r3, #-65]!
   843b8:	ebc3 090a 	rsb	r9, r3, sl
   843bc:	9307      	str	r3, [sp, #28]
   843be:	e48f      	b.n	83ce0 <_vfiprintf_r+0x264>
   843c0:	46d1      	mov	r9, sl
   843c2:	9809      	ldr	r0, [sp, #36]	; 0x24
   843c4:	0933      	lsrs	r3, r6, #4
   843c6:	ea43 7307 	orr.w	r3, r3, r7, lsl #28
   843ca:	0939      	lsrs	r1, r7, #4
   843cc:	f006 020f 	and.w	r2, r6, #15
   843d0:	460f      	mov	r7, r1
   843d2:	461e      	mov	r6, r3
   843d4:	5c83      	ldrb	r3, [r0, r2]
   843d6:	f809 3d01 	strb.w	r3, [r9, #-1]!
   843da:	ea56 0307 	orrs.w	r3, r6, r7
   843de:	d1f1      	bne.n	843c4 <_vfiprintf_r+0x948>
   843e0:	464b      	mov	r3, r9
   843e2:	f8cd 901c 	str.w	r9, [sp, #28]
   843e6:	ebc3 090a 	rsb	r9, r3, sl
   843ea:	e479      	b.n	83ce0 <_vfiprintf_r+0x264>
   843ec:	f8cd a01c 	str.w	sl, [sp, #28]
   843f0:	e476      	b.n	83ce0 <_vfiprintf_r+0x264>
   843f2:	2302      	movs	r3, #2
   843f4:	e445      	b.n	83c82 <_vfiprintf_r+0x206>
   843f6:	bf00      	nop
   843f8:	0008682c 	.word	0x0008682c
   843fc:	0008686c 	.word	0x0008686c
   84400:	2a00      	cmp	r2, #0
   84402:	f040 80d5 	bne.w	845b0 <_vfiprintf_r+0xb34>
   84406:	f89d 302f 	ldrb.w	r3, [sp, #47]	; 0x2f
   8440a:	2b00      	cmp	r3, #0
   8440c:	f000 80ac 	beq.w	84568 <_vfiprintf_r+0xaec>
   84410:	2301      	movs	r3, #1
   84412:	f10d 012f 	add.w	r1, sp, #47	; 0x2f
   84416:	4618      	mov	r0, r3
   84418:	931b      	str	r3, [sp, #108]	; 0x6c
   8441a:	461a      	mov	r2, r3
   8441c:	911a      	str	r1, [sp, #104]	; 0x68
   8441e:	4654      	mov	r4, sl
   84420:	e678      	b.n	84114 <_vfiprintf_r+0x698>
   84422:	9a03      	ldr	r2, [sp, #12]
   84424:	1b95      	subs	r5, r2, r6
   84426:	2d00      	cmp	r5, #0
   84428:	4652      	mov	r2, sl
   8442a:	f73f af09 	bgt.w	84240 <_vfiprintf_r+0x7c4>
   8442e:	e6c8      	b.n	841c2 <_vfiprintf_r+0x746>
   84430:	465d      	mov	r5, fp
   84432:	f7ff bb7c 	b.w	83b2e <_vfiprintf_r+0xb2>
   84436:	9801      	ldr	r0, [sp, #4]
   84438:	9900      	ldr	r1, [sp, #0]
   8443a:	aa0d      	add	r2, sp, #52	; 0x34
   8443c:	f7ff fae2 	bl	83a04 <__sprint_r.part.0>
   84440:	2800      	cmp	r0, #0
   84442:	f47f aede 	bne.w	84202 <_vfiprintf_r+0x786>
   84446:	4652      	mov	r2, sl
   84448:	9b0f      	ldr	r3, [sp, #60]	; 0x3c
   8444a:	e6f2      	b.n	84232 <_vfiprintf_r+0x7b6>
   8444c:	9904      	ldr	r1, [sp, #16]
   8444e:	2700      	movs	r7, #0
   84450:	460a      	mov	r2, r1
   84452:	3204      	adds	r2, #4
   84454:	680e      	ldr	r6, [r1, #0]
   84456:	9204      	str	r2, [sp, #16]
   84458:	e413      	b.n	83c82 <_vfiprintf_r+0x206>
   8445a:	3204      	adds	r2, #4
   8445c:	681e      	ldr	r6, [r3, #0]
   8445e:	2700      	movs	r7, #0
   84460:	2301      	movs	r3, #1
   84462:	9204      	str	r2, [sp, #16]
   84464:	e40d      	b.n	83c82 <_vfiprintf_r+0x206>
   84466:	6816      	ldr	r6, [r2, #0]
   84468:	3204      	adds	r2, #4
   8446a:	9204      	str	r2, [sp, #16]
   8446c:	2700      	movs	r7, #0
   8446e:	e52d      	b.n	83ecc <_vfiprintf_r+0x450>
   84470:	681e      	ldr	r6, [r3, #0]
   84472:	3304      	adds	r3, #4
   84474:	17f7      	asrs	r7, r6, #31
   84476:	9304      	str	r3, [sp, #16]
   84478:	4632      	mov	r2, r6
   8447a:	463b      	mov	r3, r7
   8447c:	e4c1      	b.n	83e02 <_vfiprintf_r+0x386>
   8447e:	9801      	ldr	r0, [sp, #4]
   84480:	9900      	ldr	r1, [sp, #0]
   84482:	aa0d      	add	r2, sp, #52	; 0x34
   84484:	f7ff fabe 	bl	83a04 <__sprint_r.part.0>
   84488:	2800      	cmp	r0, #0
   8448a:	f47f aeba 	bne.w	84202 <_vfiprintf_r+0x786>
   8448e:	4654      	mov	r4, sl
   84490:	f7ff bbc0 	b.w	83c14 <_vfiprintf_r+0x198>
   84494:	4608      	mov	r0, r1
   84496:	4654      	mov	r4, sl
   84498:	4611      	mov	r1, r2
   8449a:	e64d      	b.n	84138 <_vfiprintf_r+0x6bc>
   8449c:	46d1      	mov	r9, sl
   8449e:	f8cd c014 	str.w	ip, [sp, #20]
   844a2:	4630      	mov	r0, r6
   844a4:	4639      	mov	r1, r7
   844a6:	220a      	movs	r2, #10
   844a8:	2300      	movs	r3, #0
   844aa:	f001 fe99 	bl	861e0 <__aeabi_uldivmod>
   844ae:	3230      	adds	r2, #48	; 0x30
   844b0:	4630      	mov	r0, r6
   844b2:	4639      	mov	r1, r7
   844b4:	f809 2d01 	strb.w	r2, [r9, #-1]!
   844b8:	2300      	movs	r3, #0
   844ba:	220a      	movs	r2, #10
   844bc:	f001 fe90 	bl	861e0 <__aeabi_uldivmod>
   844c0:	4606      	mov	r6, r0
   844c2:	460f      	mov	r7, r1
   844c4:	ea56 0307 	orrs.w	r3, r6, r7
   844c8:	d1eb      	bne.n	844a2 <_vfiprintf_r+0xa26>
   844ca:	f8dd c014 	ldr.w	ip, [sp, #20]
   844ce:	e787      	b.n	843e0 <_vfiprintf_r+0x964>
   844d0:	2b30      	cmp	r3, #48	; 0x30
   844d2:	9b07      	ldr	r3, [sp, #28]
   844d4:	d087      	beq.n	843e6 <_vfiprintf_r+0x96a>
   844d6:	3b01      	subs	r3, #1
   844d8:	461a      	mov	r2, r3
   844da:	9307      	str	r3, [sp, #28]
   844dc:	2330      	movs	r3, #48	; 0x30
   844de:	ebc2 090a 	rsb	r9, r2, sl
   844e2:	f801 3c01 	strb.w	r3, [r1, #-1]
   844e6:	f7ff bbfb 	b.w	83ce0 <_vfiprintf_r+0x264>
   844ea:	9801      	ldr	r0, [sp, #4]
   844ec:	9900      	ldr	r1, [sp, #0]
   844ee:	aa0d      	add	r2, sp, #52	; 0x34
   844f0:	f8cd c014 	str.w	ip, [sp, #20]
   844f4:	f7ff fa86 	bl	83a04 <__sprint_r.part.0>
   844f8:	2800      	cmp	r0, #0
   844fa:	f47f ae82 	bne.w	84202 <_vfiprintf_r+0x786>
   844fe:	990e      	ldr	r1, [sp, #56]	; 0x38
   84500:	4654      	mov	r4, sl
   84502:	9a0f      	ldr	r2, [sp, #60]	; 0x3c
   84504:	1c48      	adds	r0, r1, #1
   84506:	f8dd c014 	ldr.w	ip, [sp, #20]
   8450a:	e615      	b.n	84138 <_vfiprintf_r+0x6bc>
   8450c:	9801      	ldr	r0, [sp, #4]
   8450e:	9900      	ldr	r1, [sp, #0]
   84510:	aa0d      	add	r2, sp, #52	; 0x34
   84512:	f8cd c020 	str.w	ip, [sp, #32]
   84516:	f7ff fa75 	bl	83a04 <__sprint_r.part.0>
   8451a:	2800      	cmp	r0, #0
   8451c:	f47f ae71 	bne.w	84202 <_vfiprintf_r+0x786>
   84520:	990e      	ldr	r1, [sp, #56]	; 0x38
   84522:	4654      	mov	r4, sl
   84524:	9a0f      	ldr	r2, [sp, #60]	; 0x3c
   84526:	1c48      	adds	r0, r1, #1
   84528:	f8dd c020 	ldr.w	ip, [sp, #32]
   8452c:	e5f5      	b.n	8411a <_vfiprintf_r+0x69e>
   8452e:	2a00      	cmp	r2, #0
   84530:	d167      	bne.n	84602 <_vfiprintf_r+0xb86>
   84532:	2001      	movs	r0, #1
   84534:	4611      	mov	r1, r2
   84536:	4654      	mov	r4, sl
   84538:	e602      	b.n	84140 <_vfiprintf_r+0x6c4>
   8453a:	9801      	ldr	r0, [sp, #4]
   8453c:	9900      	ldr	r1, [sp, #0]
   8453e:	aa0d      	add	r2, sp, #52	; 0x34
   84540:	f7ff fa60 	bl	83a04 <__sprint_r.part.0>
   84544:	2800      	cmp	r0, #0
   84546:	f47f ae5c 	bne.w	84202 <_vfiprintf_r+0x786>
   8454a:	980e      	ldr	r0, [sp, #56]	; 0x38
   8454c:	4654      	mov	r4, sl
   8454e:	9a0f      	ldr	r2, [sp, #60]	; 0x3c
   84550:	3001      	adds	r0, #1
   84552:	e625      	b.n	841a0 <_vfiprintf_r+0x724>
   84554:	252d      	movs	r5, #45	; 0x2d
   84556:	4276      	negs	r6, r6
   84558:	eb67 0747 	sbc.w	r7, r7, r7, lsl #1
   8455c:	f88d 502f 	strb.w	r5, [sp, #47]	; 0x2f
   84560:	46e1      	mov	r9, ip
   84562:	2301      	movs	r3, #1
   84564:	f7ff bb93 	b.w	83c8e <_vfiprintf_r+0x212>
   84568:	9b05      	ldr	r3, [sp, #20]
   8456a:	4611      	mov	r1, r2
   8456c:	2001      	movs	r0, #1
   8456e:	4654      	mov	r4, sl
   84570:	2b00      	cmp	r3, #0
   84572:	f43f ade5 	beq.w	84140 <_vfiprintf_r+0x6c4>
   84576:	aa0c      	add	r2, sp, #48	; 0x30
   84578:	2302      	movs	r3, #2
   8457a:	e88a 000c 	stmia.w	sl, {r2, r3}
   8457e:	461a      	mov	r2, r3
   84580:	e5d7      	b.n	84132 <_vfiprintf_r+0x6b6>
   84582:	f018 0f10 	tst.w	r8, #16
   84586:	d10b      	bne.n	845a0 <_vfiprintf_r+0xb24>
   84588:	f018 0f40 	tst.w	r8, #64	; 0x40
   8458c:	d008      	beq.n	845a0 <_vfiprintf_r+0xb24>
   8458e:	9a04      	ldr	r2, [sp, #16]
   84590:	6813      	ldr	r3, [r2, #0]
   84592:	3204      	adds	r2, #4
   84594:	9204      	str	r2, [sp, #16]
   84596:	f8bd 2008 	ldrh.w	r2, [sp, #8]
   8459a:	801a      	strh	r2, [r3, #0]
   8459c:	f7ff baa0 	b.w	83ae0 <_vfiprintf_r+0x64>
   845a0:	9a04      	ldr	r2, [sp, #16]
   845a2:	6813      	ldr	r3, [r2, #0]
   845a4:	3204      	adds	r2, #4
   845a6:	9204      	str	r2, [sp, #16]
   845a8:	9a02      	ldr	r2, [sp, #8]
   845aa:	601a      	str	r2, [r3, #0]
   845ac:	f7ff ba98 	b.w	83ae0 <_vfiprintf_r+0x64>
   845b0:	9801      	ldr	r0, [sp, #4]
   845b2:	9900      	ldr	r1, [sp, #0]
   845b4:	aa0d      	add	r2, sp, #52	; 0x34
   845b6:	f8cd c020 	str.w	ip, [sp, #32]
   845ba:	f7ff fa23 	bl	83a04 <__sprint_r.part.0>
   845be:	2800      	cmp	r0, #0
   845c0:	f47f ae1f 	bne.w	84202 <_vfiprintf_r+0x786>
   845c4:	990e      	ldr	r1, [sp, #56]	; 0x38
   845c6:	4654      	mov	r4, sl
   845c8:	9a0f      	ldr	r2, [sp, #60]	; 0x3c
   845ca:	1c48      	adds	r0, r1, #1
   845cc:	f8dd c020 	ldr.w	ip, [sp, #32]
   845d0:	e592      	b.n	840f8 <_vfiprintf_r+0x67c>
   845d2:	f048 0820 	orr.w	r8, r8, #32
   845d6:	f10b 0001 	add.w	r0, fp, #1
   845da:	f89b 3001 	ldrb.w	r3, [fp, #1]
   845de:	f7ff bab6 	b.w	83b4e <_vfiprintf_r+0xd2>
   845e2:	426d      	negs	r5, r5
   845e4:	9304      	str	r3, [sp, #16]
   845e6:	4658      	mov	r0, fp
   845e8:	f7ff bbc8 	b.w	83d7c <_vfiprintf_r+0x300>
   845ec:	9807      	ldr	r0, [sp, #28]
   845ee:	9504      	str	r5, [sp, #16]
   845f0:	f7ff f8cc 	bl	8378c <strlen>
   845f4:	f89d 502f 	ldrb.w	r5, [sp, #47]	; 0x2f
   845f8:	4681      	mov	r9, r0
   845fa:	f04f 0c00 	mov.w	ip, #0
   845fe:	f7ff bb6f 	b.w	83ce0 <_vfiprintf_r+0x264>
   84602:	9801      	ldr	r0, [sp, #4]
   84604:	9900      	ldr	r1, [sp, #0]
   84606:	aa0d      	add	r2, sp, #52	; 0x34
   84608:	f8cd c014 	str.w	ip, [sp, #20]
   8460c:	f7ff f9fa 	bl	83a04 <__sprint_r.part.0>
   84610:	2800      	cmp	r0, #0
   84612:	f47f adf6 	bne.w	84202 <_vfiprintf_r+0x786>
   84616:	990e      	ldr	r1, [sp, #56]	; 0x38
   84618:	4654      	mov	r4, sl
   8461a:	9a0f      	ldr	r2, [sp, #60]	; 0x3c
   8461c:	1c48      	adds	r0, r1, #1
   8461e:	f8dd c014 	ldr.w	ip, [sp, #20]
   84622:	e58d      	b.n	84140 <_vfiprintf_r+0x6c4>
   84624:	990e      	ldr	r1, [sp, #56]	; 0x38
   84626:	9a0f      	ldr	r2, [sp, #60]	; 0x3c
   84628:	3101      	adds	r1, #1
   8462a:	4f15      	ldr	r7, [pc, #84]	; (84680 <_vfiprintf_r+0xc04>)
   8462c:	f7ff bb9a 	b.w	83d64 <_vfiprintf_r+0x2e8>
   84630:	2e06      	cmp	r6, #6
   84632:	4b14      	ldr	r3, [pc, #80]	; (84684 <_vfiprintf_r+0xc08>)
   84634:	bf28      	it	cs
   84636:	f04f 0c06 	movcs.w	ip, #6
   8463a:	46e1      	mov	r9, ip
   8463c:	9504      	str	r5, [sp, #16]
   8463e:	ea2c 76ec 	bic.w	r6, ip, ip, asr #31
   84642:	9307      	str	r3, [sp, #28]
   84644:	e463      	b.n	83f0e <_vfiprintf_r+0x492>
   84646:	990e      	ldr	r1, [sp, #56]	; 0x38
   84648:	4f0d      	ldr	r7, [pc, #52]	; (84680 <_vfiprintf_r+0xc04>)
   8464a:	f101 0e01 	add.w	lr, r1, #1
   8464e:	e61a      	b.n	84286 <_vfiprintf_r+0x80a>
   84650:	46e1      	mov	r9, ip
   84652:	9504      	str	r5, [sp, #16]
   84654:	4684      	mov	ip, r0
   84656:	f89d 502f 	ldrb.w	r5, [sp, #47]	; 0x2f
   8465a:	f7ff bb41 	b.w	83ce0 <_vfiprintf_r+0x264>
   8465e:	4686      	mov	lr, r0
   84660:	4d09      	ldr	r5, [pc, #36]	; (84688 <_vfiprintf_r+0xc0c>)
   84662:	e66c      	b.n	8433e <_vfiprintf_r+0x8c2>
   84664:	9a04      	ldr	r2, [sp, #16]
   84666:	f89b 3001 	ldrb.w	r3, [fp, #1]
   8466a:	6816      	ldr	r6, [r2, #0]
   8466c:	3204      	adds	r2, #4
   8466e:	2e00      	cmp	r6, #0
   84670:	9204      	str	r2, [sp, #16]
   84672:	f6bf aa6c 	bge.w	83b4e <_vfiprintf_r+0xd2>
   84676:	f04f 36ff 	mov.w	r6, #4294967295
   8467a:	f7ff ba68 	b.w	83b4e <_vfiprintf_r+0xd2>
   8467e:	bf00      	nop
   84680:	0008686c 	.word	0x0008686c
   84684:	00086864 	.word	0x00086864
   84688:	0008682c 	.word	0x0008682c

0008468c <__sbprintf>:
   8468c:	e92d 45f0 	stmdb	sp!, {r4, r5, r6, r7, r8, sl, lr}
   84690:	4688      	mov	r8, r1
   84692:	6e4f      	ldr	r7, [r1, #100]	; 0x64
   84694:	f2ad 4d6c 	subw	sp, sp, #1132	; 0x46c
   84698:	9719      	str	r7, [sp, #100]	; 0x64
   8469a:	f8d8 701c 	ldr.w	r7, [r8, #28]
   8469e:	f8b1 e00c 	ldrh.w	lr, [r1, #12]
   846a2:	f8b1 a00e 	ldrh.w	sl, [r1, #14]
   846a6:	9707      	str	r7, [sp, #28]
   846a8:	f8d8 7024 	ldr.w	r7, [r8, #36]	; 0x24
   846ac:	ac1a      	add	r4, sp, #104	; 0x68
   846ae:	f44f 6580 	mov.w	r5, #1024	; 0x400
   846b2:	f02e 0e02 	bic.w	lr, lr, #2
   846b6:	2600      	movs	r6, #0
   846b8:	4669      	mov	r1, sp
   846ba:	9400      	str	r4, [sp, #0]
   846bc:	9404      	str	r4, [sp, #16]
   846be:	9502      	str	r5, [sp, #8]
   846c0:	9505      	str	r5, [sp, #20]
   846c2:	f8ad e00c 	strh.w	lr, [sp, #12]
   846c6:	f8ad a00e 	strh.w	sl, [sp, #14]
   846ca:	9709      	str	r7, [sp, #36]	; 0x24
   846cc:	9606      	str	r6, [sp, #24]
   846ce:	4605      	mov	r5, r0
   846d0:	f7ff f9d4 	bl	83a7c <_vfiprintf_r>
   846d4:	1e04      	subs	r4, r0, #0
   846d6:	db07      	blt.n	846e8 <__sbprintf+0x5c>
   846d8:	4628      	mov	r0, r5
   846da:	4669      	mov	r1, sp
   846dc:	f000 f92a 	bl	84934 <_fflush_r>
   846e0:	42b0      	cmp	r0, r6
   846e2:	bf18      	it	ne
   846e4:	f04f 34ff 	movne.w	r4, #4294967295
   846e8:	f8bd 300c 	ldrh.w	r3, [sp, #12]
   846ec:	065b      	lsls	r3, r3, #25
   846ee:	d505      	bpl.n	846fc <__sbprintf+0x70>
   846f0:	f8b8 300c 	ldrh.w	r3, [r8, #12]
   846f4:	f043 0340 	orr.w	r3, r3, #64	; 0x40
   846f8:	f8a8 300c 	strh.w	r3, [r8, #12]
   846fc:	4620      	mov	r0, r4
   846fe:	f20d 4d6c 	addw	sp, sp, #1132	; 0x46c
   84702:	e8bd 85f0 	ldmia.w	sp!, {r4, r5, r6, r7, r8, sl, pc}
   84706:	bf00      	nop

00084708 <__swsetup_r>:
   84708:	b538      	push	{r3, r4, r5, lr}
   8470a:	4b2f      	ldr	r3, [pc, #188]	; (847c8 <__swsetup_r+0xc0>)
   8470c:	4605      	mov	r5, r0
   8470e:	6818      	ldr	r0, [r3, #0]
   84710:	460c      	mov	r4, r1
   84712:	b110      	cbz	r0, 8471a <__swsetup_r+0x12>
   84714:	6b83      	ldr	r3, [r0, #56]	; 0x38
   84716:	2b00      	cmp	r3, #0
   84718:	d036      	beq.n	84788 <__swsetup_r+0x80>
   8471a:	89a2      	ldrh	r2, [r4, #12]
   8471c:	b293      	uxth	r3, r2
   8471e:	0718      	lsls	r0, r3, #28
   84720:	d50c      	bpl.n	8473c <__swsetup_r+0x34>
   84722:	6920      	ldr	r0, [r4, #16]
   84724:	b1a8      	cbz	r0, 84752 <__swsetup_r+0x4a>
   84726:	f013 0201 	ands.w	r2, r3, #1
   8472a:	d01e      	beq.n	8476a <__swsetup_r+0x62>
   8472c:	6963      	ldr	r3, [r4, #20]
   8472e:	2200      	movs	r2, #0
   84730:	425b      	negs	r3, r3
   84732:	61a3      	str	r3, [r4, #24]
   84734:	60a2      	str	r2, [r4, #8]
   84736:	b1f0      	cbz	r0, 84776 <__swsetup_r+0x6e>
   84738:	2000      	movs	r0, #0
   8473a:	bd38      	pop	{r3, r4, r5, pc}
   8473c:	06d9      	lsls	r1, r3, #27
   8473e:	d53a      	bpl.n	847b6 <__swsetup_r+0xae>
   84740:	0758      	lsls	r0, r3, #29
   84742:	d424      	bmi.n	8478e <__swsetup_r+0x86>
   84744:	6920      	ldr	r0, [r4, #16]
   84746:	f042 0308 	orr.w	r3, r2, #8
   8474a:	81a3      	strh	r3, [r4, #12]
   8474c:	b29b      	uxth	r3, r3
   8474e:	2800      	cmp	r0, #0
   84750:	d1e9      	bne.n	84726 <__swsetup_r+0x1e>
   84752:	f403 7220 	and.w	r2, r3, #640	; 0x280
   84756:	f5b2 7f00 	cmp.w	r2, #512	; 0x200
   8475a:	d0e4      	beq.n	84726 <__swsetup_r+0x1e>
   8475c:	4628      	mov	r0, r5
   8475e:	4621      	mov	r1, r4
   84760:	f000 fd24 	bl	851ac <__smakebuf_r>
   84764:	89a3      	ldrh	r3, [r4, #12]
   84766:	6920      	ldr	r0, [r4, #16]
   84768:	e7dd      	b.n	84726 <__swsetup_r+0x1e>
   8476a:	0799      	lsls	r1, r3, #30
   8476c:	bf58      	it	pl
   8476e:	6962      	ldrpl	r2, [r4, #20]
   84770:	60a2      	str	r2, [r4, #8]
   84772:	2800      	cmp	r0, #0
   84774:	d1e0      	bne.n	84738 <__swsetup_r+0x30>
   84776:	89a3      	ldrh	r3, [r4, #12]
   84778:	061a      	lsls	r2, r3, #24
   8477a:	d5de      	bpl.n	8473a <__swsetup_r+0x32>
   8477c:	f043 0340 	orr.w	r3, r3, #64	; 0x40
   84780:	81a3      	strh	r3, [r4, #12]
   84782:	f04f 30ff 	mov.w	r0, #4294967295
   84786:	bd38      	pop	{r3, r4, r5, pc}
   84788:	f000 f97a 	bl	84a80 <__sinit>
   8478c:	e7c5      	b.n	8471a <__swsetup_r+0x12>
   8478e:	6b21      	ldr	r1, [r4, #48]	; 0x30
   84790:	b149      	cbz	r1, 847a6 <__swsetup_r+0x9e>
   84792:	f104 0340 	add.w	r3, r4, #64	; 0x40
   84796:	4299      	cmp	r1, r3
   84798:	d003      	beq.n	847a2 <__swsetup_r+0x9a>
   8479a:	4628      	mov	r0, r5
   8479c:	f000 fa48 	bl	84c30 <_free_r>
   847a0:	89a2      	ldrh	r2, [r4, #12]
   847a2:	2300      	movs	r3, #0
   847a4:	6323      	str	r3, [r4, #48]	; 0x30
   847a6:	6920      	ldr	r0, [r4, #16]
   847a8:	f022 0224 	bic.w	r2, r2, #36	; 0x24
   847ac:	2300      	movs	r3, #0
   847ae:	b292      	uxth	r2, r2
   847b0:	e884 0009 	stmia.w	r4, {r0, r3}
   847b4:	e7c7      	b.n	84746 <__swsetup_r+0x3e>
   847b6:	f042 0240 	orr.w	r2, r2, #64	; 0x40
   847ba:	2309      	movs	r3, #9
   847bc:	602b      	str	r3, [r5, #0]
   847be:	f04f 30ff 	mov.w	r0, #4294967295
   847c2:	81a2      	strh	r2, [r4, #12]
   847c4:	bd38      	pop	{r3, r4, r5, pc}
   847c6:	bf00      	nop
   847c8:	20070570 	.word	0x20070570

000847cc <register_fini>:
   847cc:	4b02      	ldr	r3, [pc, #8]	; (847d8 <register_fini+0xc>)
   847ce:	b113      	cbz	r3, 847d6 <register_fini+0xa>
   847d0:	4802      	ldr	r0, [pc, #8]	; (847dc <register_fini+0x10>)
   847d2:	f000 b805 	b.w	847e0 <atexit>
   847d6:	4770      	bx	lr
   847d8:	00000000 	.word	0x00000000
   847dc:	00084a95 	.word	0x00084a95

000847e0 <atexit>:
   847e0:	4601      	mov	r1, r0
   847e2:	2000      	movs	r0, #0
   847e4:	4602      	mov	r2, r0
   847e6:	4603      	mov	r3, r0
   847e8:	f001 bc06 	b.w	85ff8 <__register_exitproc>

000847ec <__sflush_r>:
   847ec:	898b      	ldrh	r3, [r1, #12]
   847ee:	e92d 41f0 	stmdb	sp!, {r4, r5, r6, r7, r8, lr}
   847f2:	b29a      	uxth	r2, r3
   847f4:	460d      	mov	r5, r1
   847f6:	0711      	lsls	r1, r2, #28
   847f8:	4680      	mov	r8, r0
   847fa:	d43c      	bmi.n	84876 <__sflush_r+0x8a>
   847fc:	686a      	ldr	r2, [r5, #4]
   847fe:	f443 6300 	orr.w	r3, r3, #2048	; 0x800
   84802:	2a00      	cmp	r2, #0
   84804:	81ab      	strh	r3, [r5, #12]
   84806:	dd65      	ble.n	848d4 <__sflush_r+0xe8>
   84808:	6aae      	ldr	r6, [r5, #40]	; 0x28
   8480a:	2e00      	cmp	r6, #0
   8480c:	d04b      	beq.n	848a6 <__sflush_r+0xba>
   8480e:	b29b      	uxth	r3, r3
   84810:	f403 5280 	and.w	r2, r3, #4096	; 0x1000
   84814:	2100      	movs	r1, #0
   84816:	b292      	uxth	r2, r2
   84818:	f8d8 4000 	ldr.w	r4, [r8]
   8481c:	f8c8 1000 	str.w	r1, [r8]
   84820:	2a00      	cmp	r2, #0
   84822:	d05b      	beq.n	848dc <__sflush_r+0xf0>
   84824:	6d2a      	ldr	r2, [r5, #80]	; 0x50
   84826:	075f      	lsls	r7, r3, #29
   84828:	d505      	bpl.n	84836 <__sflush_r+0x4a>
   8482a:	6869      	ldr	r1, [r5, #4]
   8482c:	6b2b      	ldr	r3, [r5, #48]	; 0x30
   8482e:	1a52      	subs	r2, r2, r1
   84830:	b10b      	cbz	r3, 84836 <__sflush_r+0x4a>
   84832:	6beb      	ldr	r3, [r5, #60]	; 0x3c
   84834:	1ad2      	subs	r2, r2, r3
   84836:	4640      	mov	r0, r8
   84838:	69e9      	ldr	r1, [r5, #28]
   8483a:	2300      	movs	r3, #0
   8483c:	47b0      	blx	r6
   8483e:	1c46      	adds	r6, r0, #1
   84840:	d056      	beq.n	848f0 <__sflush_r+0x104>
   84842:	89ab      	ldrh	r3, [r5, #12]
   84844:	692a      	ldr	r2, [r5, #16]
   84846:	f423 6300 	bic.w	r3, r3, #2048	; 0x800
   8484a:	b29b      	uxth	r3, r3
   8484c:	2100      	movs	r1, #0
   8484e:	602a      	str	r2, [r5, #0]
   84850:	04da      	lsls	r2, r3, #19
   84852:	81ab      	strh	r3, [r5, #12]
   84854:	6069      	str	r1, [r5, #4]
   84856:	d43b      	bmi.n	848d0 <__sflush_r+0xe4>
   84858:	6b29      	ldr	r1, [r5, #48]	; 0x30
   8485a:	f8c8 4000 	str.w	r4, [r8]
   8485e:	b311      	cbz	r1, 848a6 <__sflush_r+0xba>
   84860:	f105 0340 	add.w	r3, r5, #64	; 0x40
   84864:	4299      	cmp	r1, r3
   84866:	d002      	beq.n	8486e <__sflush_r+0x82>
   84868:	4640      	mov	r0, r8
   8486a:	f000 f9e1 	bl	84c30 <_free_r>
   8486e:	2000      	movs	r0, #0
   84870:	6328      	str	r0, [r5, #48]	; 0x30
   84872:	e8bd 81f0 	ldmia.w	sp!, {r4, r5, r6, r7, r8, pc}
   84876:	692e      	ldr	r6, [r5, #16]
   84878:	b1ae      	cbz	r6, 848a6 <__sflush_r+0xba>
   8487a:	0791      	lsls	r1, r2, #30
   8487c:	682c      	ldr	r4, [r5, #0]
   8487e:	bf0c      	ite	eq
   84880:	696b      	ldreq	r3, [r5, #20]
   84882:	2300      	movne	r3, #0
   84884:	602e      	str	r6, [r5, #0]
   84886:	1ba4      	subs	r4, r4, r6
   84888:	60ab      	str	r3, [r5, #8]
   8488a:	e00a      	b.n	848a2 <__sflush_r+0xb6>
   8488c:	4632      	mov	r2, r6
   8488e:	4623      	mov	r3, r4
   84890:	6a6f      	ldr	r7, [r5, #36]	; 0x24
   84892:	4640      	mov	r0, r8
   84894:	69e9      	ldr	r1, [r5, #28]
   84896:	47b8      	blx	r7
   84898:	2800      	cmp	r0, #0
   8489a:	eba4 0400 	sub.w	r4, r4, r0
   8489e:	4406      	add	r6, r0
   848a0:	dd04      	ble.n	848ac <__sflush_r+0xc0>
   848a2:	2c00      	cmp	r4, #0
   848a4:	dcf2      	bgt.n	8488c <__sflush_r+0xa0>
   848a6:	2000      	movs	r0, #0
   848a8:	e8bd 81f0 	ldmia.w	sp!, {r4, r5, r6, r7, r8, pc}
   848ac:	89ab      	ldrh	r3, [r5, #12]
   848ae:	f04f 30ff 	mov.w	r0, #4294967295
   848b2:	f043 0340 	orr.w	r3, r3, #64	; 0x40
   848b6:	81ab      	strh	r3, [r5, #12]
   848b8:	e8bd 81f0 	ldmia.w	sp!, {r4, r5, r6, r7, r8, pc}
   848bc:	89ab      	ldrh	r3, [r5, #12]
   848be:	692a      	ldr	r2, [r5, #16]
   848c0:	f423 6300 	bic.w	r3, r3, #2048	; 0x800
   848c4:	b29b      	uxth	r3, r3
   848c6:	81ab      	strh	r3, [r5, #12]
   848c8:	04db      	lsls	r3, r3, #19
   848ca:	6069      	str	r1, [r5, #4]
   848cc:	602a      	str	r2, [r5, #0]
   848ce:	d5c3      	bpl.n	84858 <__sflush_r+0x6c>
   848d0:	6528      	str	r0, [r5, #80]	; 0x50
   848d2:	e7c1      	b.n	84858 <__sflush_r+0x6c>
   848d4:	6bea      	ldr	r2, [r5, #60]	; 0x3c
   848d6:	2a00      	cmp	r2, #0
   848d8:	dc96      	bgt.n	84808 <__sflush_r+0x1c>
   848da:	e7e4      	b.n	848a6 <__sflush_r+0xba>
   848dc:	2301      	movs	r3, #1
   848de:	4640      	mov	r0, r8
   848e0:	69e9      	ldr	r1, [r5, #28]
   848e2:	47b0      	blx	r6
   848e4:	1c43      	adds	r3, r0, #1
   848e6:	4602      	mov	r2, r0
   848e8:	d019      	beq.n	8491e <__sflush_r+0x132>
   848ea:	89ab      	ldrh	r3, [r5, #12]
   848ec:	6aae      	ldr	r6, [r5, #40]	; 0x28
   848ee:	e79a      	b.n	84826 <__sflush_r+0x3a>
   848f0:	f8d8 1000 	ldr.w	r1, [r8]
   848f4:	2900      	cmp	r1, #0
   848f6:	d0e1      	beq.n	848bc <__sflush_r+0xd0>
   848f8:	291d      	cmp	r1, #29
   848fa:	d007      	beq.n	8490c <__sflush_r+0x120>
   848fc:	2916      	cmp	r1, #22
   848fe:	d005      	beq.n	8490c <__sflush_r+0x120>
   84900:	89ab      	ldrh	r3, [r5, #12]
   84902:	f043 0340 	orr.w	r3, r3, #64	; 0x40
   84906:	81ab      	strh	r3, [r5, #12]
   84908:	e8bd 81f0 	ldmia.w	sp!, {r4, r5, r6, r7, r8, pc}
   8490c:	89ab      	ldrh	r3, [r5, #12]
   8490e:	6929      	ldr	r1, [r5, #16]
   84910:	f423 6300 	bic.w	r3, r3, #2048	; 0x800
   84914:	2200      	movs	r2, #0
   84916:	81ab      	strh	r3, [r5, #12]
   84918:	e885 0006 	stmia.w	r5, {r1, r2}
   8491c:	e79c      	b.n	84858 <__sflush_r+0x6c>
   8491e:	f8d8 3000 	ldr.w	r3, [r8]
   84922:	2b00      	cmp	r3, #0
   84924:	d0e1      	beq.n	848ea <__sflush_r+0xfe>
   84926:	2b1d      	cmp	r3, #29
   84928:	d001      	beq.n	8492e <__sflush_r+0x142>
   8492a:	2b16      	cmp	r3, #22
   8492c:	d1be      	bne.n	848ac <__sflush_r+0xc0>
   8492e:	f8c8 4000 	str.w	r4, [r8]
   84932:	e7b8      	b.n	848a6 <__sflush_r+0xba>

00084934 <_fflush_r>:
   84934:	b510      	push	{r4, lr}
   84936:	4604      	mov	r4, r0
   84938:	b082      	sub	sp, #8
   8493a:	b108      	cbz	r0, 84940 <_fflush_r+0xc>
   8493c:	6b83      	ldr	r3, [r0, #56]	; 0x38
   8493e:	b153      	cbz	r3, 84956 <_fflush_r+0x22>
   84940:	f9b1 000c 	ldrsh.w	r0, [r1, #12]
   84944:	b908      	cbnz	r0, 8494a <_fflush_r+0x16>
   84946:	b002      	add	sp, #8
   84948:	bd10      	pop	{r4, pc}
   8494a:	4620      	mov	r0, r4
   8494c:	b002      	add	sp, #8
   8494e:	e8bd 4010 	ldmia.w	sp!, {r4, lr}
   84952:	f7ff bf4b 	b.w	847ec <__sflush_r>
   84956:	9101      	str	r1, [sp, #4]
   84958:	f000 f892 	bl	84a80 <__sinit>
   8495c:	9901      	ldr	r1, [sp, #4]
   8495e:	e7ef      	b.n	84940 <_fflush_r+0xc>

00084960 <fflush>:
   84960:	b120      	cbz	r0, 8496c <fflush+0xc>
   84962:	4b05      	ldr	r3, [pc, #20]	; (84978 <fflush+0x18>)
   84964:	4601      	mov	r1, r0
   84966:	6818      	ldr	r0, [r3, #0]
   84968:	f7ff bfe4 	b.w	84934 <_fflush_r>
   8496c:	4b03      	ldr	r3, [pc, #12]	; (8497c <fflush+0x1c>)
   8496e:	4904      	ldr	r1, [pc, #16]	; (84980 <fflush+0x20>)
   84970:	6818      	ldr	r0, [r3, #0]
   84972:	f000 bbe9 	b.w	85148 <_fwalk_reent>
   84976:	bf00      	nop
   84978:	20070570 	.word	0x20070570
   8497c:	00086800 	.word	0x00086800
   84980:	00084935 	.word	0x00084935

00084984 <_cleanup_r>:
   84984:	4901      	ldr	r1, [pc, #4]	; (8498c <_cleanup_r+0x8>)
   84986:	f000 bbdf 	b.w	85148 <_fwalk_reent>
   8498a:	bf00      	nop
   8498c:	000860c1 	.word	0x000860c1

00084990 <__sinit.part.1>:
   84990:	e92d 4ff0 	stmdb	sp!, {r4, r5, r6, r7, r8, r9, sl, fp, lr}
   84994:	4607      	mov	r7, r0
   84996:	4835      	ldr	r0, [pc, #212]	; (84a6c <__sinit.part.1+0xdc>)
   84998:	687d      	ldr	r5, [r7, #4]
   8499a:	2400      	movs	r4, #0
   8499c:	f507 723b 	add.w	r2, r7, #748	; 0x2ec
   849a0:	2304      	movs	r3, #4
   849a2:	2103      	movs	r1, #3
   849a4:	63f8      	str	r0, [r7, #60]	; 0x3c
   849a6:	f8c7 12e4 	str.w	r1, [r7, #740]	; 0x2e4
   849aa:	f8c7 22e8 	str.w	r2, [r7, #744]	; 0x2e8
   849ae:	f8c7 42e0 	str.w	r4, [r7, #736]	; 0x2e0
   849b2:	b083      	sub	sp, #12
   849b4:	602c      	str	r4, [r5, #0]
   849b6:	606c      	str	r4, [r5, #4]
   849b8:	60ac      	str	r4, [r5, #8]
   849ba:	666c      	str	r4, [r5, #100]	; 0x64
   849bc:	81ec      	strh	r4, [r5, #14]
   849be:	612c      	str	r4, [r5, #16]
   849c0:	616c      	str	r4, [r5, #20]
   849c2:	61ac      	str	r4, [r5, #24]
   849c4:	81ab      	strh	r3, [r5, #12]
   849c6:	4621      	mov	r1, r4
   849c8:	f105 005c 	add.w	r0, r5, #92	; 0x5c
   849cc:	2208      	movs	r2, #8
   849ce:	f7fe fdf1 	bl	835b4 <memset>
   849d2:	f8df b09c 	ldr.w	fp, [pc, #156]	; 84a70 <__sinit.part.1+0xe0>
   849d6:	68be      	ldr	r6, [r7, #8]
   849d8:	f8df a098 	ldr.w	sl, [pc, #152]	; 84a74 <__sinit.part.1+0xe4>
   849dc:	f8df 9098 	ldr.w	r9, [pc, #152]	; 84a78 <__sinit.part.1+0xe8>
   849e0:	f8df 8098 	ldr.w	r8, [pc, #152]	; 84a7c <__sinit.part.1+0xec>
   849e4:	2301      	movs	r3, #1
   849e6:	2209      	movs	r2, #9
   849e8:	f8c5 b020 	str.w	fp, [r5, #32]
   849ec:	f8c5 a024 	str.w	sl, [r5, #36]	; 0x24
   849f0:	f8c5 9028 	str.w	r9, [r5, #40]	; 0x28
   849f4:	f8c5 802c 	str.w	r8, [r5, #44]	; 0x2c
   849f8:	61ed      	str	r5, [r5, #28]
   849fa:	4621      	mov	r1, r4
   849fc:	81f3      	strh	r3, [r6, #14]
   849fe:	81b2      	strh	r2, [r6, #12]
   84a00:	f106 005c 	add.w	r0, r6, #92	; 0x5c
   84a04:	6034      	str	r4, [r6, #0]
   84a06:	6074      	str	r4, [r6, #4]
   84a08:	60b4      	str	r4, [r6, #8]
   84a0a:	6674      	str	r4, [r6, #100]	; 0x64
   84a0c:	6134      	str	r4, [r6, #16]
   84a0e:	6174      	str	r4, [r6, #20]
   84a10:	61b4      	str	r4, [r6, #24]
   84a12:	2208      	movs	r2, #8
   84a14:	9301      	str	r3, [sp, #4]
   84a16:	f7fe fdcd 	bl	835b4 <memset>
   84a1a:	68fd      	ldr	r5, [r7, #12]
   84a1c:	2012      	movs	r0, #18
   84a1e:	2202      	movs	r2, #2
   84a20:	61f6      	str	r6, [r6, #28]
   84a22:	f8c6 b020 	str.w	fp, [r6, #32]
   84a26:	f8c6 a024 	str.w	sl, [r6, #36]	; 0x24
   84a2a:	f8c6 9028 	str.w	r9, [r6, #40]	; 0x28
   84a2e:	f8c6 802c 	str.w	r8, [r6, #44]	; 0x2c
   84a32:	4621      	mov	r1, r4
   84a34:	81a8      	strh	r0, [r5, #12]
   84a36:	81ea      	strh	r2, [r5, #14]
   84a38:	602c      	str	r4, [r5, #0]
   84a3a:	606c      	str	r4, [r5, #4]
   84a3c:	60ac      	str	r4, [r5, #8]
   84a3e:	666c      	str	r4, [r5, #100]	; 0x64
   84a40:	612c      	str	r4, [r5, #16]
   84a42:	616c      	str	r4, [r5, #20]
   84a44:	61ac      	str	r4, [r5, #24]
   84a46:	f105 005c 	add.w	r0, r5, #92	; 0x5c
   84a4a:	2208      	movs	r2, #8
   84a4c:	f7fe fdb2 	bl	835b4 <memset>
   84a50:	9b01      	ldr	r3, [sp, #4]
   84a52:	61ed      	str	r5, [r5, #28]
   84a54:	f8c5 b020 	str.w	fp, [r5, #32]
   84a58:	f8c5 a024 	str.w	sl, [r5, #36]	; 0x24
   84a5c:	f8c5 9028 	str.w	r9, [r5, #40]	; 0x28
   84a60:	f8c5 802c 	str.w	r8, [r5, #44]	; 0x2c
   84a64:	63bb      	str	r3, [r7, #56]	; 0x38
   84a66:	b003      	add	sp, #12
   84a68:	e8bd 8ff0 	ldmia.w	sp!, {r4, r5, r6, r7, r8, r9, sl, fp, pc}
   84a6c:	00084985 	.word	0x00084985
   84a70:	00085e35 	.word	0x00085e35
   84a74:	00085e59 	.word	0x00085e59
   84a78:	00085e91 	.word	0x00085e91
   84a7c:	00085eb1 	.word	0x00085eb1

00084a80 <__sinit>:
   84a80:	6b83      	ldr	r3, [r0, #56]	; 0x38
   84a82:	b103      	cbz	r3, 84a86 <__sinit+0x6>
   84a84:	4770      	bx	lr
   84a86:	f7ff bf83 	b.w	84990 <__sinit.part.1>
   84a8a:	bf00      	nop

00084a8c <__sfp_lock_acquire>:
   84a8c:	4770      	bx	lr
   84a8e:	bf00      	nop

00084a90 <__sfp_lock_release>:
   84a90:	4770      	bx	lr
   84a92:	bf00      	nop

00084a94 <__libc_fini_array>:
   84a94:	b538      	push	{r3, r4, r5, lr}
   84a96:	4b08      	ldr	r3, [pc, #32]	; (84ab8 <__libc_fini_array+0x24>)
   84a98:	4d08      	ldr	r5, [pc, #32]	; (84abc <__libc_fini_array+0x28>)
   84a9a:	1aed      	subs	r5, r5, r3
   84a9c:	10ac      	asrs	r4, r5, #2
   84a9e:	bf18      	it	ne
   84aa0:	18ed      	addne	r5, r5, r3
   84aa2:	d005      	beq.n	84ab0 <__libc_fini_array+0x1c>
   84aa4:	3c01      	subs	r4, #1
   84aa6:	f855 3d04 	ldr.w	r3, [r5, #-4]!
   84aaa:	4798      	blx	r3
   84aac:	2c00      	cmp	r4, #0
   84aae:	d1f9      	bne.n	84aa4 <__libc_fini_array+0x10>
   84ab0:	e8bd 4038 	ldmia.w	sp!, {r3, r4, r5, lr}
   84ab4:	f001 bf6e 	b.w	86994 <_fini>
   84ab8:	000869a0 	.word	0x000869a0
   84abc:	000869a4 	.word	0x000869a4

00084ac0 <__fputwc>:
   84ac0:	e92d 41f0 	stmdb	sp!, {r4, r5, r6, r7, r8, lr}
   84ac4:	b082      	sub	sp, #8
   84ac6:	4607      	mov	r7, r0
   84ac8:	460e      	mov	r6, r1
   84aca:	4614      	mov	r4, r2
   84acc:	f000 fb68 	bl	851a0 <__locale_mb_cur_max>
   84ad0:	2801      	cmp	r0, #1
   84ad2:	d040      	beq.n	84b56 <__fputwc+0x96>
   84ad4:	4638      	mov	r0, r7
   84ad6:	a901      	add	r1, sp, #4
   84ad8:	4632      	mov	r2, r6
   84ada:	f104 035c 	add.w	r3, r4, #92	; 0x5c
   84ade:	f001 fa3f 	bl	85f60 <_wcrtomb_r>
   84ae2:	f1b0 3fff 	cmp.w	r0, #4294967295
   84ae6:	4680      	mov	r8, r0
   84ae8:	d02e      	beq.n	84b48 <__fputwc+0x88>
   84aea:	2800      	cmp	r0, #0
   84aec:	d03b      	beq.n	84b66 <__fputwc+0xa6>
   84aee:	f89d 1004 	ldrb.w	r1, [sp, #4]
   84af2:	2500      	movs	r5, #0
   84af4:	e009      	b.n	84b0a <__fputwc+0x4a>
   84af6:	6823      	ldr	r3, [r4, #0]
   84af8:	7019      	strb	r1, [r3, #0]
   84afa:	6823      	ldr	r3, [r4, #0]
   84afc:	3301      	adds	r3, #1
   84afe:	6023      	str	r3, [r4, #0]
   84b00:	3501      	adds	r5, #1
   84b02:	45a8      	cmp	r8, r5
   84b04:	d92f      	bls.n	84b66 <__fputwc+0xa6>
   84b06:	ab01      	add	r3, sp, #4
   84b08:	5d59      	ldrb	r1, [r3, r5]
   84b0a:	68a3      	ldr	r3, [r4, #8]
   84b0c:	3b01      	subs	r3, #1
   84b0e:	2b00      	cmp	r3, #0
   84b10:	60a3      	str	r3, [r4, #8]
   84b12:	daf0      	bge.n	84af6 <__fputwc+0x36>
   84b14:	69a2      	ldr	r2, [r4, #24]
   84b16:	4293      	cmp	r3, r2
   84b18:	db06      	blt.n	84b28 <__fputwc+0x68>
   84b1a:	6823      	ldr	r3, [r4, #0]
   84b1c:	7019      	strb	r1, [r3, #0]
   84b1e:	6823      	ldr	r3, [r4, #0]
   84b20:	7819      	ldrb	r1, [r3, #0]
   84b22:	3301      	adds	r3, #1
   84b24:	290a      	cmp	r1, #10
   84b26:	d1ea      	bne.n	84afe <__fputwc+0x3e>
   84b28:	4638      	mov	r0, r7
   84b2a:	4622      	mov	r2, r4
   84b2c:	f001 f9c4 	bl	85eb8 <__swbuf_r>
   84b30:	f1a0 30ff 	sub.w	r0, r0, #4294967295
   84b34:	fab0 f080 	clz	r0, r0
   84b38:	0940      	lsrs	r0, r0, #5
   84b3a:	2800      	cmp	r0, #0
   84b3c:	d0e0      	beq.n	84b00 <__fputwc+0x40>
   84b3e:	f04f 30ff 	mov.w	r0, #4294967295
   84b42:	b002      	add	sp, #8
   84b44:	e8bd 81f0 	ldmia.w	sp!, {r4, r5, r6, r7, r8, pc}
   84b48:	89a3      	ldrh	r3, [r4, #12]
   84b4a:	f043 0340 	orr.w	r3, r3, #64	; 0x40
   84b4e:	81a3      	strh	r3, [r4, #12]
   84b50:	b002      	add	sp, #8
   84b52:	e8bd 81f0 	ldmia.w	sp!, {r4, r5, r6, r7, r8, pc}
   84b56:	1e73      	subs	r3, r6, #1
   84b58:	2bfe      	cmp	r3, #254	; 0xfe
   84b5a:	d8bb      	bhi.n	84ad4 <__fputwc+0x14>
   84b5c:	b2f1      	uxtb	r1, r6
   84b5e:	4680      	mov	r8, r0
   84b60:	f88d 1004 	strb.w	r1, [sp, #4]
   84b64:	e7c5      	b.n	84af2 <__fputwc+0x32>
   84b66:	4630      	mov	r0, r6
   84b68:	b002      	add	sp, #8
   84b6a:	e8bd 81f0 	ldmia.w	sp!, {r4, r5, r6, r7, r8, pc}
   84b6e:	bf00      	nop

00084b70 <_fputwc_r>:
   84b70:	8993      	ldrh	r3, [r2, #12]
   84b72:	f413 5f00 	tst.w	r3, #8192	; 0x2000
   84b76:	d10b      	bne.n	84b90 <_fputwc_r+0x20>
   84b78:	b410      	push	{r4}
   84b7a:	6e54      	ldr	r4, [r2, #100]	; 0x64
   84b7c:	f443 5300 	orr.w	r3, r3, #8192	; 0x2000
   84b80:	f444 5400 	orr.w	r4, r4, #8192	; 0x2000
   84b84:	6654      	str	r4, [r2, #100]	; 0x64
   84b86:	8193      	strh	r3, [r2, #12]
   84b88:	f85d 4b04 	ldr.w	r4, [sp], #4
   84b8c:	f7ff bf98 	b.w	84ac0 <__fputwc>
   84b90:	f7ff bf96 	b.w	84ac0 <__fputwc>

00084b94 <_malloc_trim_r>:
   84b94:	b5f8      	push	{r3, r4, r5, r6, r7, lr}
   84b96:	460c      	mov	r4, r1
   84b98:	4f22      	ldr	r7, [pc, #136]	; (84c24 <_malloc_trim_r+0x90>)
   84b9a:	4606      	mov	r6, r0
   84b9c:	f000 feb2 	bl	85904 <__malloc_lock>
   84ba0:	68bb      	ldr	r3, [r7, #8]
   84ba2:	685d      	ldr	r5, [r3, #4]
   84ba4:	f025 0503 	bic.w	r5, r5, #3
   84ba8:	1b29      	subs	r1, r5, r4
   84baa:	f601 71ef 	addw	r1, r1, #4079	; 0xfef
   84bae:	f421 617f 	bic.w	r1, r1, #4080	; 0xff0
   84bb2:	f021 010f 	bic.w	r1, r1, #15
   84bb6:	f5a1 5480 	sub.w	r4, r1, #4096	; 0x1000
   84bba:	f5b4 5f80 	cmp.w	r4, #4096	; 0x1000
   84bbe:	db07      	blt.n	84bd0 <_malloc_trim_r+0x3c>
   84bc0:	4630      	mov	r0, r6
   84bc2:	2100      	movs	r1, #0
   84bc4:	f001 f924 	bl	85e10 <_sbrk_r>
   84bc8:	68bb      	ldr	r3, [r7, #8]
   84bca:	442b      	add	r3, r5
   84bcc:	4298      	cmp	r0, r3
   84bce:	d004      	beq.n	84bda <_malloc_trim_r+0x46>
   84bd0:	4630      	mov	r0, r6
   84bd2:	f000 fe99 	bl	85908 <__malloc_unlock>
   84bd6:	2000      	movs	r0, #0
   84bd8:	bdf8      	pop	{r3, r4, r5, r6, r7, pc}
   84bda:	4630      	mov	r0, r6
   84bdc:	4261      	negs	r1, r4
   84bde:	f001 f917 	bl	85e10 <_sbrk_r>
   84be2:	3001      	adds	r0, #1
   84be4:	d00d      	beq.n	84c02 <_malloc_trim_r+0x6e>
   84be6:	4b10      	ldr	r3, [pc, #64]	; (84c28 <_malloc_trim_r+0x94>)
   84be8:	68ba      	ldr	r2, [r7, #8]
   84bea:	6819      	ldr	r1, [r3, #0]
   84bec:	1b2d      	subs	r5, r5, r4
   84bee:	f045 0501 	orr.w	r5, r5, #1
   84bf2:	4630      	mov	r0, r6
   84bf4:	1b09      	subs	r1, r1, r4
   84bf6:	6055      	str	r5, [r2, #4]
   84bf8:	6019      	str	r1, [r3, #0]
   84bfa:	f000 fe85 	bl	85908 <__malloc_unlock>
   84bfe:	2001      	movs	r0, #1
   84c00:	bdf8      	pop	{r3, r4, r5, r6, r7, pc}
   84c02:	4630      	mov	r0, r6
   84c04:	2100      	movs	r1, #0
   84c06:	f001 f903 	bl	85e10 <_sbrk_r>
   84c0a:	68ba      	ldr	r2, [r7, #8]
   84c0c:	1a83      	subs	r3, r0, r2
   84c0e:	2b0f      	cmp	r3, #15
   84c10:	ddde      	ble.n	84bd0 <_malloc_trim_r+0x3c>
   84c12:	4c06      	ldr	r4, [pc, #24]	; (84c2c <_malloc_trim_r+0x98>)
   84c14:	4904      	ldr	r1, [pc, #16]	; (84c28 <_malloc_trim_r+0x94>)
   84c16:	6824      	ldr	r4, [r4, #0]
   84c18:	f043 0301 	orr.w	r3, r3, #1
   84c1c:	1b00      	subs	r0, r0, r4
   84c1e:	6053      	str	r3, [r2, #4]
   84c20:	6008      	str	r0, [r1, #0]
   84c22:	e7d5      	b.n	84bd0 <_malloc_trim_r+0x3c>
   84c24:	2007059c 	.word	0x2007059c
   84c28:	20078da0 	.word	0x20078da0
   84c2c:	200709a8 	.word	0x200709a8

00084c30 <_free_r>:
   84c30:	2900      	cmp	r1, #0
   84c32:	d04e      	beq.n	84cd2 <_free_r+0xa2>
   84c34:	e92d 41f0 	stmdb	sp!, {r4, r5, r6, r7, r8, lr}
   84c38:	460c      	mov	r4, r1
   84c3a:	4680      	mov	r8, r0
   84c3c:	f000 fe62 	bl	85904 <__malloc_lock>
   84c40:	f854 7c04 	ldr.w	r7, [r4, #-4]
   84c44:	4962      	ldr	r1, [pc, #392]	; (84dd0 <_free_r+0x1a0>)
   84c46:	f1a4 0508 	sub.w	r5, r4, #8
   84c4a:	f027 0201 	bic.w	r2, r7, #1
   84c4e:	18ab      	adds	r3, r5, r2
   84c50:	688e      	ldr	r6, [r1, #8]
   84c52:	6858      	ldr	r0, [r3, #4]
   84c54:	429e      	cmp	r6, r3
   84c56:	f020 0003 	bic.w	r0, r0, #3
   84c5a:	d05a      	beq.n	84d12 <_free_r+0xe2>
   84c5c:	07fe      	lsls	r6, r7, #31
   84c5e:	6058      	str	r0, [r3, #4]
   84c60:	d40b      	bmi.n	84c7a <_free_r+0x4a>
   84c62:	f854 7c08 	ldr.w	r7, [r4, #-8]
   84c66:	f101 0e08 	add.w	lr, r1, #8
   84c6a:	1bed      	subs	r5, r5, r7
   84c6c:	68ac      	ldr	r4, [r5, #8]
   84c6e:	443a      	add	r2, r7
   84c70:	4574      	cmp	r4, lr
   84c72:	d067      	beq.n	84d44 <_free_r+0x114>
   84c74:	68ef      	ldr	r7, [r5, #12]
   84c76:	60e7      	str	r7, [r4, #12]
   84c78:	60bc      	str	r4, [r7, #8]
   84c7a:	181c      	adds	r4, r3, r0
   84c7c:	6864      	ldr	r4, [r4, #4]
   84c7e:	07e4      	lsls	r4, r4, #31
   84c80:	d40c      	bmi.n	84c9c <_free_r+0x6c>
   84c82:	4f54      	ldr	r7, [pc, #336]	; (84dd4 <_free_r+0x1a4>)
   84c84:	689c      	ldr	r4, [r3, #8]
   84c86:	4402      	add	r2, r0
   84c88:	42bc      	cmp	r4, r7
   84c8a:	d07c      	beq.n	84d86 <_free_r+0x156>
   84c8c:	68d8      	ldr	r0, [r3, #12]
   84c8e:	f042 0301 	orr.w	r3, r2, #1
   84c92:	60e0      	str	r0, [r4, #12]
   84c94:	6084      	str	r4, [r0, #8]
   84c96:	606b      	str	r3, [r5, #4]
   84c98:	50aa      	str	r2, [r5, r2]
   84c9a:	e003      	b.n	84ca4 <_free_r+0x74>
   84c9c:	f042 0301 	orr.w	r3, r2, #1
   84ca0:	606b      	str	r3, [r5, #4]
   84ca2:	50aa      	str	r2, [r5, r2]
   84ca4:	f5b2 7f00 	cmp.w	r2, #512	; 0x200
   84ca8:	d214      	bcs.n	84cd4 <_free_r+0xa4>
   84caa:	08d2      	lsrs	r2, r2, #3
   84cac:	eb01 03c2 	add.w	r3, r1, r2, lsl #3
   84cb0:	2401      	movs	r4, #1
   84cb2:	6848      	ldr	r0, [r1, #4]
   84cb4:	1092      	asrs	r2, r2, #2
   84cb6:	fa04 f202 	lsl.w	r2, r4, r2
   84cba:	689c      	ldr	r4, [r3, #8]
   84cbc:	4310      	orrs	r0, r2
   84cbe:	60ac      	str	r4, [r5, #8]
   84cc0:	60eb      	str	r3, [r5, #12]
   84cc2:	6048      	str	r0, [r1, #4]
   84cc4:	609d      	str	r5, [r3, #8]
   84cc6:	60e5      	str	r5, [r4, #12]
   84cc8:	4640      	mov	r0, r8
   84cca:	e8bd 41f0 	ldmia.w	sp!, {r4, r5, r6, r7, r8, lr}
   84cce:	f000 be1b 	b.w	85908 <__malloc_unlock>
   84cd2:	4770      	bx	lr
   84cd4:	0a53      	lsrs	r3, r2, #9
   84cd6:	2b04      	cmp	r3, #4
   84cd8:	d847      	bhi.n	84d6a <_free_r+0x13a>
   84cda:	0993      	lsrs	r3, r2, #6
   84cdc:	f103 0438 	add.w	r4, r3, #56	; 0x38
   84ce0:	0060      	lsls	r0, r4, #1
   84ce2:	eb01 0080 	add.w	r0, r1, r0, lsl #2
   84ce6:	6883      	ldr	r3, [r0, #8]
   84ce8:	4939      	ldr	r1, [pc, #228]	; (84dd0 <_free_r+0x1a0>)
   84cea:	4283      	cmp	r3, r0
   84cec:	d043      	beq.n	84d76 <_free_r+0x146>
   84cee:	6859      	ldr	r1, [r3, #4]
   84cf0:	f021 0103 	bic.w	r1, r1, #3
   84cf4:	4291      	cmp	r1, r2
   84cf6:	d902      	bls.n	84cfe <_free_r+0xce>
   84cf8:	689b      	ldr	r3, [r3, #8]
   84cfa:	4298      	cmp	r0, r3
   84cfc:	d1f7      	bne.n	84cee <_free_r+0xbe>
   84cfe:	68da      	ldr	r2, [r3, #12]
   84d00:	60ea      	str	r2, [r5, #12]
   84d02:	60ab      	str	r3, [r5, #8]
   84d04:	4640      	mov	r0, r8
   84d06:	6095      	str	r5, [r2, #8]
   84d08:	60dd      	str	r5, [r3, #12]
   84d0a:	e8bd 41f0 	ldmia.w	sp!, {r4, r5, r6, r7, r8, lr}
   84d0e:	f000 bdfb 	b.w	85908 <__malloc_unlock>
   84d12:	07ff      	lsls	r7, r7, #31
   84d14:	4402      	add	r2, r0
   84d16:	d407      	bmi.n	84d28 <_free_r+0xf8>
   84d18:	f854 4c08 	ldr.w	r4, [r4, #-8]
   84d1c:	1b2d      	subs	r5, r5, r4
   84d1e:	68eb      	ldr	r3, [r5, #12]
   84d20:	68a8      	ldr	r0, [r5, #8]
   84d22:	4422      	add	r2, r4
   84d24:	60c3      	str	r3, [r0, #12]
   84d26:	6098      	str	r0, [r3, #8]
   84d28:	4b2b      	ldr	r3, [pc, #172]	; (84dd8 <_free_r+0x1a8>)
   84d2a:	f042 0001 	orr.w	r0, r2, #1
   84d2e:	681b      	ldr	r3, [r3, #0]
   84d30:	6068      	str	r0, [r5, #4]
   84d32:	429a      	cmp	r2, r3
   84d34:	608d      	str	r5, [r1, #8]
   84d36:	d3c7      	bcc.n	84cc8 <_free_r+0x98>
   84d38:	4b28      	ldr	r3, [pc, #160]	; (84ddc <_free_r+0x1ac>)
   84d3a:	4640      	mov	r0, r8
   84d3c:	6819      	ldr	r1, [r3, #0]
   84d3e:	f7ff ff29 	bl	84b94 <_malloc_trim_r>
   84d42:	e7c1      	b.n	84cc8 <_free_r+0x98>
   84d44:	1819      	adds	r1, r3, r0
   84d46:	6849      	ldr	r1, [r1, #4]
   84d48:	07c9      	lsls	r1, r1, #31
   84d4a:	d409      	bmi.n	84d60 <_free_r+0x130>
   84d4c:	68d9      	ldr	r1, [r3, #12]
   84d4e:	4402      	add	r2, r0
   84d50:	689b      	ldr	r3, [r3, #8]
   84d52:	f042 0001 	orr.w	r0, r2, #1
   84d56:	60d9      	str	r1, [r3, #12]
   84d58:	608b      	str	r3, [r1, #8]
   84d5a:	6068      	str	r0, [r5, #4]
   84d5c:	50aa      	str	r2, [r5, r2]
   84d5e:	e7b3      	b.n	84cc8 <_free_r+0x98>
   84d60:	f042 0301 	orr.w	r3, r2, #1
   84d64:	606b      	str	r3, [r5, #4]
   84d66:	50aa      	str	r2, [r5, r2]
   84d68:	e7ae      	b.n	84cc8 <_free_r+0x98>
   84d6a:	2b14      	cmp	r3, #20
   84d6c:	d814      	bhi.n	84d98 <_free_r+0x168>
   84d6e:	f103 045b 	add.w	r4, r3, #91	; 0x5b
   84d72:	0060      	lsls	r0, r4, #1
   84d74:	e7b5      	b.n	84ce2 <_free_r+0xb2>
   84d76:	684a      	ldr	r2, [r1, #4]
   84d78:	10a4      	asrs	r4, r4, #2
   84d7a:	2001      	movs	r0, #1
   84d7c:	40a0      	lsls	r0, r4
   84d7e:	4302      	orrs	r2, r0
   84d80:	604a      	str	r2, [r1, #4]
   84d82:	461a      	mov	r2, r3
   84d84:	e7bc      	b.n	84d00 <_free_r+0xd0>
   84d86:	f042 0301 	orr.w	r3, r2, #1
   84d8a:	614d      	str	r5, [r1, #20]
   84d8c:	610d      	str	r5, [r1, #16]
   84d8e:	60ec      	str	r4, [r5, #12]
   84d90:	60ac      	str	r4, [r5, #8]
   84d92:	606b      	str	r3, [r5, #4]
   84d94:	50aa      	str	r2, [r5, r2]
   84d96:	e797      	b.n	84cc8 <_free_r+0x98>
   84d98:	2b54      	cmp	r3, #84	; 0x54
   84d9a:	d804      	bhi.n	84da6 <_free_r+0x176>
   84d9c:	0b13      	lsrs	r3, r2, #12
   84d9e:	f103 046e 	add.w	r4, r3, #110	; 0x6e
   84da2:	0060      	lsls	r0, r4, #1
   84da4:	e79d      	b.n	84ce2 <_free_r+0xb2>
   84da6:	f5b3 7faa 	cmp.w	r3, #340	; 0x154
   84daa:	d804      	bhi.n	84db6 <_free_r+0x186>
   84dac:	0bd3      	lsrs	r3, r2, #15
   84dae:	f103 0477 	add.w	r4, r3, #119	; 0x77
   84db2:	0060      	lsls	r0, r4, #1
   84db4:	e795      	b.n	84ce2 <_free_r+0xb2>
   84db6:	f240 5054 	movw	r0, #1364	; 0x554
   84dba:	4283      	cmp	r3, r0
   84dbc:	d804      	bhi.n	84dc8 <_free_r+0x198>
   84dbe:	0c93      	lsrs	r3, r2, #18
   84dc0:	f103 047c 	add.w	r4, r3, #124	; 0x7c
   84dc4:	0060      	lsls	r0, r4, #1
   84dc6:	e78c      	b.n	84ce2 <_free_r+0xb2>
   84dc8:	20fc      	movs	r0, #252	; 0xfc
   84dca:	247e      	movs	r4, #126	; 0x7e
   84dcc:	e789      	b.n	84ce2 <_free_r+0xb2>
   84dce:	bf00      	nop
   84dd0:	2007059c 	.word	0x2007059c
   84dd4:	200705a4 	.word	0x200705a4
   84dd8:	200709a4 	.word	0x200709a4
   84ddc:	20078d9c 	.word	0x20078d9c

00084de0 <__sfvwrite_r>:
   84de0:	6893      	ldr	r3, [r2, #8]
   84de2:	2b00      	cmp	r3, #0
   84de4:	f000 80b1 	beq.w	84f4a <__sfvwrite_r+0x16a>
   84de8:	e92d 4ff0 	stmdb	sp!, {r4, r5, r6, r7, r8, r9, sl, fp, lr}
   84dec:	f8b1 e00c 	ldrh.w	lr, [r1, #12]
   84df0:	b083      	sub	sp, #12
   84df2:	f01e 0f08 	tst.w	lr, #8
   84df6:	460c      	mov	r4, r1
   84df8:	4681      	mov	r9, r0
   84dfa:	4616      	mov	r6, r2
   84dfc:	d028      	beq.n	84e50 <__sfvwrite_r+0x70>
   84dfe:	690b      	ldr	r3, [r1, #16]
   84e00:	b333      	cbz	r3, 84e50 <__sfvwrite_r+0x70>
   84e02:	f00e 0802 	and.w	r8, lr, #2
   84e06:	fa1f f088 	uxth.w	r0, r8
   84e0a:	6835      	ldr	r5, [r6, #0]
   84e0c:	b380      	cbz	r0, 84e70 <__sfvwrite_r+0x90>
   84e0e:	f04f 0b00 	mov.w	fp, #0
   84e12:	46d8      	mov	r8, fp
   84e14:	f8df a2e4 	ldr.w	sl, [pc, #740]	; 850fc <__sfvwrite_r+0x31c>
   84e18:	f1b8 0f00 	cmp.w	r8, #0
   84e1c:	f000 808f 	beq.w	84f3e <__sfvwrite_r+0x15e>
   84e20:	45d0      	cmp	r8, sl
   84e22:	4643      	mov	r3, r8
   84e24:	4648      	mov	r0, r9
   84e26:	bf28      	it	cs
   84e28:	4653      	movcs	r3, sl
   84e2a:	69e1      	ldr	r1, [r4, #28]
   84e2c:	465a      	mov	r2, fp
   84e2e:	6a67      	ldr	r7, [r4, #36]	; 0x24
   84e30:	47b8      	blx	r7
   84e32:	2800      	cmp	r0, #0
   84e34:	f340 80a8 	ble.w	84f88 <__sfvwrite_r+0x1a8>
   84e38:	68b3      	ldr	r3, [r6, #8]
   84e3a:	4483      	add	fp, r0
   84e3c:	1a1b      	subs	r3, r3, r0
   84e3e:	ebc0 0808 	rsb	r8, r0, r8
   84e42:	60b3      	str	r3, [r6, #8]
   84e44:	2b00      	cmp	r3, #0
   84e46:	d1e7      	bne.n	84e18 <__sfvwrite_r+0x38>
   84e48:	2000      	movs	r0, #0
   84e4a:	b003      	add	sp, #12
   84e4c:	e8bd 8ff0 	ldmia.w	sp!, {r4, r5, r6, r7, r8, r9, sl, fp, pc}
   84e50:	4648      	mov	r0, r9
   84e52:	4621      	mov	r1, r4
   84e54:	f7ff fc58 	bl	84708 <__swsetup_r>
   84e58:	2800      	cmp	r0, #0
   84e5a:	f040 8146 	bne.w	850ea <__sfvwrite_r+0x30a>
   84e5e:	f8b4 e00c 	ldrh.w	lr, [r4, #12]
   84e62:	6835      	ldr	r5, [r6, #0]
   84e64:	f00e 0802 	and.w	r8, lr, #2
   84e68:	fa1f f088 	uxth.w	r0, r8
   84e6c:	2800      	cmp	r0, #0
   84e6e:	d1ce      	bne.n	84e0e <__sfvwrite_r+0x2e>
   84e70:	f01e 0b01 	ands.w	fp, lr, #1
   84e74:	f040 8091 	bne.w	84f9a <__sfvwrite_r+0x1ba>
   84e78:	46d8      	mov	r8, fp
   84e7a:	f1b8 0f00 	cmp.w	r8, #0
   84e7e:	d058      	beq.n	84f32 <__sfvwrite_r+0x152>
   84e80:	f41e 7f00 	tst.w	lr, #512	; 0x200
   84e84:	68a7      	ldr	r7, [r4, #8]
   84e86:	d062      	beq.n	84f4e <__sfvwrite_r+0x16e>
   84e88:	45b8      	cmp	r8, r7
   84e8a:	46ba      	mov	sl, r7
   84e8c:	f0c0 80c2 	bcc.w	85014 <__sfvwrite_r+0x234>
   84e90:	f41e 6f90 	tst.w	lr, #1152	; 0x480
   84e94:	f000 80c0 	beq.w	85018 <__sfvwrite_r+0x238>
   84e98:	6967      	ldr	r7, [r4, #20]
   84e9a:	6921      	ldr	r1, [r4, #16]
   84e9c:	6823      	ldr	r3, [r4, #0]
   84e9e:	eb07 0747 	add.w	r7, r7, r7, lsl #1
   84ea2:	1a5b      	subs	r3, r3, r1
   84ea4:	eb07 77d7 	add.w	r7, r7, r7, lsr #31
   84ea8:	1c58      	adds	r0, r3, #1
   84eaa:	107f      	asrs	r7, r7, #1
   84eac:	4440      	add	r0, r8
   84eae:	4287      	cmp	r7, r0
   84eb0:	463a      	mov	r2, r7
   84eb2:	bf3c      	itt	cc
   84eb4:	4607      	movcc	r7, r0
   84eb6:	463a      	movcc	r2, r7
   84eb8:	f41e 6f80 	tst.w	lr, #1024	; 0x400
   84ebc:	9300      	str	r3, [sp, #0]
   84ebe:	f000 80fb 	beq.w	850b8 <__sfvwrite_r+0x2d8>
   84ec2:	4611      	mov	r1, r2
   84ec4:	4648      	mov	r0, r9
   84ec6:	f000 f9e9 	bl	8529c <_malloc_r>
   84eca:	9b00      	ldr	r3, [sp, #0]
   84ecc:	4682      	mov	sl, r0
   84ece:	2800      	cmp	r0, #0
   84ed0:	f000 810e 	beq.w	850f0 <__sfvwrite_r+0x310>
   84ed4:	461a      	mov	r2, r3
   84ed6:	6921      	ldr	r1, [r4, #16]
   84ed8:	9300      	str	r3, [sp, #0]
   84eda:	f7fe faf5 	bl	834c8 <memcpy>
   84ede:	89a2      	ldrh	r2, [r4, #12]
   84ee0:	9b00      	ldr	r3, [sp, #0]
   84ee2:	f422 6290 	bic.w	r2, r2, #1152	; 0x480
   84ee6:	f042 0280 	orr.w	r2, r2, #128	; 0x80
   84eea:	81a2      	strh	r2, [r4, #12]
   84eec:	eb0a 0003 	add.w	r0, sl, r3
   84ef0:	f8c4 a010 	str.w	sl, [r4, #16]
   84ef4:	1afb      	subs	r3, r7, r3
   84ef6:	6167      	str	r7, [r4, #20]
   84ef8:	46c2      	mov	sl, r8
   84efa:	4647      	mov	r7, r8
   84efc:	6020      	str	r0, [r4, #0]
   84efe:	60a3      	str	r3, [r4, #8]
   84f00:	4652      	mov	r2, sl
   84f02:	4659      	mov	r1, fp
   84f04:	f000 fc9a 	bl	8583c <memmove>
   84f08:	68a0      	ldr	r0, [r4, #8]
   84f0a:	6822      	ldr	r2, [r4, #0]
   84f0c:	1bc0      	subs	r0, r0, r7
   84f0e:	60a0      	str	r0, [r4, #8]
   84f10:	4640      	mov	r0, r8
   84f12:	eb02 030a 	add.w	r3, r2, sl
   84f16:	6023      	str	r3, [r4, #0]
   84f18:	68b3      	ldr	r3, [r6, #8]
   84f1a:	4483      	add	fp, r0
   84f1c:	1a1b      	subs	r3, r3, r0
   84f1e:	ebc0 0808 	rsb	r8, r0, r8
   84f22:	60b3      	str	r3, [r6, #8]
   84f24:	2b00      	cmp	r3, #0
   84f26:	d08f      	beq.n	84e48 <__sfvwrite_r+0x68>
   84f28:	f8b4 e00c 	ldrh.w	lr, [r4, #12]
   84f2c:	f1b8 0f00 	cmp.w	r8, #0
   84f30:	d1a6      	bne.n	84e80 <__sfvwrite_r+0xa0>
   84f32:	f8d5 b000 	ldr.w	fp, [r5]
   84f36:	f8d5 8004 	ldr.w	r8, [r5, #4]
   84f3a:	3508      	adds	r5, #8
   84f3c:	e79d      	b.n	84e7a <__sfvwrite_r+0x9a>
   84f3e:	f8d5 b000 	ldr.w	fp, [r5]
   84f42:	f8d5 8004 	ldr.w	r8, [r5, #4]
   84f46:	3508      	adds	r5, #8
   84f48:	e766      	b.n	84e18 <__sfvwrite_r+0x38>
   84f4a:	2000      	movs	r0, #0
   84f4c:	4770      	bx	lr
   84f4e:	6820      	ldr	r0, [r4, #0]
   84f50:	6923      	ldr	r3, [r4, #16]
   84f52:	4298      	cmp	r0, r3
   84f54:	d803      	bhi.n	84f5e <__sfvwrite_r+0x17e>
   84f56:	6962      	ldr	r2, [r4, #20]
   84f58:	4590      	cmp	r8, r2
   84f5a:	f080 8085 	bcs.w	85068 <__sfvwrite_r+0x288>
   84f5e:	4547      	cmp	r7, r8
   84f60:	bf28      	it	cs
   84f62:	4647      	movcs	r7, r8
   84f64:	4659      	mov	r1, fp
   84f66:	463a      	mov	r2, r7
   84f68:	f000 fc68 	bl	8583c <memmove>
   84f6c:	68a3      	ldr	r3, [r4, #8]
   84f6e:	6822      	ldr	r2, [r4, #0]
   84f70:	1bdb      	subs	r3, r3, r7
   84f72:	443a      	add	r2, r7
   84f74:	60a3      	str	r3, [r4, #8]
   84f76:	6022      	str	r2, [r4, #0]
   84f78:	2b00      	cmp	r3, #0
   84f7a:	d149      	bne.n	85010 <__sfvwrite_r+0x230>
   84f7c:	4648      	mov	r0, r9
   84f7e:	4621      	mov	r1, r4
   84f80:	f7ff fcd8 	bl	84934 <_fflush_r>
   84f84:	2800      	cmp	r0, #0
   84f86:	d043      	beq.n	85010 <__sfvwrite_r+0x230>
   84f88:	89a3      	ldrh	r3, [r4, #12]
   84f8a:	f043 0340 	orr.w	r3, r3, #64	; 0x40
   84f8e:	f04f 30ff 	mov.w	r0, #4294967295
   84f92:	81a3      	strh	r3, [r4, #12]
   84f94:	b003      	add	sp, #12
   84f96:	e8bd 8ff0 	ldmia.w	sp!, {r4, r5, r6, r7, r8, r9, sl, fp, pc}
   84f9a:	4680      	mov	r8, r0
   84f9c:	4683      	mov	fp, r0
   84f9e:	4682      	mov	sl, r0
   84fa0:	9000      	str	r0, [sp, #0]
   84fa2:	f1ba 0f00 	cmp.w	sl, #0
   84fa6:	d02b      	beq.n	85000 <__sfvwrite_r+0x220>
   84fa8:	9b00      	ldr	r3, [sp, #0]
   84faa:	2b00      	cmp	r3, #0
   84fac:	d04f      	beq.n	8504e <__sfvwrite_r+0x26e>
   84fae:	45d0      	cmp	r8, sl
   84fb0:	4643      	mov	r3, r8
   84fb2:	bf28      	it	cs
   84fb4:	4653      	movcs	r3, sl
   84fb6:	6820      	ldr	r0, [r4, #0]
   84fb8:	6921      	ldr	r1, [r4, #16]
   84fba:	461f      	mov	r7, r3
   84fbc:	4288      	cmp	r0, r1
   84fbe:	f8d4 e008 	ldr.w	lr, [r4, #8]
   84fc2:	6962      	ldr	r2, [r4, #20]
   84fc4:	d903      	bls.n	84fce <__sfvwrite_r+0x1ee>
   84fc6:	eb0e 0c02 	add.w	ip, lr, r2
   84fca:	4563      	cmp	r3, ip
   84fcc:	dc5e      	bgt.n	8508c <__sfvwrite_r+0x2ac>
   84fce:	4293      	cmp	r3, r2
   84fd0:	db24      	blt.n	8501c <__sfvwrite_r+0x23c>
   84fd2:	4613      	mov	r3, r2
   84fd4:	6a67      	ldr	r7, [r4, #36]	; 0x24
   84fd6:	4648      	mov	r0, r9
   84fd8:	69e1      	ldr	r1, [r4, #28]
   84fda:	465a      	mov	r2, fp
   84fdc:	47b8      	blx	r7
   84fde:	1e07      	subs	r7, r0, #0
   84fe0:	ddd2      	ble.n	84f88 <__sfvwrite_r+0x1a8>
   84fe2:	ebb8 0807 	subs.w	r8, r8, r7
   84fe6:	d029      	beq.n	8503c <__sfvwrite_r+0x25c>
   84fe8:	68b3      	ldr	r3, [r6, #8]
   84fea:	44bb      	add	fp, r7
   84fec:	1bdb      	subs	r3, r3, r7
   84fee:	ebc7 0a0a 	rsb	sl, r7, sl
   84ff2:	60b3      	str	r3, [r6, #8]
   84ff4:	2b00      	cmp	r3, #0
   84ff6:	f43f af27 	beq.w	84e48 <__sfvwrite_r+0x68>
   84ffa:	f1ba 0f00 	cmp.w	sl, #0
   84ffe:	d1d3      	bne.n	84fa8 <__sfvwrite_r+0x1c8>
   85000:	2300      	movs	r3, #0
   85002:	f8d5 b000 	ldr.w	fp, [r5]
   85006:	f8d5 a004 	ldr.w	sl, [r5, #4]
   8500a:	9300      	str	r3, [sp, #0]
   8500c:	3508      	adds	r5, #8
   8500e:	e7c8      	b.n	84fa2 <__sfvwrite_r+0x1c2>
   85010:	4638      	mov	r0, r7
   85012:	e781      	b.n	84f18 <__sfvwrite_r+0x138>
   85014:	4647      	mov	r7, r8
   85016:	46c2      	mov	sl, r8
   85018:	6820      	ldr	r0, [r4, #0]
   8501a:	e771      	b.n	84f00 <__sfvwrite_r+0x120>
   8501c:	461a      	mov	r2, r3
   8501e:	4659      	mov	r1, fp
   85020:	9301      	str	r3, [sp, #4]
   85022:	f000 fc0b 	bl	8583c <memmove>
   85026:	68a2      	ldr	r2, [r4, #8]
   85028:	6821      	ldr	r1, [r4, #0]
   8502a:	9b01      	ldr	r3, [sp, #4]
   8502c:	ebb8 0807 	subs.w	r8, r8, r7
   85030:	eba2 0203 	sub.w	r2, r2, r3
   85034:	440b      	add	r3, r1
   85036:	60a2      	str	r2, [r4, #8]
   85038:	6023      	str	r3, [r4, #0]
   8503a:	d1d5      	bne.n	84fe8 <__sfvwrite_r+0x208>
   8503c:	4648      	mov	r0, r9
   8503e:	4621      	mov	r1, r4
   85040:	f7ff fc78 	bl	84934 <_fflush_r>
   85044:	2800      	cmp	r0, #0
   85046:	d19f      	bne.n	84f88 <__sfvwrite_r+0x1a8>
   85048:	f8cd 8000 	str.w	r8, [sp]
   8504c:	e7cc      	b.n	84fe8 <__sfvwrite_r+0x208>
   8504e:	4658      	mov	r0, fp
   85050:	210a      	movs	r1, #10
   85052:	4652      	mov	r2, sl
   85054:	f000 fba8 	bl	857a8 <memchr>
   85058:	2800      	cmp	r0, #0
   8505a:	d041      	beq.n	850e0 <__sfvwrite_r+0x300>
   8505c:	3001      	adds	r0, #1
   8505e:	2301      	movs	r3, #1
   85060:	ebcb 0800 	rsb	r8, fp, r0
   85064:	9300      	str	r3, [sp, #0]
   85066:	e7a2      	b.n	84fae <__sfvwrite_r+0x1ce>
   85068:	f06f 4300 	mvn.w	r3, #2147483648	; 0x80000000
   8506c:	4543      	cmp	r3, r8
   8506e:	bf28      	it	cs
   85070:	4643      	movcs	r3, r8
   85072:	fb93 f3f2 	sdiv	r3, r3, r2
   85076:	6a67      	ldr	r7, [r4, #36]	; 0x24
   85078:	fb03 f302 	mul.w	r3, r3, r2
   8507c:	4648      	mov	r0, r9
   8507e:	69e1      	ldr	r1, [r4, #28]
   85080:	465a      	mov	r2, fp
   85082:	47b8      	blx	r7
   85084:	2800      	cmp	r0, #0
   85086:	f73f af47 	bgt.w	84f18 <__sfvwrite_r+0x138>
   8508a:	e77d      	b.n	84f88 <__sfvwrite_r+0x1a8>
   8508c:	4662      	mov	r2, ip
   8508e:	4659      	mov	r1, fp
   85090:	f8cd c004 	str.w	ip, [sp, #4]
   85094:	f000 fbd2 	bl	8583c <memmove>
   85098:	6823      	ldr	r3, [r4, #0]
   8509a:	f8dd c004 	ldr.w	ip, [sp, #4]
   8509e:	4648      	mov	r0, r9
   850a0:	4463      	add	r3, ip
   850a2:	6023      	str	r3, [r4, #0]
   850a4:	4621      	mov	r1, r4
   850a6:	f7ff fc45 	bl	84934 <_fflush_r>
   850aa:	f8dd c004 	ldr.w	ip, [sp, #4]
   850ae:	2800      	cmp	r0, #0
   850b0:	f47f af6a 	bne.w	84f88 <__sfvwrite_r+0x1a8>
   850b4:	4667      	mov	r7, ip
   850b6:	e794      	b.n	84fe2 <__sfvwrite_r+0x202>
   850b8:	4648      	mov	r0, r9
   850ba:	f000 fc27 	bl	8590c <_realloc_r>
   850be:	9b00      	ldr	r3, [sp, #0]
   850c0:	4682      	mov	sl, r0
   850c2:	2800      	cmp	r0, #0
   850c4:	f47f af12 	bne.w	84eec <__sfvwrite_r+0x10c>
   850c8:	4648      	mov	r0, r9
   850ca:	6921      	ldr	r1, [r4, #16]
   850cc:	f7ff fdb0 	bl	84c30 <_free_r>
   850d0:	89a3      	ldrh	r3, [r4, #12]
   850d2:	220c      	movs	r2, #12
   850d4:	f023 0380 	bic.w	r3, r3, #128	; 0x80
   850d8:	b29b      	uxth	r3, r3
   850da:	f8c9 2000 	str.w	r2, [r9]
   850de:	e754      	b.n	84f8a <__sfvwrite_r+0x1aa>
   850e0:	2301      	movs	r3, #1
   850e2:	f10a 0801 	add.w	r8, sl, #1
   850e6:	9300      	str	r3, [sp, #0]
   850e8:	e761      	b.n	84fae <__sfvwrite_r+0x1ce>
   850ea:	f04f 30ff 	mov.w	r0, #4294967295
   850ee:	e6ac      	b.n	84e4a <__sfvwrite_r+0x6a>
   850f0:	230c      	movs	r3, #12
   850f2:	f8c9 3000 	str.w	r3, [r9]
   850f6:	89a3      	ldrh	r3, [r4, #12]
   850f8:	e747      	b.n	84f8a <__sfvwrite_r+0x1aa>
   850fa:	bf00      	nop
   850fc:	7ffffc00 	.word	0x7ffffc00

00085100 <_fwalk>:
   85100:	e92d 41f0 	stmdb	sp!, {r4, r5, r6, r7, r8, lr}
   85104:	f510 7738 	adds.w	r7, r0, #736	; 0x2e0
   85108:	d01a      	beq.n	85140 <_fwalk+0x40>
   8510a:	4688      	mov	r8, r1
   8510c:	2600      	movs	r6, #0
   8510e:	687d      	ldr	r5, [r7, #4]
   85110:	68bc      	ldr	r4, [r7, #8]
   85112:	3d01      	subs	r5, #1
   85114:	d40e      	bmi.n	85134 <_fwalk+0x34>
   85116:	89a3      	ldrh	r3, [r4, #12]
   85118:	3d01      	subs	r5, #1
   8511a:	2b01      	cmp	r3, #1
   8511c:	d906      	bls.n	8512c <_fwalk+0x2c>
   8511e:	f9b4 300e 	ldrsh.w	r3, [r4, #14]
   85122:	3301      	adds	r3, #1
   85124:	d002      	beq.n	8512c <_fwalk+0x2c>
   85126:	4620      	mov	r0, r4
   85128:	47c0      	blx	r8
   8512a:	4306      	orrs	r6, r0
   8512c:	1c6b      	adds	r3, r5, #1
   8512e:	f104 0468 	add.w	r4, r4, #104	; 0x68
   85132:	d1f0      	bne.n	85116 <_fwalk+0x16>
   85134:	683f      	ldr	r7, [r7, #0]
   85136:	2f00      	cmp	r7, #0
   85138:	d1e9      	bne.n	8510e <_fwalk+0xe>
   8513a:	4630      	mov	r0, r6
   8513c:	e8bd 81f0 	ldmia.w	sp!, {r4, r5, r6, r7, r8, pc}
   85140:	463e      	mov	r6, r7
   85142:	4630      	mov	r0, r6
   85144:	e8bd 81f0 	ldmia.w	sp!, {r4, r5, r6, r7, r8, pc}

00085148 <_fwalk_reent>:
   85148:	e92d 43f8 	stmdb	sp!, {r3, r4, r5, r6, r7, r8, r9, lr}
   8514c:	f510 7638 	adds.w	r6, r0, #736	; 0x2e0
   85150:	d01e      	beq.n	85190 <_fwalk_reent+0x48>
   85152:	4688      	mov	r8, r1
   85154:	4607      	mov	r7, r0
   85156:	f04f 0900 	mov.w	r9, #0
   8515a:	6875      	ldr	r5, [r6, #4]
   8515c:	68b4      	ldr	r4, [r6, #8]
   8515e:	3d01      	subs	r5, #1
   85160:	d410      	bmi.n	85184 <_fwalk_reent+0x3c>
   85162:	89a3      	ldrh	r3, [r4, #12]
   85164:	3d01      	subs	r5, #1
   85166:	2b01      	cmp	r3, #1
   85168:	d908      	bls.n	8517c <_fwalk_reent+0x34>
   8516a:	f9b4 300e 	ldrsh.w	r3, [r4, #14]
   8516e:	3301      	adds	r3, #1
   85170:	d004      	beq.n	8517c <_fwalk_reent+0x34>
   85172:	4638      	mov	r0, r7
   85174:	4621      	mov	r1, r4
   85176:	47c0      	blx	r8
   85178:	ea49 0900 	orr.w	r9, r9, r0
   8517c:	1c6b      	adds	r3, r5, #1
   8517e:	f104 0468 	add.w	r4, r4, #104	; 0x68
   85182:	d1ee      	bne.n	85162 <_fwalk_reent+0x1a>
   85184:	6836      	ldr	r6, [r6, #0]
   85186:	2e00      	cmp	r6, #0
   85188:	d1e7      	bne.n	8515a <_fwalk_reent+0x12>
   8518a:	4648      	mov	r0, r9
   8518c:	e8bd 83f8 	ldmia.w	sp!, {r3, r4, r5, r6, r7, r8, r9, pc}
   85190:	46b1      	mov	r9, r6
   85192:	4648      	mov	r0, r9
   85194:	e8bd 83f8 	ldmia.w	sp!, {r3, r4, r5, r6, r7, r8, r9, pc}

00085198 <__locale_charset>:
   85198:	4800      	ldr	r0, [pc, #0]	; (8519c <__locale_charset+0x4>)
   8519a:	4770      	bx	lr
   8519c:	20070578 	.word	0x20070578

000851a0 <__locale_mb_cur_max>:
   851a0:	4b01      	ldr	r3, [pc, #4]	; (851a8 <__locale_mb_cur_max+0x8>)
   851a2:	6818      	ldr	r0, [r3, #0]
   851a4:	4770      	bx	lr
   851a6:	bf00      	nop
   851a8:	20070598 	.word	0x20070598

000851ac <__smakebuf_r>:
   851ac:	898b      	ldrh	r3, [r1, #12]
   851ae:	b29a      	uxth	r2, r3
   851b0:	f012 0f02 	tst.w	r2, #2
   851b4:	d13c      	bne.n	85230 <__smakebuf_r+0x84>
   851b6:	b5f0      	push	{r4, r5, r6, r7, lr}
   851b8:	460c      	mov	r4, r1
   851ba:	f9b1 100e 	ldrsh.w	r1, [r1, #14]
   851be:	b091      	sub	sp, #68	; 0x44
   851c0:	2900      	cmp	r1, #0
   851c2:	4605      	mov	r5, r0
   851c4:	db19      	blt.n	851fa <__smakebuf_r+0x4e>
   851c6:	aa01      	add	r2, sp, #4
   851c8:	f000 ffbc 	bl	86144 <_fstat_r>
   851cc:	2800      	cmp	r0, #0
   851ce:	db12      	blt.n	851f6 <__smakebuf_r+0x4a>
   851d0:	9b02      	ldr	r3, [sp, #8]
   851d2:	f403 4370 	and.w	r3, r3, #61440	; 0xf000
   851d6:	f5a3 5700 	sub.w	r7, r3, #8192	; 0x2000
   851da:	fab7 f787 	clz	r7, r7
   851de:	f5b3 4f00 	cmp.w	r3, #32768	; 0x8000
   851e2:	ea4f 1757 	mov.w	r7, r7, lsr #5
   851e6:	d02a      	beq.n	8523e <__smakebuf_r+0x92>
   851e8:	89a3      	ldrh	r3, [r4, #12]
   851ea:	f44f 6680 	mov.w	r6, #1024	; 0x400
   851ee:	f443 6300 	orr.w	r3, r3, #2048	; 0x800
   851f2:	81a3      	strh	r3, [r4, #12]
   851f4:	e00b      	b.n	8520e <__smakebuf_r+0x62>
   851f6:	89a3      	ldrh	r3, [r4, #12]
   851f8:	b29a      	uxth	r2, r3
   851fa:	f012 0f80 	tst.w	r2, #128	; 0x80
   851fe:	f443 6300 	orr.w	r3, r3, #2048	; 0x800
   85202:	81a3      	strh	r3, [r4, #12]
   85204:	bf0c      	ite	eq
   85206:	f44f 6680 	moveq.w	r6, #1024	; 0x400
   8520a:	2640      	movne	r6, #64	; 0x40
   8520c:	2700      	movs	r7, #0
   8520e:	4628      	mov	r0, r5
   85210:	4631      	mov	r1, r6
   85212:	f000 f843 	bl	8529c <_malloc_r>
   85216:	89a3      	ldrh	r3, [r4, #12]
   85218:	b340      	cbz	r0, 8526c <__smakebuf_r+0xc0>
   8521a:	4a1a      	ldr	r2, [pc, #104]	; (85284 <__smakebuf_r+0xd8>)
   8521c:	f043 0380 	orr.w	r3, r3, #128	; 0x80
   85220:	63ea      	str	r2, [r5, #60]	; 0x3c
   85222:	81a3      	strh	r3, [r4, #12]
   85224:	6020      	str	r0, [r4, #0]
   85226:	6120      	str	r0, [r4, #16]
   85228:	6166      	str	r6, [r4, #20]
   8522a:	b99f      	cbnz	r7, 85254 <__smakebuf_r+0xa8>
   8522c:	b011      	add	sp, #68	; 0x44
   8522e:	bdf0      	pop	{r4, r5, r6, r7, pc}
   85230:	f101 0343 	add.w	r3, r1, #67	; 0x43
   85234:	2201      	movs	r2, #1
   85236:	600b      	str	r3, [r1, #0]
   85238:	610b      	str	r3, [r1, #16]
   8523a:	614a      	str	r2, [r1, #20]
   8523c:	4770      	bx	lr
   8523e:	4b12      	ldr	r3, [pc, #72]	; (85288 <__smakebuf_r+0xdc>)
   85240:	6aa2      	ldr	r2, [r4, #40]	; 0x28
   85242:	429a      	cmp	r2, r3
   85244:	d1d0      	bne.n	851e8 <__smakebuf_r+0x3c>
   85246:	89a3      	ldrh	r3, [r4, #12]
   85248:	f44f 6680 	mov.w	r6, #1024	; 0x400
   8524c:	4333      	orrs	r3, r6
   8524e:	81a3      	strh	r3, [r4, #12]
   85250:	64e6      	str	r6, [r4, #76]	; 0x4c
   85252:	e7dc      	b.n	8520e <__smakebuf_r+0x62>
   85254:	4628      	mov	r0, r5
   85256:	f9b4 100e 	ldrsh.w	r1, [r4, #14]
   8525a:	f000 ff87 	bl	8616c <_isatty_r>
   8525e:	2800      	cmp	r0, #0
   85260:	d0e4      	beq.n	8522c <__smakebuf_r+0x80>
   85262:	89a3      	ldrh	r3, [r4, #12]
   85264:	f043 0301 	orr.w	r3, r3, #1
   85268:	81a3      	strh	r3, [r4, #12]
   8526a:	e7df      	b.n	8522c <__smakebuf_r+0x80>
   8526c:	059a      	lsls	r2, r3, #22
   8526e:	d4dd      	bmi.n	8522c <__smakebuf_r+0x80>
   85270:	f104 0243 	add.w	r2, r4, #67	; 0x43
   85274:	f043 0302 	orr.w	r3, r3, #2
   85278:	2101      	movs	r1, #1
   8527a:	81a3      	strh	r3, [r4, #12]
   8527c:	6022      	str	r2, [r4, #0]
   8527e:	6122      	str	r2, [r4, #16]
   85280:	6161      	str	r1, [r4, #20]
   85282:	e7d3      	b.n	8522c <__smakebuf_r+0x80>
   85284:	00084985 	.word	0x00084985
   85288:	00085e91 	.word	0x00085e91

0008528c <malloc>:
   8528c:	4b02      	ldr	r3, [pc, #8]	; (85298 <malloc+0xc>)
   8528e:	4601      	mov	r1, r0
   85290:	6818      	ldr	r0, [r3, #0]
   85292:	f000 b803 	b.w	8529c <_malloc_r>
   85296:	bf00      	nop
   85298:	20070570 	.word	0x20070570

0008529c <_malloc_r>:
   8529c:	e92d 4ff0 	stmdb	sp!, {r4, r5, r6, r7, r8, r9, sl, fp, lr}
   852a0:	f101 050b 	add.w	r5, r1, #11
   852a4:	2d16      	cmp	r5, #22
   852a6:	b083      	sub	sp, #12
   852a8:	4606      	mov	r6, r0
   852aa:	d927      	bls.n	852fc <_malloc_r+0x60>
   852ac:	f035 0507 	bics.w	r5, r5, #7
   852b0:	f100 80b6 	bmi.w	85420 <_malloc_r+0x184>
   852b4:	42a9      	cmp	r1, r5
   852b6:	f200 80b3 	bhi.w	85420 <_malloc_r+0x184>
   852ba:	f000 fb23 	bl	85904 <__malloc_lock>
   852be:	f5b5 7ffc 	cmp.w	r5, #504	; 0x1f8
   852c2:	d222      	bcs.n	8530a <_malloc_r+0x6e>
   852c4:	4fbc      	ldr	r7, [pc, #752]	; (855b8 <_malloc_r+0x31c>)
   852c6:	08e8      	lsrs	r0, r5, #3
   852c8:	eb07 03c0 	add.w	r3, r7, r0, lsl #3
   852cc:	68dc      	ldr	r4, [r3, #12]
   852ce:	429c      	cmp	r4, r3
   852d0:	f000 81bc 	beq.w	8564c <_malloc_r+0x3b0>
   852d4:	6863      	ldr	r3, [r4, #4]
   852d6:	68e1      	ldr	r1, [r4, #12]
   852d8:	f023 0303 	bic.w	r3, r3, #3
   852dc:	4423      	add	r3, r4
   852de:	685a      	ldr	r2, [r3, #4]
   852e0:	68a5      	ldr	r5, [r4, #8]
   852e2:	f042 0201 	orr.w	r2, r2, #1
   852e6:	60e9      	str	r1, [r5, #12]
   852e8:	4630      	mov	r0, r6
   852ea:	608d      	str	r5, [r1, #8]
   852ec:	605a      	str	r2, [r3, #4]
   852ee:	f000 fb0b 	bl	85908 <__malloc_unlock>
   852f2:	3408      	adds	r4, #8
   852f4:	4620      	mov	r0, r4
   852f6:	b003      	add	sp, #12
   852f8:	e8bd 8ff0 	ldmia.w	sp!, {r4, r5, r6, r7, r8, r9, sl, fp, pc}
   852fc:	2910      	cmp	r1, #16
   852fe:	f200 808f 	bhi.w	85420 <_malloc_r+0x184>
   85302:	f000 faff 	bl	85904 <__malloc_lock>
   85306:	2510      	movs	r5, #16
   85308:	e7dc      	b.n	852c4 <_malloc_r+0x28>
   8530a:	0a68      	lsrs	r0, r5, #9
   8530c:	f000 808f 	beq.w	8542e <_malloc_r+0x192>
   85310:	2804      	cmp	r0, #4
   85312:	f200 8147 	bhi.w	855a4 <_malloc_r+0x308>
   85316:	09a8      	lsrs	r0, r5, #6
   85318:	3038      	adds	r0, #56	; 0x38
   8531a:	0041      	lsls	r1, r0, #1
   8531c:	4fa6      	ldr	r7, [pc, #664]	; (855b8 <_malloc_r+0x31c>)
   8531e:	eb07 0181 	add.w	r1, r7, r1, lsl #2
   85322:	68cc      	ldr	r4, [r1, #12]
   85324:	42a1      	cmp	r1, r4
   85326:	d106      	bne.n	85336 <_malloc_r+0x9a>
   85328:	e00c      	b.n	85344 <_malloc_r+0xa8>
   8532a:	2a00      	cmp	r2, #0
   8532c:	f280 8082 	bge.w	85434 <_malloc_r+0x198>
   85330:	68e4      	ldr	r4, [r4, #12]
   85332:	42a1      	cmp	r1, r4
   85334:	d006      	beq.n	85344 <_malloc_r+0xa8>
   85336:	6863      	ldr	r3, [r4, #4]
   85338:	f023 0303 	bic.w	r3, r3, #3
   8533c:	1b5a      	subs	r2, r3, r5
   8533e:	2a0f      	cmp	r2, #15
   85340:	ddf3      	ble.n	8532a <_malloc_r+0x8e>
   85342:	3801      	subs	r0, #1
   85344:	3001      	adds	r0, #1
   85346:	499c      	ldr	r1, [pc, #624]	; (855b8 <_malloc_r+0x31c>)
   85348:	693c      	ldr	r4, [r7, #16]
   8534a:	f101 0e08 	add.w	lr, r1, #8
   8534e:	4574      	cmp	r4, lr
   85350:	f000 8171 	beq.w	85636 <_malloc_r+0x39a>
   85354:	6863      	ldr	r3, [r4, #4]
   85356:	f023 0303 	bic.w	r3, r3, #3
   8535a:	1b5a      	subs	r2, r3, r5
   8535c:	2a0f      	cmp	r2, #15
   8535e:	f300 8157 	bgt.w	85610 <_malloc_r+0x374>
   85362:	2a00      	cmp	r2, #0
   85364:	f8c1 e014 	str.w	lr, [r1, #20]
   85368:	f8c1 e010 	str.w	lr, [r1, #16]
   8536c:	da66      	bge.n	8543c <_malloc_r+0x1a0>
   8536e:	f5b3 7f00 	cmp.w	r3, #512	; 0x200
   85372:	f080 812d 	bcs.w	855d0 <_malloc_r+0x334>
   85376:	08db      	lsrs	r3, r3, #3
   85378:	eb01 08c3 	add.w	r8, r1, r3, lsl #3
   8537c:	ea4f 0ca3 	mov.w	ip, r3, asr #2
   85380:	684a      	ldr	r2, [r1, #4]
   85382:	2301      	movs	r3, #1
   85384:	fa03 f30c 	lsl.w	r3, r3, ip
   85388:	f8d8 c008 	ldr.w	ip, [r8, #8]
   8538c:	4313      	orrs	r3, r2
   8538e:	f8c4 c008 	str.w	ip, [r4, #8]
   85392:	f8c4 800c 	str.w	r8, [r4, #12]
   85396:	604b      	str	r3, [r1, #4]
   85398:	f8c8 4008 	str.w	r4, [r8, #8]
   8539c:	f8cc 400c 	str.w	r4, [ip, #12]
   853a0:	1082      	asrs	r2, r0, #2
   853a2:	2401      	movs	r4, #1
   853a4:	4094      	lsls	r4, r2
   853a6:	429c      	cmp	r4, r3
   853a8:	d855      	bhi.n	85456 <_malloc_r+0x1ba>
   853aa:	4223      	tst	r3, r4
   853ac:	d106      	bne.n	853bc <_malloc_r+0x120>
   853ae:	f020 0003 	bic.w	r0, r0, #3
   853b2:	0064      	lsls	r4, r4, #1
   853b4:	4223      	tst	r3, r4
   853b6:	f100 0004 	add.w	r0, r0, #4
   853ba:	d0fa      	beq.n	853b2 <_malloc_r+0x116>
   853bc:	eb07 08c0 	add.w	r8, r7, r0, lsl #3
   853c0:	46c4      	mov	ip, r8
   853c2:	4681      	mov	r9, r0
   853c4:	f8dc 300c 	ldr.w	r3, [ip, #12]
   853c8:	459c      	cmp	ip, r3
   853ca:	d107      	bne.n	853dc <_malloc_r+0x140>
   853cc:	e135      	b.n	8563a <_malloc_r+0x39e>
   853ce:	2900      	cmp	r1, #0
   853d0:	f280 8145 	bge.w	8565e <_malloc_r+0x3c2>
   853d4:	68db      	ldr	r3, [r3, #12]
   853d6:	459c      	cmp	ip, r3
   853d8:	f000 812f 	beq.w	8563a <_malloc_r+0x39e>
   853dc:	685a      	ldr	r2, [r3, #4]
   853de:	f022 0203 	bic.w	r2, r2, #3
   853e2:	1b51      	subs	r1, r2, r5
   853e4:	290f      	cmp	r1, #15
   853e6:	ddf2      	ble.n	853ce <_malloc_r+0x132>
   853e8:	461c      	mov	r4, r3
   853ea:	68da      	ldr	r2, [r3, #12]
   853ec:	f854 cf08 	ldr.w	ip, [r4, #8]!
   853f0:	f045 0901 	orr.w	r9, r5, #1
   853f4:	f041 0801 	orr.w	r8, r1, #1
   853f8:	441d      	add	r5, r3
   853fa:	f8c3 9004 	str.w	r9, [r3, #4]
   853fe:	4630      	mov	r0, r6
   85400:	f8cc 200c 	str.w	r2, [ip, #12]
   85404:	f8c2 c008 	str.w	ip, [r2, #8]
   85408:	617d      	str	r5, [r7, #20]
   8540a:	613d      	str	r5, [r7, #16]
   8540c:	f8c5 e00c 	str.w	lr, [r5, #12]
   85410:	f8c5 e008 	str.w	lr, [r5, #8]
   85414:	f8c5 8004 	str.w	r8, [r5, #4]
   85418:	5069      	str	r1, [r5, r1]
   8541a:	f000 fa75 	bl	85908 <__malloc_unlock>
   8541e:	e769      	b.n	852f4 <_malloc_r+0x58>
   85420:	2400      	movs	r4, #0
   85422:	4620      	mov	r0, r4
   85424:	230c      	movs	r3, #12
   85426:	6033      	str	r3, [r6, #0]
   85428:	b003      	add	sp, #12
   8542a:	e8bd 8ff0 	ldmia.w	sp!, {r4, r5, r6, r7, r8, r9, sl, fp, pc}
   8542e:	217e      	movs	r1, #126	; 0x7e
   85430:	203f      	movs	r0, #63	; 0x3f
   85432:	e773      	b.n	8531c <_malloc_r+0x80>
   85434:	4423      	add	r3, r4
   85436:	685a      	ldr	r2, [r3, #4]
   85438:	68e1      	ldr	r1, [r4, #12]
   8543a:	e751      	b.n	852e0 <_malloc_r+0x44>
   8543c:	4423      	add	r3, r4
   8543e:	685a      	ldr	r2, [r3, #4]
   85440:	4630      	mov	r0, r6
   85442:	f042 0201 	orr.w	r2, r2, #1
   85446:	605a      	str	r2, [r3, #4]
   85448:	3408      	adds	r4, #8
   8544a:	f000 fa5d 	bl	85908 <__malloc_unlock>
   8544e:	4620      	mov	r0, r4
   85450:	b003      	add	sp, #12
   85452:	e8bd 8ff0 	ldmia.w	sp!, {r4, r5, r6, r7, r8, r9, sl, fp, pc}
   85456:	68bc      	ldr	r4, [r7, #8]
   85458:	6863      	ldr	r3, [r4, #4]
   8545a:	f023 0803 	bic.w	r8, r3, #3
   8545e:	4545      	cmp	r5, r8
   85460:	d804      	bhi.n	8546c <_malloc_r+0x1d0>
   85462:	ebc5 0308 	rsb	r3, r5, r8
   85466:	2b0f      	cmp	r3, #15
   85468:	f300 808c 	bgt.w	85584 <_malloc_r+0x2e8>
   8546c:	4b53      	ldr	r3, [pc, #332]	; (855bc <_malloc_r+0x320>)
   8546e:	f8df a15c 	ldr.w	sl, [pc, #348]	; 855cc <_malloc_r+0x330>
   85472:	681a      	ldr	r2, [r3, #0]
   85474:	f8da 3000 	ldr.w	r3, [sl]
   85478:	442a      	add	r2, r5
   8547a:	3301      	adds	r3, #1
   8547c:	eb04 0b08 	add.w	fp, r4, r8
   85480:	f000 8151 	beq.w	85726 <_malloc_r+0x48a>
   85484:	f502 5280 	add.w	r2, r2, #4096	; 0x1000
   85488:	320f      	adds	r2, #15
   8548a:	f422 627f 	bic.w	r2, r2, #4080	; 0xff0
   8548e:	f022 020f 	bic.w	r2, r2, #15
   85492:	4611      	mov	r1, r2
   85494:	4630      	mov	r0, r6
   85496:	9201      	str	r2, [sp, #4]
   85498:	f000 fcba 	bl	85e10 <_sbrk_r>
   8549c:	f1b0 3fff 	cmp.w	r0, #4294967295
   854a0:	4681      	mov	r9, r0
   854a2:	9a01      	ldr	r2, [sp, #4]
   854a4:	f000 8148 	beq.w	85738 <_malloc_r+0x49c>
   854a8:	4583      	cmp	fp, r0
   854aa:	f200 80ef 	bhi.w	8568c <_malloc_r+0x3f0>
   854ae:	4b44      	ldr	r3, [pc, #272]	; (855c0 <_malloc_r+0x324>)
   854b0:	45cb      	cmp	fp, r9
   854b2:	6819      	ldr	r1, [r3, #0]
   854b4:	4411      	add	r1, r2
   854b6:	6019      	str	r1, [r3, #0]
   854b8:	f000 8143 	beq.w	85742 <_malloc_r+0x4a6>
   854bc:	f8da 0000 	ldr.w	r0, [sl]
   854c0:	f8df e108 	ldr.w	lr, [pc, #264]	; 855cc <_malloc_r+0x330>
   854c4:	3001      	adds	r0, #1
   854c6:	bf1b      	ittet	ne
   854c8:	ebcb 0b09 	rsbne	fp, fp, r9
   854cc:	4459      	addne	r1, fp
   854ce:	f8ce 9000 	streq.w	r9, [lr]
   854d2:	6019      	strne	r1, [r3, #0]
   854d4:	f019 0107 	ands.w	r1, r9, #7
   854d8:	f000 8108 	beq.w	856ec <_malloc_r+0x450>
   854dc:	f1c1 0008 	rsb	r0, r1, #8
   854e0:	f5c1 5180 	rsb	r1, r1, #4096	; 0x1000
   854e4:	4481      	add	r9, r0
   854e6:	3108      	adds	r1, #8
   854e8:	444a      	add	r2, r9
   854ea:	f3c2 020b 	ubfx	r2, r2, #0, #12
   854ee:	ebc2 0a01 	rsb	sl, r2, r1
   854f2:	4651      	mov	r1, sl
   854f4:	4630      	mov	r0, r6
   854f6:	9301      	str	r3, [sp, #4]
   854f8:	f000 fc8a 	bl	85e10 <_sbrk_r>
   854fc:	1c43      	adds	r3, r0, #1
   854fe:	9b01      	ldr	r3, [sp, #4]
   85500:	f000 812d 	beq.w	8575e <_malloc_r+0x4c2>
   85504:	ebc9 0200 	rsb	r2, r9, r0
   85508:	4452      	add	r2, sl
   8550a:	f042 0201 	orr.w	r2, r2, #1
   8550e:	6819      	ldr	r1, [r3, #0]
   85510:	42bc      	cmp	r4, r7
   85512:	4451      	add	r1, sl
   85514:	f8c7 9008 	str.w	r9, [r7, #8]
   85518:	6019      	str	r1, [r3, #0]
   8551a:	f8c9 2004 	str.w	r2, [r9, #4]
   8551e:	f8df a0a0 	ldr.w	sl, [pc, #160]	; 855c0 <_malloc_r+0x324>
   85522:	d016      	beq.n	85552 <_malloc_r+0x2b6>
   85524:	f1b8 0f0f 	cmp.w	r8, #15
   85528:	f240 80ef 	bls.w	8570a <_malloc_r+0x46e>
   8552c:	6862      	ldr	r2, [r4, #4]
   8552e:	f1a8 030c 	sub.w	r3, r8, #12
   85532:	f023 0307 	bic.w	r3, r3, #7
   85536:	f002 0201 	and.w	r2, r2, #1
   8553a:	18e0      	adds	r0, r4, r3
   8553c:	f04f 0e05 	mov.w	lr, #5
   85540:	431a      	orrs	r2, r3
   85542:	2b0f      	cmp	r3, #15
   85544:	6062      	str	r2, [r4, #4]
   85546:	f8c0 e004 	str.w	lr, [r0, #4]
   8554a:	f8c0 e008 	str.w	lr, [r0, #8]
   8554e:	f200 810a 	bhi.w	85766 <_malloc_r+0x4ca>
   85552:	4b1c      	ldr	r3, [pc, #112]	; (855c4 <_malloc_r+0x328>)
   85554:	68bc      	ldr	r4, [r7, #8]
   85556:	681a      	ldr	r2, [r3, #0]
   85558:	4291      	cmp	r1, r2
   8555a:	bf88      	it	hi
   8555c:	6019      	strhi	r1, [r3, #0]
   8555e:	4b1a      	ldr	r3, [pc, #104]	; (855c8 <_malloc_r+0x32c>)
   85560:	681a      	ldr	r2, [r3, #0]
   85562:	4291      	cmp	r1, r2
   85564:	6862      	ldr	r2, [r4, #4]
   85566:	bf88      	it	hi
   85568:	6019      	strhi	r1, [r3, #0]
   8556a:	f022 0203 	bic.w	r2, r2, #3
   8556e:	4295      	cmp	r5, r2
   85570:	eba2 0305 	sub.w	r3, r2, r5
   85574:	d801      	bhi.n	8557a <_malloc_r+0x2de>
   85576:	2b0f      	cmp	r3, #15
   85578:	dc04      	bgt.n	85584 <_malloc_r+0x2e8>
   8557a:	4630      	mov	r0, r6
   8557c:	f000 f9c4 	bl	85908 <__malloc_unlock>
   85580:	2400      	movs	r4, #0
   85582:	e6b7      	b.n	852f4 <_malloc_r+0x58>
   85584:	f045 0201 	orr.w	r2, r5, #1
   85588:	f043 0301 	orr.w	r3, r3, #1
   8558c:	4425      	add	r5, r4
   8558e:	6062      	str	r2, [r4, #4]
   85590:	4630      	mov	r0, r6
   85592:	60bd      	str	r5, [r7, #8]
   85594:	3408      	adds	r4, #8
   85596:	606b      	str	r3, [r5, #4]
   85598:	f000 f9b6 	bl	85908 <__malloc_unlock>
   8559c:	4620      	mov	r0, r4
   8559e:	b003      	add	sp, #12
   855a0:	e8bd 8ff0 	ldmia.w	sp!, {r4, r5, r6, r7, r8, r9, sl, fp, pc}
   855a4:	2814      	cmp	r0, #20
   855a6:	d969      	bls.n	8567c <_malloc_r+0x3e0>
   855a8:	2854      	cmp	r0, #84	; 0x54
   855aa:	f200 8098 	bhi.w	856de <_malloc_r+0x442>
   855ae:	0b28      	lsrs	r0, r5, #12
   855b0:	306e      	adds	r0, #110	; 0x6e
   855b2:	0041      	lsls	r1, r0, #1
   855b4:	e6b2      	b.n	8531c <_malloc_r+0x80>
   855b6:	bf00      	nop
   855b8:	2007059c 	.word	0x2007059c
   855bc:	20078d9c 	.word	0x20078d9c
   855c0:	20078da0 	.word	0x20078da0
   855c4:	20078d98 	.word	0x20078d98
   855c8:	20078d94 	.word	0x20078d94
   855cc:	200709a8 	.word	0x200709a8
   855d0:	0a5a      	lsrs	r2, r3, #9
   855d2:	2a04      	cmp	r2, #4
   855d4:	d955      	bls.n	85682 <_malloc_r+0x3e6>
   855d6:	2a14      	cmp	r2, #20
   855d8:	f200 80a7 	bhi.w	8572a <_malloc_r+0x48e>
   855dc:	325b      	adds	r2, #91	; 0x5b
   855de:	ea4f 0c42 	mov.w	ip, r2, lsl #1
   855e2:	eb07 0c8c 	add.w	ip, r7, ip, lsl #2
   855e6:	f8dc 1008 	ldr.w	r1, [ip, #8]
   855ea:	f8df 81b8 	ldr.w	r8, [pc, #440]	; 857a4 <_malloc_r+0x508>
   855ee:	4561      	cmp	r1, ip
   855f0:	d07f      	beq.n	856f2 <_malloc_r+0x456>
   855f2:	684a      	ldr	r2, [r1, #4]
   855f4:	f022 0203 	bic.w	r2, r2, #3
   855f8:	4293      	cmp	r3, r2
   855fa:	d202      	bcs.n	85602 <_malloc_r+0x366>
   855fc:	6889      	ldr	r1, [r1, #8]
   855fe:	458c      	cmp	ip, r1
   85600:	d1f7      	bne.n	855f2 <_malloc_r+0x356>
   85602:	68ca      	ldr	r2, [r1, #12]
   85604:	687b      	ldr	r3, [r7, #4]
   85606:	60e2      	str	r2, [r4, #12]
   85608:	60a1      	str	r1, [r4, #8]
   8560a:	6094      	str	r4, [r2, #8]
   8560c:	60cc      	str	r4, [r1, #12]
   8560e:	e6c7      	b.n	853a0 <_malloc_r+0x104>
   85610:	f045 0701 	orr.w	r7, r5, #1
   85614:	f042 0301 	orr.w	r3, r2, #1
   85618:	4425      	add	r5, r4
   8561a:	6067      	str	r7, [r4, #4]
   8561c:	4630      	mov	r0, r6
   8561e:	614d      	str	r5, [r1, #20]
   85620:	610d      	str	r5, [r1, #16]
   85622:	f8c5 e00c 	str.w	lr, [r5, #12]
   85626:	f8c5 e008 	str.w	lr, [r5, #8]
   8562a:	606b      	str	r3, [r5, #4]
   8562c:	50aa      	str	r2, [r5, r2]
   8562e:	3408      	adds	r4, #8
   85630:	f000 f96a 	bl	85908 <__malloc_unlock>
   85634:	e65e      	b.n	852f4 <_malloc_r+0x58>
   85636:	684b      	ldr	r3, [r1, #4]
   85638:	e6b2      	b.n	853a0 <_malloc_r+0x104>
   8563a:	f109 0901 	add.w	r9, r9, #1
   8563e:	f019 0f03 	tst.w	r9, #3
   85642:	f10c 0c08 	add.w	ip, ip, #8
   85646:	f47f aebd 	bne.w	853c4 <_malloc_r+0x128>
   8564a:	e02c      	b.n	856a6 <_malloc_r+0x40a>
   8564c:	f104 0308 	add.w	r3, r4, #8
   85650:	6964      	ldr	r4, [r4, #20]
   85652:	42a3      	cmp	r3, r4
   85654:	bf08      	it	eq
   85656:	3002      	addeq	r0, #2
   85658:	f43f ae75 	beq.w	85346 <_malloc_r+0xaa>
   8565c:	e63a      	b.n	852d4 <_malloc_r+0x38>
   8565e:	461c      	mov	r4, r3
   85660:	441a      	add	r2, r3
   85662:	6851      	ldr	r1, [r2, #4]
   85664:	68db      	ldr	r3, [r3, #12]
   85666:	f854 5f08 	ldr.w	r5, [r4, #8]!
   8566a:	f041 0101 	orr.w	r1, r1, #1
   8566e:	6051      	str	r1, [r2, #4]
   85670:	4630      	mov	r0, r6
   85672:	60eb      	str	r3, [r5, #12]
   85674:	609d      	str	r5, [r3, #8]
   85676:	f000 f947 	bl	85908 <__malloc_unlock>
   8567a:	e63b      	b.n	852f4 <_malloc_r+0x58>
   8567c:	305b      	adds	r0, #91	; 0x5b
   8567e:	0041      	lsls	r1, r0, #1
   85680:	e64c      	b.n	8531c <_malloc_r+0x80>
   85682:	099a      	lsrs	r2, r3, #6
   85684:	3238      	adds	r2, #56	; 0x38
   85686:	ea4f 0c42 	mov.w	ip, r2, lsl #1
   8568a:	e7aa      	b.n	855e2 <_malloc_r+0x346>
   8568c:	42bc      	cmp	r4, r7
   8568e:	4b45      	ldr	r3, [pc, #276]	; (857a4 <_malloc_r+0x508>)
   85690:	f43f af0d 	beq.w	854ae <_malloc_r+0x212>
   85694:	689c      	ldr	r4, [r3, #8]
   85696:	6862      	ldr	r2, [r4, #4]
   85698:	f022 0203 	bic.w	r2, r2, #3
   8569c:	e767      	b.n	8556e <_malloc_r+0x2d2>
   8569e:	f8d8 8000 	ldr.w	r8, [r8]
   856a2:	4598      	cmp	r8, r3
   856a4:	d17c      	bne.n	857a0 <_malloc_r+0x504>
   856a6:	f010 0f03 	tst.w	r0, #3
   856aa:	f1a8 0308 	sub.w	r3, r8, #8
   856ae:	f100 30ff 	add.w	r0, r0, #4294967295
   856b2:	d1f4      	bne.n	8569e <_malloc_r+0x402>
   856b4:	687b      	ldr	r3, [r7, #4]
   856b6:	ea23 0304 	bic.w	r3, r3, r4
   856ba:	607b      	str	r3, [r7, #4]
   856bc:	0064      	lsls	r4, r4, #1
   856be:	429c      	cmp	r4, r3
   856c0:	f63f aec9 	bhi.w	85456 <_malloc_r+0x1ba>
   856c4:	2c00      	cmp	r4, #0
   856c6:	f43f aec6 	beq.w	85456 <_malloc_r+0x1ba>
   856ca:	4223      	tst	r3, r4
   856cc:	4648      	mov	r0, r9
   856ce:	f47f ae75 	bne.w	853bc <_malloc_r+0x120>
   856d2:	0064      	lsls	r4, r4, #1
   856d4:	4223      	tst	r3, r4
   856d6:	f100 0004 	add.w	r0, r0, #4
   856da:	d0fa      	beq.n	856d2 <_malloc_r+0x436>
   856dc:	e66e      	b.n	853bc <_malloc_r+0x120>
   856de:	f5b0 7faa 	cmp.w	r0, #340	; 0x154
   856e2:	d818      	bhi.n	85716 <_malloc_r+0x47a>
   856e4:	0be8      	lsrs	r0, r5, #15
   856e6:	3077      	adds	r0, #119	; 0x77
   856e8:	0041      	lsls	r1, r0, #1
   856ea:	e617      	b.n	8531c <_malloc_r+0x80>
   856ec:	f44f 5180 	mov.w	r1, #4096	; 0x1000
   856f0:	e6fa      	b.n	854e8 <_malloc_r+0x24c>
   856f2:	f8d8 3004 	ldr.w	r3, [r8, #4]
   856f6:	1092      	asrs	r2, r2, #2
   856f8:	f04f 0c01 	mov.w	ip, #1
   856fc:	fa0c f202 	lsl.w	r2, ip, r2
   85700:	4313      	orrs	r3, r2
   85702:	f8c8 3004 	str.w	r3, [r8, #4]
   85706:	460a      	mov	r2, r1
   85708:	e77d      	b.n	85606 <_malloc_r+0x36a>
   8570a:	2301      	movs	r3, #1
   8570c:	f8c9 3004 	str.w	r3, [r9, #4]
   85710:	464c      	mov	r4, r9
   85712:	2200      	movs	r2, #0
   85714:	e72b      	b.n	8556e <_malloc_r+0x2d2>
   85716:	f240 5354 	movw	r3, #1364	; 0x554
   8571a:	4298      	cmp	r0, r3
   8571c:	d81c      	bhi.n	85758 <_malloc_r+0x4bc>
   8571e:	0ca8      	lsrs	r0, r5, #18
   85720:	307c      	adds	r0, #124	; 0x7c
   85722:	0041      	lsls	r1, r0, #1
   85724:	e5fa      	b.n	8531c <_malloc_r+0x80>
   85726:	3210      	adds	r2, #16
   85728:	e6b3      	b.n	85492 <_malloc_r+0x1f6>
   8572a:	2a54      	cmp	r2, #84	; 0x54
   8572c:	d823      	bhi.n	85776 <_malloc_r+0x4da>
   8572e:	0b1a      	lsrs	r2, r3, #12
   85730:	326e      	adds	r2, #110	; 0x6e
   85732:	ea4f 0c42 	mov.w	ip, r2, lsl #1
   85736:	e754      	b.n	855e2 <_malloc_r+0x346>
   85738:	68bc      	ldr	r4, [r7, #8]
   8573a:	6862      	ldr	r2, [r4, #4]
   8573c:	f022 0203 	bic.w	r2, r2, #3
   85740:	e715      	b.n	8556e <_malloc_r+0x2d2>
   85742:	f3cb 000b 	ubfx	r0, fp, #0, #12
   85746:	2800      	cmp	r0, #0
   85748:	f47f aeb8 	bne.w	854bc <_malloc_r+0x220>
   8574c:	4442      	add	r2, r8
   8574e:	68bb      	ldr	r3, [r7, #8]
   85750:	f042 0201 	orr.w	r2, r2, #1
   85754:	605a      	str	r2, [r3, #4]
   85756:	e6fc      	b.n	85552 <_malloc_r+0x2b6>
   85758:	21fc      	movs	r1, #252	; 0xfc
   8575a:	207e      	movs	r0, #126	; 0x7e
   8575c:	e5de      	b.n	8531c <_malloc_r+0x80>
   8575e:	2201      	movs	r2, #1
   85760:	f04f 0a00 	mov.w	sl, #0
   85764:	e6d3      	b.n	8550e <_malloc_r+0x272>
   85766:	f104 0108 	add.w	r1, r4, #8
   8576a:	4630      	mov	r0, r6
   8576c:	f7ff fa60 	bl	84c30 <_free_r>
   85770:	f8da 1000 	ldr.w	r1, [sl]
   85774:	e6ed      	b.n	85552 <_malloc_r+0x2b6>
   85776:	f5b2 7faa 	cmp.w	r2, #340	; 0x154
   8577a:	d804      	bhi.n	85786 <_malloc_r+0x4ea>
   8577c:	0bda      	lsrs	r2, r3, #15
   8577e:	3277      	adds	r2, #119	; 0x77
   85780:	ea4f 0c42 	mov.w	ip, r2, lsl #1
   85784:	e72d      	b.n	855e2 <_malloc_r+0x346>
   85786:	f240 5154 	movw	r1, #1364	; 0x554
   8578a:	428a      	cmp	r2, r1
   8578c:	d804      	bhi.n	85798 <_malloc_r+0x4fc>
   8578e:	0c9a      	lsrs	r2, r3, #18
   85790:	327c      	adds	r2, #124	; 0x7c
   85792:	ea4f 0c42 	mov.w	ip, r2, lsl #1
   85796:	e724      	b.n	855e2 <_malloc_r+0x346>
   85798:	f04f 0cfc 	mov.w	ip, #252	; 0xfc
   8579c:	227e      	movs	r2, #126	; 0x7e
   8579e:	e720      	b.n	855e2 <_malloc_r+0x346>
   857a0:	687b      	ldr	r3, [r7, #4]
   857a2:	e78b      	b.n	856bc <_malloc_r+0x420>
   857a4:	2007059c 	.word	0x2007059c

000857a8 <memchr>:
   857a8:	0783      	lsls	r3, r0, #30
   857aa:	b470      	push	{r4, r5, r6}
   857ac:	b2c9      	uxtb	r1, r1
   857ae:	d040      	beq.n	85832 <memchr+0x8a>
   857b0:	1e54      	subs	r4, r2, #1
   857b2:	2a00      	cmp	r2, #0
   857b4:	d03f      	beq.n	85836 <memchr+0x8e>
   857b6:	7803      	ldrb	r3, [r0, #0]
   857b8:	428b      	cmp	r3, r1
   857ba:	bf18      	it	ne
   857bc:	1c43      	addne	r3, r0, #1
   857be:	d105      	bne.n	857cc <memchr+0x24>
   857c0:	e01c      	b.n	857fc <memchr+0x54>
   857c2:	b1ec      	cbz	r4, 85800 <memchr+0x58>
   857c4:	7802      	ldrb	r2, [r0, #0]
   857c6:	3c01      	subs	r4, #1
   857c8:	428a      	cmp	r2, r1
   857ca:	d017      	beq.n	857fc <memchr+0x54>
   857cc:	f013 0f03 	tst.w	r3, #3
   857d0:	4618      	mov	r0, r3
   857d2:	f103 0301 	add.w	r3, r3, #1
   857d6:	d1f4      	bne.n	857c2 <memchr+0x1a>
   857d8:	2c03      	cmp	r4, #3
   857da:	d814      	bhi.n	85806 <memchr+0x5e>
   857dc:	b184      	cbz	r4, 85800 <memchr+0x58>
   857de:	7803      	ldrb	r3, [r0, #0]
   857e0:	428b      	cmp	r3, r1
   857e2:	d00b      	beq.n	857fc <memchr+0x54>
   857e4:	1905      	adds	r5, r0, r4
   857e6:	1c43      	adds	r3, r0, #1
   857e8:	e002      	b.n	857f0 <memchr+0x48>
   857ea:	7802      	ldrb	r2, [r0, #0]
   857ec:	428a      	cmp	r2, r1
   857ee:	d005      	beq.n	857fc <memchr+0x54>
   857f0:	42ab      	cmp	r3, r5
   857f2:	4618      	mov	r0, r3
   857f4:	f103 0301 	add.w	r3, r3, #1
   857f8:	d1f7      	bne.n	857ea <memchr+0x42>
   857fa:	2000      	movs	r0, #0
   857fc:	bc70      	pop	{r4, r5, r6}
   857fe:	4770      	bx	lr
   85800:	4620      	mov	r0, r4
   85802:	bc70      	pop	{r4, r5, r6}
   85804:	4770      	bx	lr
   85806:	4602      	mov	r2, r0
   85808:	ea41 2601 	orr.w	r6, r1, r1, lsl #8
   8580c:	ea46 4606 	orr.w	r6, r6, r6, lsl #16
   85810:	6813      	ldr	r3, [r2, #0]
   85812:	4610      	mov	r0, r2
   85814:	4073      	eors	r3, r6
   85816:	f1a3 3501 	sub.w	r5, r3, #16843009	; 0x1010101
   8581a:	ea25 0303 	bic.w	r3, r5, r3
   8581e:	f013 3f80 	tst.w	r3, #2155905152	; 0x80808080
   85822:	f102 0204 	add.w	r2, r2, #4
   85826:	d1d9      	bne.n	857dc <memchr+0x34>
   85828:	3c04      	subs	r4, #4
   8582a:	2c03      	cmp	r4, #3
   8582c:	4610      	mov	r0, r2
   8582e:	d8ef      	bhi.n	85810 <memchr+0x68>
   85830:	e7d4      	b.n	857dc <memchr+0x34>
   85832:	4614      	mov	r4, r2
   85834:	e7d0      	b.n	857d8 <memchr+0x30>
   85836:	4610      	mov	r0, r2
   85838:	e7e0      	b.n	857fc <memchr+0x54>
   8583a:	bf00      	nop

0008583c <memmove>:
   8583c:	4288      	cmp	r0, r1
   8583e:	b5f0      	push	{r4, r5, r6, r7, lr}
   85840:	d90d      	bls.n	8585e <memmove+0x22>
   85842:	188b      	adds	r3, r1, r2
   85844:	4298      	cmp	r0, r3
   85846:	d20a      	bcs.n	8585e <memmove+0x22>
   85848:	1881      	adds	r1, r0, r2
   8584a:	2a00      	cmp	r2, #0
   8584c:	d054      	beq.n	858f8 <memmove+0xbc>
   8584e:	1a9a      	subs	r2, r3, r2
   85850:	f813 4d01 	ldrb.w	r4, [r3, #-1]!
   85854:	4293      	cmp	r3, r2
   85856:	f801 4d01 	strb.w	r4, [r1, #-1]!
   8585a:	d1f9      	bne.n	85850 <memmove+0x14>
   8585c:	bdf0      	pop	{r4, r5, r6, r7, pc}
   8585e:	2a0f      	cmp	r2, #15
   85860:	d948      	bls.n	858f4 <memmove+0xb8>
   85862:	ea40 0301 	orr.w	r3, r0, r1
   85866:	079b      	lsls	r3, r3, #30
   85868:	d147      	bne.n	858fa <memmove+0xbe>
   8586a:	4615      	mov	r5, r2
   8586c:	f100 0410 	add.w	r4, r0, #16
   85870:	f101 0310 	add.w	r3, r1, #16
   85874:	f853 6c10 	ldr.w	r6, [r3, #-16]
   85878:	3d10      	subs	r5, #16
   8587a:	f844 6c10 	str.w	r6, [r4, #-16]
   8587e:	f853 6c0c 	ldr.w	r6, [r3, #-12]
   85882:	2d0f      	cmp	r5, #15
   85884:	f844 6c0c 	str.w	r6, [r4, #-12]
   85888:	f853 6c08 	ldr.w	r6, [r3, #-8]
   8588c:	f104 0410 	add.w	r4, r4, #16
   85890:	f844 6c18 	str.w	r6, [r4, #-24]
   85894:	f853 6c04 	ldr.w	r6, [r3, #-4]
   85898:	f103 0310 	add.w	r3, r3, #16
   8589c:	f844 6c14 	str.w	r6, [r4, #-20]
   858a0:	d8e8      	bhi.n	85874 <memmove+0x38>
   858a2:	f1a2 0310 	sub.w	r3, r2, #16
   858a6:	f023 030f 	bic.w	r3, r3, #15
   858aa:	f002 0e0f 	and.w	lr, r2, #15
   858ae:	3310      	adds	r3, #16
   858b0:	f1be 0f03 	cmp.w	lr, #3
   858b4:	4419      	add	r1, r3
   858b6:	4403      	add	r3, r0
   858b8:	d921      	bls.n	858fe <memmove+0xc2>
   858ba:	460e      	mov	r6, r1
   858bc:	4674      	mov	r4, lr
   858be:	1f1d      	subs	r5, r3, #4
   858c0:	f856 7b04 	ldr.w	r7, [r6], #4
   858c4:	3c04      	subs	r4, #4
   858c6:	2c03      	cmp	r4, #3
   858c8:	f845 7f04 	str.w	r7, [r5, #4]!
   858cc:	d8f8      	bhi.n	858c0 <memmove+0x84>
   858ce:	f1ae 0404 	sub.w	r4, lr, #4
   858d2:	f024 0403 	bic.w	r4, r4, #3
   858d6:	3404      	adds	r4, #4
   858d8:	4423      	add	r3, r4
   858da:	4421      	add	r1, r4
   858dc:	f002 0203 	and.w	r2, r2, #3
   858e0:	b152      	cbz	r2, 858f8 <memmove+0xbc>
   858e2:	3b01      	subs	r3, #1
   858e4:	440a      	add	r2, r1
   858e6:	f811 4b01 	ldrb.w	r4, [r1], #1
   858ea:	4291      	cmp	r1, r2
   858ec:	f803 4f01 	strb.w	r4, [r3, #1]!
   858f0:	d1f9      	bne.n	858e6 <memmove+0xaa>
   858f2:	bdf0      	pop	{r4, r5, r6, r7, pc}
   858f4:	4603      	mov	r3, r0
   858f6:	e7f3      	b.n	858e0 <memmove+0xa4>
   858f8:	bdf0      	pop	{r4, r5, r6, r7, pc}
   858fa:	4603      	mov	r3, r0
   858fc:	e7f1      	b.n	858e2 <memmove+0xa6>
   858fe:	4672      	mov	r2, lr
   85900:	e7ee      	b.n	858e0 <memmove+0xa4>
   85902:	bf00      	nop

00085904 <__malloc_lock>:
   85904:	4770      	bx	lr
   85906:	bf00      	nop

00085908 <__malloc_unlock>:
   85908:	4770      	bx	lr
   8590a:	bf00      	nop

0008590c <_realloc_r>:
   8590c:	e92d 4ff0 	stmdb	sp!, {r4, r5, r6, r7, r8, r9, sl, fp, lr}
   85910:	4617      	mov	r7, r2
   85912:	b083      	sub	sp, #12
   85914:	460d      	mov	r5, r1
   85916:	2900      	cmp	r1, #0
   85918:	f000 80e2 	beq.w	85ae0 <_realloc_r+0x1d4>
   8591c:	4681      	mov	r9, r0
   8591e:	f107 040b 	add.w	r4, r7, #11
   85922:	f7ff ffef 	bl	85904 <__malloc_lock>
   85926:	f855 3c04 	ldr.w	r3, [r5, #-4]
   8592a:	2c16      	cmp	r4, #22
   8592c:	f023 0603 	bic.w	r6, r3, #3
   85930:	f1a5 0808 	sub.w	r8, r5, #8
   85934:	d84b      	bhi.n	859ce <_realloc_r+0xc2>
   85936:	2210      	movs	r2, #16
   85938:	4614      	mov	r4, r2
   8593a:	42a7      	cmp	r7, r4
   8593c:	d84c      	bhi.n	859d8 <_realloc_r+0xcc>
   8593e:	4296      	cmp	r6, r2
   85940:	da51      	bge.n	859e6 <_realloc_r+0xda>
   85942:	f8df b3a4 	ldr.w	fp, [pc, #932]	; 85ce8 <_realloc_r+0x3dc>
   85946:	eb08 0106 	add.w	r1, r8, r6
   8594a:	f8db 0008 	ldr.w	r0, [fp, #8]
   8594e:	4288      	cmp	r0, r1
   85950:	f000 80d3 	beq.w	85afa <_realloc_r+0x1ee>
   85954:	6848      	ldr	r0, [r1, #4]
   85956:	f020 0e01 	bic.w	lr, r0, #1
   8595a:	448e      	add	lr, r1
   8595c:	f8de e004 	ldr.w	lr, [lr, #4]
   85960:	f01e 0f01 	tst.w	lr, #1
   85964:	d154      	bne.n	85a10 <_realloc_r+0x104>
   85966:	f020 0003 	bic.w	r0, r0, #3
   8596a:	4430      	add	r0, r6
   8596c:	4290      	cmp	r0, r2
   8596e:	f280 80bd 	bge.w	85aec <_realloc_r+0x1e0>
   85972:	07db      	lsls	r3, r3, #31
   85974:	f100 8090 	bmi.w	85a98 <_realloc_r+0x18c>
   85978:	f855 3c08 	ldr.w	r3, [r5, #-8]
   8597c:	ebc3 0a08 	rsb	sl, r3, r8
   85980:	f8da 3004 	ldr.w	r3, [sl, #4]
   85984:	f023 0303 	bic.w	r3, r3, #3
   85988:	eb00 0e03 	add.w	lr, r0, r3
   8598c:	4596      	cmp	lr, r2
   8598e:	db49      	blt.n	85a24 <_realloc_r+0x118>
   85990:	4657      	mov	r7, sl
   85992:	68cb      	ldr	r3, [r1, #12]
   85994:	6889      	ldr	r1, [r1, #8]
   85996:	1f32      	subs	r2, r6, #4
   85998:	60cb      	str	r3, [r1, #12]
   8599a:	6099      	str	r1, [r3, #8]
   8599c:	f857 1f08 	ldr.w	r1, [r7, #8]!
   859a0:	f8da 300c 	ldr.w	r3, [sl, #12]
   859a4:	2a24      	cmp	r2, #36	; 0x24
   859a6:	60cb      	str	r3, [r1, #12]
   859a8:	6099      	str	r1, [r3, #8]
   859aa:	f200 8133 	bhi.w	85c14 <_realloc_r+0x308>
   859ae:	2a13      	cmp	r2, #19
   859b0:	f240 80fa 	bls.w	85ba8 <_realloc_r+0x29c>
   859b4:	682b      	ldr	r3, [r5, #0]
   859b6:	2a1b      	cmp	r2, #27
   859b8:	f8ca 3008 	str.w	r3, [sl, #8]
   859bc:	686b      	ldr	r3, [r5, #4]
   859be:	f8ca 300c 	str.w	r3, [sl, #12]
   859c2:	f200 813b 	bhi.w	85c3c <_realloc_r+0x330>
   859c6:	3508      	adds	r5, #8
   859c8:	f10a 0310 	add.w	r3, sl, #16
   859cc:	e0ed      	b.n	85baa <_realloc_r+0x29e>
   859ce:	f024 0407 	bic.w	r4, r4, #7
   859d2:	2c00      	cmp	r4, #0
   859d4:	4622      	mov	r2, r4
   859d6:	dab0      	bge.n	8593a <_realloc_r+0x2e>
   859d8:	230c      	movs	r3, #12
   859da:	2000      	movs	r0, #0
   859dc:	f8c9 3000 	str.w	r3, [r9]
   859e0:	b003      	add	sp, #12
   859e2:	e8bd 8ff0 	ldmia.w	sp!, {r4, r5, r6, r7, r8, r9, sl, fp, pc}
   859e6:	462f      	mov	r7, r5
   859e8:	1b32      	subs	r2, r6, r4
   859ea:	2a0f      	cmp	r2, #15
   859ec:	f003 0301 	and.w	r3, r3, #1
   859f0:	d840      	bhi.n	85a74 <_realloc_r+0x168>
   859f2:	4333      	orrs	r3, r6
   859f4:	f8c8 3004 	str.w	r3, [r8, #4]
   859f8:	4446      	add	r6, r8
   859fa:	6873      	ldr	r3, [r6, #4]
   859fc:	f043 0301 	orr.w	r3, r3, #1
   85a00:	6073      	str	r3, [r6, #4]
   85a02:	4648      	mov	r0, r9
   85a04:	f7ff ff80 	bl	85908 <__malloc_unlock>
   85a08:	4638      	mov	r0, r7
   85a0a:	b003      	add	sp, #12
   85a0c:	e8bd 8ff0 	ldmia.w	sp!, {r4, r5, r6, r7, r8, r9, sl, fp, pc}
   85a10:	07d9      	lsls	r1, r3, #31
   85a12:	d441      	bmi.n	85a98 <_realloc_r+0x18c>
   85a14:	f855 3c08 	ldr.w	r3, [r5, #-8]
   85a18:	ebc3 0a08 	rsb	sl, r3, r8
   85a1c:	f8da 3004 	ldr.w	r3, [sl, #4]
   85a20:	f023 0303 	bic.w	r3, r3, #3
   85a24:	4433      	add	r3, r6
   85a26:	4293      	cmp	r3, r2
   85a28:	db36      	blt.n	85a98 <_realloc_r+0x18c>
   85a2a:	4657      	mov	r7, sl
   85a2c:	f8da 100c 	ldr.w	r1, [sl, #12]
   85a30:	f857 0f08 	ldr.w	r0, [r7, #8]!
   85a34:	1f32      	subs	r2, r6, #4
   85a36:	2a24      	cmp	r2, #36	; 0x24
   85a38:	60c1      	str	r1, [r0, #12]
   85a3a:	6088      	str	r0, [r1, #8]
   85a3c:	f200 80f5 	bhi.w	85c2a <_realloc_r+0x31e>
   85a40:	2a13      	cmp	r2, #19
   85a42:	f240 80f0 	bls.w	85c26 <_realloc_r+0x31a>
   85a46:	6829      	ldr	r1, [r5, #0]
   85a48:	2a1b      	cmp	r2, #27
   85a4a:	f8ca 1008 	str.w	r1, [sl, #8]
   85a4e:	6869      	ldr	r1, [r5, #4]
   85a50:	f8ca 100c 	str.w	r1, [sl, #12]
   85a54:	f200 8107 	bhi.w	85c66 <_realloc_r+0x35a>
   85a58:	3508      	adds	r5, #8
   85a5a:	f10a 0210 	add.w	r2, sl, #16
   85a5e:	6829      	ldr	r1, [r5, #0]
   85a60:	461e      	mov	r6, r3
   85a62:	6011      	str	r1, [r2, #0]
   85a64:	6869      	ldr	r1, [r5, #4]
   85a66:	46d0      	mov	r8, sl
   85a68:	6051      	str	r1, [r2, #4]
   85a6a:	68ab      	ldr	r3, [r5, #8]
   85a6c:	6093      	str	r3, [r2, #8]
   85a6e:	f8da 3004 	ldr.w	r3, [sl, #4]
   85a72:	e7b9      	b.n	859e8 <_realloc_r+0xdc>
   85a74:	eb08 0104 	add.w	r1, r8, r4
   85a78:	4323      	orrs	r3, r4
   85a7a:	f042 0001 	orr.w	r0, r2, #1
   85a7e:	f8c8 3004 	str.w	r3, [r8, #4]
   85a82:	440a      	add	r2, r1
   85a84:	6048      	str	r0, [r1, #4]
   85a86:	6853      	ldr	r3, [r2, #4]
   85a88:	3108      	adds	r1, #8
   85a8a:	f043 0301 	orr.w	r3, r3, #1
   85a8e:	6053      	str	r3, [r2, #4]
   85a90:	4648      	mov	r0, r9
   85a92:	f7ff f8cd 	bl	84c30 <_free_r>
   85a96:	e7b4      	b.n	85a02 <_realloc_r+0xf6>
   85a98:	4639      	mov	r1, r7
   85a9a:	4648      	mov	r0, r9
   85a9c:	f7ff fbfe 	bl	8529c <_malloc_r>
   85aa0:	4607      	mov	r7, r0
   85aa2:	2800      	cmp	r0, #0
   85aa4:	d0ad      	beq.n	85a02 <_realloc_r+0xf6>
   85aa6:	f855 3c04 	ldr.w	r3, [r5, #-4]
   85aaa:	f1a0 0108 	sub.w	r1, r0, #8
   85aae:	f023 0201 	bic.w	r2, r3, #1
   85ab2:	4442      	add	r2, r8
   85ab4:	4291      	cmp	r1, r2
   85ab6:	f000 80a6 	beq.w	85c06 <_realloc_r+0x2fa>
   85aba:	1f32      	subs	r2, r6, #4
   85abc:	2a24      	cmp	r2, #36	; 0x24
   85abe:	f200 8093 	bhi.w	85be8 <_realloc_r+0x2dc>
   85ac2:	2a13      	cmp	r2, #19
   85ac4:	d865      	bhi.n	85b92 <_realloc_r+0x286>
   85ac6:	4603      	mov	r3, r0
   85ac8:	462a      	mov	r2, r5
   85aca:	6811      	ldr	r1, [r2, #0]
   85acc:	6019      	str	r1, [r3, #0]
   85ace:	6851      	ldr	r1, [r2, #4]
   85ad0:	6059      	str	r1, [r3, #4]
   85ad2:	6892      	ldr	r2, [r2, #8]
   85ad4:	609a      	str	r2, [r3, #8]
   85ad6:	4629      	mov	r1, r5
   85ad8:	4648      	mov	r0, r9
   85ada:	f7ff f8a9 	bl	84c30 <_free_r>
   85ade:	e790      	b.n	85a02 <_realloc_r+0xf6>
   85ae0:	4611      	mov	r1, r2
   85ae2:	b003      	add	sp, #12
   85ae4:	e8bd 4ff0 	ldmia.w	sp!, {r4, r5, r6, r7, r8, r9, sl, fp, lr}
   85ae8:	f7ff bbd8 	b.w	8529c <_malloc_r>
   85aec:	68ca      	ldr	r2, [r1, #12]
   85aee:	6889      	ldr	r1, [r1, #8]
   85af0:	462f      	mov	r7, r5
   85af2:	60ca      	str	r2, [r1, #12]
   85af4:	4606      	mov	r6, r0
   85af6:	6091      	str	r1, [r2, #8]
   85af8:	e776      	b.n	859e8 <_realloc_r+0xdc>
   85afa:	6841      	ldr	r1, [r0, #4]
   85afc:	f104 0010 	add.w	r0, r4, #16
   85b00:	f021 0103 	bic.w	r1, r1, #3
   85b04:	4431      	add	r1, r6
   85b06:	4281      	cmp	r1, r0
   85b08:	da5a      	bge.n	85bc0 <_realloc_r+0x2b4>
   85b0a:	07db      	lsls	r3, r3, #31
   85b0c:	d4c4      	bmi.n	85a98 <_realloc_r+0x18c>
   85b0e:	f855 3c08 	ldr.w	r3, [r5, #-8]
   85b12:	ebc3 0a08 	rsb	sl, r3, r8
   85b16:	f8da 3004 	ldr.w	r3, [sl, #4]
   85b1a:	f023 0303 	bic.w	r3, r3, #3
   85b1e:	eb01 0c03 	add.w	ip, r1, r3
   85b22:	4560      	cmp	r0, ip
   85b24:	f73f af7e 	bgt.w	85a24 <_realloc_r+0x118>
   85b28:	4657      	mov	r7, sl
   85b2a:	f8da 300c 	ldr.w	r3, [sl, #12]
   85b2e:	f857 1f08 	ldr.w	r1, [r7, #8]!
   85b32:	1f32      	subs	r2, r6, #4
   85b34:	2a24      	cmp	r2, #36	; 0x24
   85b36:	60cb      	str	r3, [r1, #12]
   85b38:	6099      	str	r1, [r3, #8]
   85b3a:	f200 80b6 	bhi.w	85caa <_realloc_r+0x39e>
   85b3e:	2a13      	cmp	r2, #19
   85b40:	f240 80a7 	bls.w	85c92 <_realloc_r+0x386>
   85b44:	682b      	ldr	r3, [r5, #0]
   85b46:	2a1b      	cmp	r2, #27
   85b48:	f8ca 3008 	str.w	r3, [sl, #8]
   85b4c:	686b      	ldr	r3, [r5, #4]
   85b4e:	f8ca 300c 	str.w	r3, [sl, #12]
   85b52:	f200 80b3 	bhi.w	85cbc <_realloc_r+0x3b0>
   85b56:	3508      	adds	r5, #8
   85b58:	f10a 0310 	add.w	r3, sl, #16
   85b5c:	682a      	ldr	r2, [r5, #0]
   85b5e:	601a      	str	r2, [r3, #0]
   85b60:	686a      	ldr	r2, [r5, #4]
   85b62:	605a      	str	r2, [r3, #4]
   85b64:	68aa      	ldr	r2, [r5, #8]
   85b66:	609a      	str	r2, [r3, #8]
   85b68:	ebc4 030c 	rsb	r3, r4, ip
   85b6c:	eb0a 0204 	add.w	r2, sl, r4
   85b70:	f043 0301 	orr.w	r3, r3, #1
   85b74:	f8cb 2008 	str.w	r2, [fp, #8]
   85b78:	6053      	str	r3, [r2, #4]
   85b7a:	f8da 3004 	ldr.w	r3, [sl, #4]
   85b7e:	4648      	mov	r0, r9
   85b80:	f003 0301 	and.w	r3, r3, #1
   85b84:	431c      	orrs	r4, r3
   85b86:	f8ca 4004 	str.w	r4, [sl, #4]
   85b8a:	f7ff febd 	bl	85908 <__malloc_unlock>
   85b8e:	4638      	mov	r0, r7
   85b90:	e73b      	b.n	85a0a <_realloc_r+0xfe>
   85b92:	682b      	ldr	r3, [r5, #0]
   85b94:	2a1b      	cmp	r2, #27
   85b96:	6003      	str	r3, [r0, #0]
   85b98:	686b      	ldr	r3, [r5, #4]
   85b9a:	6043      	str	r3, [r0, #4]
   85b9c:	d828      	bhi.n	85bf0 <_realloc_r+0x2e4>
   85b9e:	f100 0308 	add.w	r3, r0, #8
   85ba2:	f105 0208 	add.w	r2, r5, #8
   85ba6:	e790      	b.n	85aca <_realloc_r+0x1be>
   85ba8:	463b      	mov	r3, r7
   85baa:	682a      	ldr	r2, [r5, #0]
   85bac:	4676      	mov	r6, lr
   85bae:	601a      	str	r2, [r3, #0]
   85bb0:	686a      	ldr	r2, [r5, #4]
   85bb2:	46d0      	mov	r8, sl
   85bb4:	605a      	str	r2, [r3, #4]
   85bb6:	68aa      	ldr	r2, [r5, #8]
   85bb8:	609a      	str	r2, [r3, #8]
   85bba:	f8da 3004 	ldr.w	r3, [sl, #4]
   85bbe:	e713      	b.n	859e8 <_realloc_r+0xdc>
   85bc0:	1b0b      	subs	r3, r1, r4
   85bc2:	eb08 0204 	add.w	r2, r8, r4
   85bc6:	f043 0301 	orr.w	r3, r3, #1
   85bca:	f8cb 2008 	str.w	r2, [fp, #8]
   85bce:	6053      	str	r3, [r2, #4]
   85bd0:	f855 3c04 	ldr.w	r3, [r5, #-4]
   85bd4:	4648      	mov	r0, r9
   85bd6:	f003 0301 	and.w	r3, r3, #1
   85bda:	431c      	orrs	r4, r3
   85bdc:	f845 4c04 	str.w	r4, [r5, #-4]
   85be0:	f7ff fe92 	bl	85908 <__malloc_unlock>
   85be4:	4628      	mov	r0, r5
   85be6:	e710      	b.n	85a0a <_realloc_r+0xfe>
   85be8:	4629      	mov	r1, r5
   85bea:	f7ff fe27 	bl	8583c <memmove>
   85bee:	e772      	b.n	85ad6 <_realloc_r+0x1ca>
   85bf0:	68ab      	ldr	r3, [r5, #8]
   85bf2:	2a24      	cmp	r2, #36	; 0x24
   85bf4:	6083      	str	r3, [r0, #8]
   85bf6:	68eb      	ldr	r3, [r5, #12]
   85bf8:	60c3      	str	r3, [r0, #12]
   85bfa:	d02b      	beq.n	85c54 <_realloc_r+0x348>
   85bfc:	f100 0310 	add.w	r3, r0, #16
   85c00:	f105 0210 	add.w	r2, r5, #16
   85c04:	e761      	b.n	85aca <_realloc_r+0x1be>
   85c06:	f850 2c04 	ldr.w	r2, [r0, #-4]
   85c0a:	462f      	mov	r7, r5
   85c0c:	f022 0203 	bic.w	r2, r2, #3
   85c10:	4416      	add	r6, r2
   85c12:	e6e9      	b.n	859e8 <_realloc_r+0xdc>
   85c14:	4629      	mov	r1, r5
   85c16:	4638      	mov	r0, r7
   85c18:	4676      	mov	r6, lr
   85c1a:	46d0      	mov	r8, sl
   85c1c:	f7ff fe0e 	bl	8583c <memmove>
   85c20:	f8da 3004 	ldr.w	r3, [sl, #4]
   85c24:	e6e0      	b.n	859e8 <_realloc_r+0xdc>
   85c26:	463a      	mov	r2, r7
   85c28:	e719      	b.n	85a5e <_realloc_r+0x152>
   85c2a:	4629      	mov	r1, r5
   85c2c:	4638      	mov	r0, r7
   85c2e:	461e      	mov	r6, r3
   85c30:	46d0      	mov	r8, sl
   85c32:	f7ff fe03 	bl	8583c <memmove>
   85c36:	f8da 3004 	ldr.w	r3, [sl, #4]
   85c3a:	e6d5      	b.n	859e8 <_realloc_r+0xdc>
   85c3c:	68ab      	ldr	r3, [r5, #8]
   85c3e:	2a24      	cmp	r2, #36	; 0x24
   85c40:	f8ca 3010 	str.w	r3, [sl, #16]
   85c44:	68eb      	ldr	r3, [r5, #12]
   85c46:	f8ca 3014 	str.w	r3, [sl, #20]
   85c4a:	d018      	beq.n	85c7e <_realloc_r+0x372>
   85c4c:	3510      	adds	r5, #16
   85c4e:	f10a 0318 	add.w	r3, sl, #24
   85c52:	e7aa      	b.n	85baa <_realloc_r+0x29e>
   85c54:	692a      	ldr	r2, [r5, #16]
   85c56:	f100 0318 	add.w	r3, r0, #24
   85c5a:	6102      	str	r2, [r0, #16]
   85c5c:	6969      	ldr	r1, [r5, #20]
   85c5e:	f105 0218 	add.w	r2, r5, #24
   85c62:	6141      	str	r1, [r0, #20]
   85c64:	e731      	b.n	85aca <_realloc_r+0x1be>
   85c66:	68a9      	ldr	r1, [r5, #8]
   85c68:	2a24      	cmp	r2, #36	; 0x24
   85c6a:	f8ca 1010 	str.w	r1, [sl, #16]
   85c6e:	68e9      	ldr	r1, [r5, #12]
   85c70:	f8ca 1014 	str.w	r1, [sl, #20]
   85c74:	d00f      	beq.n	85c96 <_realloc_r+0x38a>
   85c76:	3510      	adds	r5, #16
   85c78:	f10a 0218 	add.w	r2, sl, #24
   85c7c:	e6ef      	b.n	85a5e <_realloc_r+0x152>
   85c7e:	692a      	ldr	r2, [r5, #16]
   85c80:	f10a 0320 	add.w	r3, sl, #32
   85c84:	f8ca 2018 	str.w	r2, [sl, #24]
   85c88:	696a      	ldr	r2, [r5, #20]
   85c8a:	3518      	adds	r5, #24
   85c8c:	f8ca 201c 	str.w	r2, [sl, #28]
   85c90:	e78b      	b.n	85baa <_realloc_r+0x29e>
   85c92:	463b      	mov	r3, r7
   85c94:	e762      	b.n	85b5c <_realloc_r+0x250>
   85c96:	6929      	ldr	r1, [r5, #16]
   85c98:	f10a 0220 	add.w	r2, sl, #32
   85c9c:	f8ca 1018 	str.w	r1, [sl, #24]
   85ca0:	6969      	ldr	r1, [r5, #20]
   85ca2:	3518      	adds	r5, #24
   85ca4:	f8ca 101c 	str.w	r1, [sl, #28]
   85ca8:	e6d9      	b.n	85a5e <_realloc_r+0x152>
   85caa:	4629      	mov	r1, r5
   85cac:	4638      	mov	r0, r7
   85cae:	f8cd c004 	str.w	ip, [sp, #4]
   85cb2:	f7ff fdc3 	bl	8583c <memmove>
   85cb6:	f8dd c004 	ldr.w	ip, [sp, #4]
   85cba:	e755      	b.n	85b68 <_realloc_r+0x25c>
   85cbc:	68ab      	ldr	r3, [r5, #8]
   85cbe:	2a24      	cmp	r2, #36	; 0x24
   85cc0:	f8ca 3010 	str.w	r3, [sl, #16]
   85cc4:	68eb      	ldr	r3, [r5, #12]
   85cc6:	f8ca 3014 	str.w	r3, [sl, #20]
   85cca:	d003      	beq.n	85cd4 <_realloc_r+0x3c8>
   85ccc:	3510      	adds	r5, #16
   85cce:	f10a 0318 	add.w	r3, sl, #24
   85cd2:	e743      	b.n	85b5c <_realloc_r+0x250>
   85cd4:	692a      	ldr	r2, [r5, #16]
   85cd6:	f10a 0320 	add.w	r3, sl, #32
   85cda:	f8ca 2018 	str.w	r2, [sl, #24]
   85cde:	696a      	ldr	r2, [r5, #20]
   85ce0:	3518      	adds	r5, #24
   85ce2:	f8ca 201c 	str.w	r2, [sl, #28]
   85ce6:	e739      	b.n	85b5c <_realloc_r+0x250>
   85ce8:	2007059c 	.word	0x2007059c

00085cec <lflush>:
   85cec:	8983      	ldrh	r3, [r0, #12]
   85cee:	f003 0309 	and.w	r3, r3, #9
   85cf2:	2b09      	cmp	r3, #9
   85cf4:	d001      	beq.n	85cfa <lflush+0xe>
   85cf6:	2000      	movs	r0, #0
   85cf8:	4770      	bx	lr
   85cfa:	f7fe be31 	b.w	84960 <fflush>
   85cfe:	bf00      	nop

00085d00 <__srefill_r>:
   85d00:	b5f8      	push	{r3, r4, r5, r6, r7, lr}
   85d02:	460c      	mov	r4, r1
   85d04:	4605      	mov	r5, r0
   85d06:	b110      	cbz	r0, 85d0e <__srefill_r+0xe>
   85d08:	6b83      	ldr	r3, [r0, #56]	; 0x38
   85d0a:	2b00      	cmp	r3, #0
   85d0c:	d045      	beq.n	85d9a <__srefill_r+0x9a>
   85d0e:	89a3      	ldrh	r3, [r4, #12]
   85d10:	b29a      	uxth	r2, r3
   85d12:	0497      	lsls	r7, r2, #18
   85d14:	d407      	bmi.n	85d26 <__srefill_r+0x26>
   85d16:	6e62      	ldr	r2, [r4, #100]	; 0x64
   85d18:	f443 5300 	orr.w	r3, r3, #8192	; 0x2000
   85d1c:	f422 5200 	bic.w	r2, r2, #8192	; 0x2000
   85d20:	6662      	str	r2, [r4, #100]	; 0x64
   85d22:	81a3      	strh	r3, [r4, #12]
   85d24:	b29a      	uxth	r2, r3
   85d26:	2100      	movs	r1, #0
   85d28:	0696      	lsls	r6, r2, #26
   85d2a:	6061      	str	r1, [r4, #4]
   85d2c:	d432      	bmi.n	85d94 <__srefill_r+0x94>
   85d2e:	0750      	lsls	r0, r2, #29
   85d30:	d521      	bpl.n	85d76 <__srefill_r+0x76>
   85d32:	6b21      	ldr	r1, [r4, #48]	; 0x30
   85d34:	b161      	cbz	r1, 85d50 <__srefill_r+0x50>
   85d36:	f104 0340 	add.w	r3, r4, #64	; 0x40
   85d3a:	4299      	cmp	r1, r3
   85d3c:	d002      	beq.n	85d44 <__srefill_r+0x44>
   85d3e:	4628      	mov	r0, r5
   85d40:	f7fe ff76 	bl	84c30 <_free_r>
   85d44:	6be3      	ldr	r3, [r4, #60]	; 0x3c
   85d46:	2000      	movs	r0, #0
   85d48:	6063      	str	r3, [r4, #4]
   85d4a:	6320      	str	r0, [r4, #48]	; 0x30
   85d4c:	2b00      	cmp	r3, #0
   85d4e:	d13e      	bne.n	85dce <__srefill_r+0xce>
   85d50:	6923      	ldr	r3, [r4, #16]
   85d52:	2b00      	cmp	r3, #0
   85d54:	d04b      	beq.n	85dee <__srefill_r+0xee>
   85d56:	89a7      	ldrh	r7, [r4, #12]
   85d58:	b2be      	uxth	r6, r7
   85d5a:	07b3      	lsls	r3, r6, #30
   85d5c:	d120      	bne.n	85da0 <__srefill_r+0xa0>
   85d5e:	6922      	ldr	r2, [r4, #16]
   85d60:	4628      	mov	r0, r5
   85d62:	6022      	str	r2, [r4, #0]
   85d64:	6a25      	ldr	r5, [r4, #32]
   85d66:	69e1      	ldr	r1, [r4, #28]
   85d68:	6963      	ldr	r3, [r4, #20]
   85d6a:	47a8      	blx	r5
   85d6c:	2800      	cmp	r0, #0
   85d6e:	6060      	str	r0, [r4, #4]
   85d70:	dd09      	ble.n	85d86 <__srefill_r+0x86>
   85d72:	2000      	movs	r0, #0
   85d74:	bdf8      	pop	{r3, r4, r5, r6, r7, pc}
   85d76:	06d1      	lsls	r1, r2, #27
   85d78:	d53e      	bpl.n	85df8 <__srefill_r+0xf8>
   85d7a:	0712      	lsls	r2, r2, #28
   85d7c:	d42a      	bmi.n	85dd4 <__srefill_r+0xd4>
   85d7e:	f043 0304 	orr.w	r3, r3, #4
   85d82:	81a3      	strh	r3, [r4, #12]
   85d84:	e7e4      	b.n	85d50 <__srefill_r+0x50>
   85d86:	89a3      	ldrh	r3, [r4, #12]
   85d88:	d01b      	beq.n	85dc2 <__srefill_r+0xc2>
   85d8a:	2200      	movs	r2, #0
   85d8c:	f043 0340 	orr.w	r3, r3, #64	; 0x40
   85d90:	81a3      	strh	r3, [r4, #12]
   85d92:	6062      	str	r2, [r4, #4]
   85d94:	f04f 30ff 	mov.w	r0, #4294967295
   85d98:	bdf8      	pop	{r3, r4, r5, r6, r7, pc}
   85d9a:	f7fe fe71 	bl	84a80 <__sinit>
   85d9e:	e7b6      	b.n	85d0e <__srefill_r+0xe>
   85da0:	4a19      	ldr	r2, [pc, #100]	; (85e08 <__srefill_r+0x108>)
   85da2:	2301      	movs	r3, #1
   85da4:	6810      	ldr	r0, [r2, #0]
   85da6:	81a3      	strh	r3, [r4, #12]
   85da8:	4918      	ldr	r1, [pc, #96]	; (85e0c <__srefill_r+0x10c>)
   85daa:	f006 0609 	and.w	r6, r6, #9
   85dae:	f7ff f9a7 	bl	85100 <_fwalk>
   85db2:	2e09      	cmp	r6, #9
   85db4:	81a7      	strh	r7, [r4, #12]
   85db6:	d1d2      	bne.n	85d5e <__srefill_r+0x5e>
   85db8:	4628      	mov	r0, r5
   85dba:	4621      	mov	r1, r4
   85dbc:	f7fe fd16 	bl	847ec <__sflush_r>
   85dc0:	e7cd      	b.n	85d5e <__srefill_r+0x5e>
   85dc2:	f043 0320 	orr.w	r3, r3, #32
   85dc6:	f04f 30ff 	mov.w	r0, #4294967295
   85dca:	81a3      	strh	r3, [r4, #12]
   85dcc:	bdf8      	pop	{r3, r4, r5, r6, r7, pc}
   85dce:	6ba3      	ldr	r3, [r4, #56]	; 0x38
   85dd0:	6023      	str	r3, [r4, #0]
   85dd2:	bdf8      	pop	{r3, r4, r5, r6, r7, pc}
   85dd4:	4628      	mov	r0, r5
   85dd6:	4621      	mov	r1, r4
   85dd8:	f7fe fdac 	bl	84934 <_fflush_r>
   85ddc:	2800      	cmp	r0, #0
   85dde:	d1d9      	bne.n	85d94 <__srefill_r+0x94>
   85de0:	89a3      	ldrh	r3, [r4, #12]
   85de2:	60a0      	str	r0, [r4, #8]
   85de4:	f023 0308 	bic.w	r3, r3, #8
   85de8:	61a0      	str	r0, [r4, #24]
   85dea:	b29b      	uxth	r3, r3
   85dec:	e7c7      	b.n	85d7e <__srefill_r+0x7e>
   85dee:	4628      	mov	r0, r5
   85df0:	4621      	mov	r1, r4
   85df2:	f7ff f9db 	bl	851ac <__smakebuf_r>
   85df6:	e7ae      	b.n	85d56 <__srefill_r+0x56>
   85df8:	f043 0340 	orr.w	r3, r3, #64	; 0x40
   85dfc:	2209      	movs	r2, #9
   85dfe:	602a      	str	r2, [r5, #0]
   85e00:	f04f 30ff 	mov.w	r0, #4294967295
   85e04:	81a3      	strh	r3, [r4, #12]
   85e06:	bdf8      	pop	{r3, r4, r5, r6, r7, pc}
   85e08:	00086800 	.word	0x00086800
   85e0c:	00085ced 	.word	0x00085ced

00085e10 <_sbrk_r>:
   85e10:	b538      	push	{r3, r4, r5, lr}
   85e12:	4c07      	ldr	r4, [pc, #28]	; (85e30 <_sbrk_r+0x20>)
   85e14:	2300      	movs	r3, #0
   85e16:	4605      	mov	r5, r0
   85e18:	4608      	mov	r0, r1
   85e1a:	6023      	str	r3, [r4, #0]
   85e1c:	f7fc fd5c 	bl	828d8 <_sbrk>
   85e20:	1c43      	adds	r3, r0, #1
   85e22:	d000      	beq.n	85e26 <_sbrk_r+0x16>
   85e24:	bd38      	pop	{r3, r4, r5, pc}
   85e26:	6823      	ldr	r3, [r4, #0]
   85e28:	2b00      	cmp	r3, #0
   85e2a:	d0fb      	beq.n	85e24 <_sbrk_r+0x14>
   85e2c:	602b      	str	r3, [r5, #0]
   85e2e:	bd38      	pop	{r3, r4, r5, pc}
   85e30:	20078dd4 	.word	0x20078dd4

00085e34 <__sread>:
   85e34:	b510      	push	{r4, lr}
   85e36:	460c      	mov	r4, r1
   85e38:	f9b1 100e 	ldrsh.w	r1, [r1, #14]
   85e3c:	f000 f9bc 	bl	861b8 <_read_r>
   85e40:	2800      	cmp	r0, #0
   85e42:	db03      	blt.n	85e4c <__sread+0x18>
   85e44:	6d23      	ldr	r3, [r4, #80]	; 0x50
   85e46:	4403      	add	r3, r0
   85e48:	6523      	str	r3, [r4, #80]	; 0x50
   85e4a:	bd10      	pop	{r4, pc}
   85e4c:	89a3      	ldrh	r3, [r4, #12]
   85e4e:	f423 5380 	bic.w	r3, r3, #4096	; 0x1000
   85e52:	81a3      	strh	r3, [r4, #12]
   85e54:	bd10      	pop	{r4, pc}
   85e56:	bf00      	nop

00085e58 <__swrite>:
   85e58:	e92d 41f0 	stmdb	sp!, {r4, r5, r6, r7, r8, lr}
   85e5c:	460c      	mov	r4, r1
   85e5e:	8989      	ldrh	r1, [r1, #12]
   85e60:	461d      	mov	r5, r3
   85e62:	05cb      	lsls	r3, r1, #23
   85e64:	4616      	mov	r6, r2
   85e66:	4607      	mov	r7, r0
   85e68:	d506      	bpl.n	85e78 <__swrite+0x20>
   85e6a:	f9b4 100e 	ldrsh.w	r1, [r4, #14]
   85e6e:	2200      	movs	r2, #0
   85e70:	2302      	movs	r3, #2
   85e72:	f000 f98d 	bl	86190 <_lseek_r>
   85e76:	89a1      	ldrh	r1, [r4, #12]
   85e78:	f421 5180 	bic.w	r1, r1, #4096	; 0x1000
   85e7c:	81a1      	strh	r1, [r4, #12]
   85e7e:	4638      	mov	r0, r7
   85e80:	f9b4 100e 	ldrsh.w	r1, [r4, #14]
   85e84:	4632      	mov	r2, r6
   85e86:	462b      	mov	r3, r5
   85e88:	e8bd 41f0 	ldmia.w	sp!, {r4, r5, r6, r7, r8, lr}
   85e8c:	f000 b8a0 	b.w	85fd0 <_write_r>

00085e90 <__sseek>:
   85e90:	b510      	push	{r4, lr}
   85e92:	460c      	mov	r4, r1
   85e94:	f9b1 100e 	ldrsh.w	r1, [r1, #14]
   85e98:	f000 f97a 	bl	86190 <_lseek_r>
   85e9c:	89a3      	ldrh	r3, [r4, #12]
   85e9e:	1c42      	adds	r2, r0, #1
   85ea0:	bf0e      	itee	eq
   85ea2:	f423 5380 	biceq.w	r3, r3, #4096	; 0x1000
   85ea6:	f443 5380 	orrne.w	r3, r3, #4096	; 0x1000
   85eaa:	6520      	strne	r0, [r4, #80]	; 0x50
   85eac:	81a3      	strh	r3, [r4, #12]
   85eae:	bd10      	pop	{r4, pc}

00085eb0 <__sclose>:
   85eb0:	f9b1 100e 	ldrsh.w	r1, [r1, #14]
   85eb4:	f000 b8f2 	b.w	8609c <_close_r>

00085eb8 <__swbuf_r>:
   85eb8:	b570      	push	{r4, r5, r6, lr}
   85eba:	460d      	mov	r5, r1
   85ebc:	4614      	mov	r4, r2
   85ebe:	4606      	mov	r6, r0
   85ec0:	b110      	cbz	r0, 85ec8 <__swbuf_r+0x10>
   85ec2:	6b83      	ldr	r3, [r0, #56]	; 0x38
   85ec4:	2b00      	cmp	r3, #0
   85ec6:	d048      	beq.n	85f5a <__swbuf_r+0xa2>
   85ec8:	89a2      	ldrh	r2, [r4, #12]
   85eca:	69a3      	ldr	r3, [r4, #24]
   85ecc:	b291      	uxth	r1, r2
   85ece:	0708      	lsls	r0, r1, #28
   85ed0:	60a3      	str	r3, [r4, #8]
   85ed2:	d538      	bpl.n	85f46 <__swbuf_r+0x8e>
   85ed4:	6923      	ldr	r3, [r4, #16]
   85ed6:	2b00      	cmp	r3, #0
   85ed8:	d035      	beq.n	85f46 <__swbuf_r+0x8e>
   85eda:	0489      	lsls	r1, r1, #18
   85edc:	b2ed      	uxtb	r5, r5
   85ede:	d515      	bpl.n	85f0c <__swbuf_r+0x54>
   85ee0:	6822      	ldr	r2, [r4, #0]
   85ee2:	6961      	ldr	r1, [r4, #20]
   85ee4:	1ad3      	subs	r3, r2, r3
   85ee6:	428b      	cmp	r3, r1
   85ee8:	da1c      	bge.n	85f24 <__swbuf_r+0x6c>
   85eea:	3301      	adds	r3, #1
   85eec:	68a1      	ldr	r1, [r4, #8]
   85eee:	1c50      	adds	r0, r2, #1
   85ef0:	3901      	subs	r1, #1
   85ef2:	60a1      	str	r1, [r4, #8]
   85ef4:	6020      	str	r0, [r4, #0]
   85ef6:	7015      	strb	r5, [r2, #0]
   85ef8:	6962      	ldr	r2, [r4, #20]
   85efa:	429a      	cmp	r2, r3
   85efc:	d01a      	beq.n	85f34 <__swbuf_r+0x7c>
   85efe:	89a3      	ldrh	r3, [r4, #12]
   85f00:	07db      	lsls	r3, r3, #31
   85f02:	d501      	bpl.n	85f08 <__swbuf_r+0x50>
   85f04:	2d0a      	cmp	r5, #10
   85f06:	d015      	beq.n	85f34 <__swbuf_r+0x7c>
   85f08:	4628      	mov	r0, r5
   85f0a:	bd70      	pop	{r4, r5, r6, pc}
   85f0c:	6e61      	ldr	r1, [r4, #100]	; 0x64
   85f0e:	f442 5200 	orr.w	r2, r2, #8192	; 0x2000
   85f12:	f421 5100 	bic.w	r1, r1, #8192	; 0x2000
   85f16:	81a2      	strh	r2, [r4, #12]
   85f18:	6822      	ldr	r2, [r4, #0]
   85f1a:	6661      	str	r1, [r4, #100]	; 0x64
   85f1c:	6961      	ldr	r1, [r4, #20]
   85f1e:	1ad3      	subs	r3, r2, r3
   85f20:	428b      	cmp	r3, r1
   85f22:	dbe2      	blt.n	85eea <__swbuf_r+0x32>
   85f24:	4630      	mov	r0, r6
   85f26:	4621      	mov	r1, r4
   85f28:	f7fe fd04 	bl	84934 <_fflush_r>
   85f2c:	b940      	cbnz	r0, 85f40 <__swbuf_r+0x88>
   85f2e:	6822      	ldr	r2, [r4, #0]
   85f30:	2301      	movs	r3, #1
   85f32:	e7db      	b.n	85eec <__swbuf_r+0x34>
   85f34:	4630      	mov	r0, r6
   85f36:	4621      	mov	r1, r4
   85f38:	f7fe fcfc 	bl	84934 <_fflush_r>
   85f3c:	2800      	cmp	r0, #0
   85f3e:	d0e3      	beq.n	85f08 <__swbuf_r+0x50>
   85f40:	f04f 30ff 	mov.w	r0, #4294967295
   85f44:	bd70      	pop	{r4, r5, r6, pc}
   85f46:	4630      	mov	r0, r6
   85f48:	4621      	mov	r1, r4
   85f4a:	f7fe fbdd 	bl	84708 <__swsetup_r>
   85f4e:	2800      	cmp	r0, #0
   85f50:	d1f6      	bne.n	85f40 <__swbuf_r+0x88>
   85f52:	89a2      	ldrh	r2, [r4, #12]
   85f54:	6923      	ldr	r3, [r4, #16]
   85f56:	b291      	uxth	r1, r2
   85f58:	e7bf      	b.n	85eda <__swbuf_r+0x22>
   85f5a:	f7fe fd91 	bl	84a80 <__sinit>
   85f5e:	e7b3      	b.n	85ec8 <__swbuf_r+0x10>

00085f60 <_wcrtomb_r>:
   85f60:	e92d 41f0 	stmdb	sp!, {r4, r5, r6, r7, r8, lr}
   85f64:	4605      	mov	r5, r0
   85f66:	b086      	sub	sp, #24
   85f68:	461e      	mov	r6, r3
   85f6a:	460c      	mov	r4, r1
   85f6c:	b1a1      	cbz	r1, 85f98 <_wcrtomb_r+0x38>
   85f6e:	4b10      	ldr	r3, [pc, #64]	; (85fb0 <_wcrtomb_r+0x50>)
   85f70:	4617      	mov	r7, r2
   85f72:	f8d3 8000 	ldr.w	r8, [r3]
   85f76:	f7ff f90f 	bl	85198 <__locale_charset>
   85f7a:	9600      	str	r6, [sp, #0]
   85f7c:	4603      	mov	r3, r0
   85f7e:	4621      	mov	r1, r4
   85f80:	463a      	mov	r2, r7
   85f82:	4628      	mov	r0, r5
   85f84:	47c0      	blx	r8
   85f86:	1c43      	adds	r3, r0, #1
   85f88:	d103      	bne.n	85f92 <_wcrtomb_r+0x32>
   85f8a:	2200      	movs	r2, #0
   85f8c:	238a      	movs	r3, #138	; 0x8a
   85f8e:	6032      	str	r2, [r6, #0]
   85f90:	602b      	str	r3, [r5, #0]
   85f92:	b006      	add	sp, #24
   85f94:	e8bd 81f0 	ldmia.w	sp!, {r4, r5, r6, r7, r8, pc}
   85f98:	4b05      	ldr	r3, [pc, #20]	; (85fb0 <_wcrtomb_r+0x50>)
   85f9a:	681f      	ldr	r7, [r3, #0]
   85f9c:	f7ff f8fc 	bl	85198 <__locale_charset>
   85fa0:	9600      	str	r6, [sp, #0]
   85fa2:	4603      	mov	r3, r0
   85fa4:	4622      	mov	r2, r4
   85fa6:	4628      	mov	r0, r5
   85fa8:	a903      	add	r1, sp, #12
   85faa:	47b8      	blx	r7
   85fac:	e7eb      	b.n	85f86 <_wcrtomb_r+0x26>
   85fae:	bf00      	nop
   85fb0:	200709ac 	.word	0x200709ac

00085fb4 <__ascii_wctomb>:
   85fb4:	b121      	cbz	r1, 85fc0 <__ascii_wctomb+0xc>
   85fb6:	2aff      	cmp	r2, #255	; 0xff
   85fb8:	d804      	bhi.n	85fc4 <__ascii_wctomb+0x10>
   85fba:	700a      	strb	r2, [r1, #0]
   85fbc:	2001      	movs	r0, #1
   85fbe:	4770      	bx	lr
   85fc0:	4608      	mov	r0, r1
   85fc2:	4770      	bx	lr
   85fc4:	238a      	movs	r3, #138	; 0x8a
   85fc6:	6003      	str	r3, [r0, #0]
   85fc8:	f04f 30ff 	mov.w	r0, #4294967295
   85fcc:	4770      	bx	lr
   85fce:	bf00      	nop

00085fd0 <_write_r>:
   85fd0:	b570      	push	{r4, r5, r6, lr}
   85fd2:	4c08      	ldr	r4, [pc, #32]	; (85ff4 <_write_r+0x24>)
   85fd4:	4606      	mov	r6, r0
   85fd6:	2500      	movs	r5, #0
   85fd8:	4608      	mov	r0, r1
   85fda:	4611      	mov	r1, r2
   85fdc:	461a      	mov	r2, r3
   85fde:	6025      	str	r5, [r4, #0]
   85fe0:	f7fa f992 	bl	80308 <_write>
   85fe4:	1c43      	adds	r3, r0, #1
   85fe6:	d000      	beq.n	85fea <_write_r+0x1a>
   85fe8:	bd70      	pop	{r4, r5, r6, pc}
   85fea:	6823      	ldr	r3, [r4, #0]
   85fec:	2b00      	cmp	r3, #0
   85fee:	d0fb      	beq.n	85fe8 <_write_r+0x18>
   85ff0:	6033      	str	r3, [r6, #0]
   85ff2:	bd70      	pop	{r4, r5, r6, pc}
   85ff4:	20078dd4 	.word	0x20078dd4

00085ff8 <__register_exitproc>:
   85ff8:	e92d 47f0 	stmdb	sp!, {r4, r5, r6, r7, r8, r9, sl, lr}
   85ffc:	4c25      	ldr	r4, [pc, #148]	; (86094 <__register_exitproc+0x9c>)
   85ffe:	4606      	mov	r6, r0
   86000:	6825      	ldr	r5, [r4, #0]
   86002:	4688      	mov	r8, r1
   86004:	f8d5 4148 	ldr.w	r4, [r5, #328]	; 0x148
   86008:	4692      	mov	sl, r2
   8600a:	4699      	mov	r9, r3
   8600c:	b3c4      	cbz	r4, 86080 <__register_exitproc+0x88>
   8600e:	6860      	ldr	r0, [r4, #4]
   86010:	281f      	cmp	r0, #31
   86012:	dc17      	bgt.n	86044 <__register_exitproc+0x4c>
   86014:	1c41      	adds	r1, r0, #1
   86016:	b176      	cbz	r6, 86036 <__register_exitproc+0x3e>
   86018:	eb04 0380 	add.w	r3, r4, r0, lsl #2
   8601c:	f8c3 a088 	str.w	sl, [r3, #136]	; 0x88
   86020:	f8d4 5188 	ldr.w	r5, [r4, #392]	; 0x188
   86024:	2201      	movs	r2, #1
   86026:	4082      	lsls	r2, r0
   86028:	4315      	orrs	r5, r2
   8602a:	2e02      	cmp	r6, #2
   8602c:	f8c4 5188 	str.w	r5, [r4, #392]	; 0x188
   86030:	f8c3 9108 	str.w	r9, [r3, #264]	; 0x108
   86034:	d01e      	beq.n	86074 <__register_exitproc+0x7c>
   86036:	1c83      	adds	r3, r0, #2
   86038:	6061      	str	r1, [r4, #4]
   8603a:	2000      	movs	r0, #0
   8603c:	f844 8023 	str.w	r8, [r4, r3, lsl #2]
   86040:	e8bd 87f0 	ldmia.w	sp!, {r4, r5, r6, r7, r8, r9, sl, pc}
   86044:	4b14      	ldr	r3, [pc, #80]	; (86098 <__register_exitproc+0xa0>)
   86046:	b303      	cbz	r3, 8608a <__register_exitproc+0x92>
   86048:	f44f 70c8 	mov.w	r0, #400	; 0x190
   8604c:	f7ff f91e 	bl	8528c <malloc>
   86050:	4604      	mov	r4, r0
   86052:	b1d0      	cbz	r0, 8608a <__register_exitproc+0x92>
   86054:	f8d5 3148 	ldr.w	r3, [r5, #328]	; 0x148
   86058:	2700      	movs	r7, #0
   8605a:	e884 0088 	stmia.w	r4, {r3, r7}
   8605e:	4638      	mov	r0, r7
   86060:	f8c5 4148 	str.w	r4, [r5, #328]	; 0x148
   86064:	2101      	movs	r1, #1
   86066:	f8c4 7188 	str.w	r7, [r4, #392]	; 0x188
   8606a:	f8c4 718c 	str.w	r7, [r4, #396]	; 0x18c
   8606e:	2e00      	cmp	r6, #0
   86070:	d0e1      	beq.n	86036 <__register_exitproc+0x3e>
   86072:	e7d1      	b.n	86018 <__register_exitproc+0x20>
   86074:	f8d4 318c 	ldr.w	r3, [r4, #396]	; 0x18c
   86078:	431a      	orrs	r2, r3
   8607a:	f8c4 218c 	str.w	r2, [r4, #396]	; 0x18c
   8607e:	e7da      	b.n	86036 <__register_exitproc+0x3e>
   86080:	f505 74a6 	add.w	r4, r5, #332	; 0x14c
   86084:	f8c5 4148 	str.w	r4, [r5, #328]	; 0x148
   86088:	e7c1      	b.n	8600e <__register_exitproc+0x16>
   8608a:	f04f 30ff 	mov.w	r0, #4294967295
   8608e:	e8bd 87f0 	ldmia.w	sp!, {r4, r5, r6, r7, r8, r9, sl, pc}
   86092:	bf00      	nop
   86094:	00086800 	.word	0x00086800
   86098:	0008528d 	.word	0x0008528d

0008609c <_close_r>:
   8609c:	b538      	push	{r3, r4, r5, lr}
   8609e:	4c07      	ldr	r4, [pc, #28]	; (860bc <_close_r+0x20>)
   860a0:	2300      	movs	r3, #0
   860a2:	4605      	mov	r5, r0
   860a4:	4608      	mov	r0, r1
   860a6:	6023      	str	r3, [r4, #0]
   860a8:	f7fc fc30 	bl	8290c <_close>
   860ac:	1c43      	adds	r3, r0, #1
   860ae:	d000      	beq.n	860b2 <_close_r+0x16>
   860b0:	bd38      	pop	{r3, r4, r5, pc}
   860b2:	6823      	ldr	r3, [r4, #0]
   860b4:	2b00      	cmp	r3, #0
   860b6:	d0fb      	beq.n	860b0 <_close_r+0x14>
   860b8:	602b      	str	r3, [r5, #0]
   860ba:	bd38      	pop	{r3, r4, r5, pc}
   860bc:	20078dd4 	.word	0x20078dd4

000860c0 <_fclose_r>:
   860c0:	2900      	cmp	r1, #0
   860c2:	d03d      	beq.n	86140 <_fclose_r+0x80>
   860c4:	b570      	push	{r4, r5, r6, lr}
   860c6:	4605      	mov	r5, r0
   860c8:	460c      	mov	r4, r1
   860ca:	b108      	cbz	r0, 860d0 <_fclose_r+0x10>
   860cc:	6b83      	ldr	r3, [r0, #56]	; 0x38
   860ce:	b37b      	cbz	r3, 86130 <_fclose_r+0x70>
   860d0:	f9b4 300c 	ldrsh.w	r3, [r4, #12]
   860d4:	b90b      	cbnz	r3, 860da <_fclose_r+0x1a>
   860d6:	2000      	movs	r0, #0
   860d8:	bd70      	pop	{r4, r5, r6, pc}
   860da:	4628      	mov	r0, r5
   860dc:	4621      	mov	r1, r4
   860de:	f7fe fb85 	bl	847ec <__sflush_r>
   860e2:	6ae3      	ldr	r3, [r4, #44]	; 0x2c
   860e4:	4606      	mov	r6, r0
   860e6:	b133      	cbz	r3, 860f6 <_fclose_r+0x36>
   860e8:	4628      	mov	r0, r5
   860ea:	69e1      	ldr	r1, [r4, #28]
   860ec:	4798      	blx	r3
   860ee:	2800      	cmp	r0, #0
   860f0:	bfb8      	it	lt
   860f2:	f04f 36ff 	movlt.w	r6, #4294967295
   860f6:	89a3      	ldrh	r3, [r4, #12]
   860f8:	061b      	lsls	r3, r3, #24
   860fa:	d41c      	bmi.n	86136 <_fclose_r+0x76>
   860fc:	6b21      	ldr	r1, [r4, #48]	; 0x30
   860fe:	b141      	cbz	r1, 86112 <_fclose_r+0x52>
   86100:	f104 0340 	add.w	r3, r4, #64	; 0x40
   86104:	4299      	cmp	r1, r3
   86106:	d002      	beq.n	8610e <_fclose_r+0x4e>
   86108:	4628      	mov	r0, r5
   8610a:	f7fe fd91 	bl	84c30 <_free_r>
   8610e:	2300      	movs	r3, #0
   86110:	6323      	str	r3, [r4, #48]	; 0x30
   86112:	6c61      	ldr	r1, [r4, #68]	; 0x44
   86114:	b121      	cbz	r1, 86120 <_fclose_r+0x60>
   86116:	4628      	mov	r0, r5
   86118:	f7fe fd8a 	bl	84c30 <_free_r>
   8611c:	2300      	movs	r3, #0
   8611e:	6463      	str	r3, [r4, #68]	; 0x44
   86120:	f7fe fcb4 	bl	84a8c <__sfp_lock_acquire>
   86124:	2300      	movs	r3, #0
   86126:	81a3      	strh	r3, [r4, #12]
   86128:	f7fe fcb2 	bl	84a90 <__sfp_lock_release>
   8612c:	4630      	mov	r0, r6
   8612e:	bd70      	pop	{r4, r5, r6, pc}
   86130:	f7fe fca6 	bl	84a80 <__sinit>
   86134:	e7cc      	b.n	860d0 <_fclose_r+0x10>
   86136:	4628      	mov	r0, r5
   86138:	6921      	ldr	r1, [r4, #16]
   8613a:	f7fe fd79 	bl	84c30 <_free_r>
   8613e:	e7dd      	b.n	860fc <_fclose_r+0x3c>
   86140:	2000      	movs	r0, #0
   86142:	4770      	bx	lr

00086144 <_fstat_r>:
   86144:	b538      	push	{r3, r4, r5, lr}
   86146:	4c08      	ldr	r4, [pc, #32]	; (86168 <_fstat_r+0x24>)
   86148:	2300      	movs	r3, #0
   8614a:	4605      	mov	r5, r0
   8614c:	4608      	mov	r0, r1
   8614e:	4611      	mov	r1, r2
   86150:	6023      	str	r3, [r4, #0]
   86152:	f7fc fbdf 	bl	82914 <_fstat>
   86156:	1c43      	adds	r3, r0, #1
   86158:	d000      	beq.n	8615c <_fstat_r+0x18>
   8615a:	bd38      	pop	{r3, r4, r5, pc}
   8615c:	6823      	ldr	r3, [r4, #0]
   8615e:	2b00      	cmp	r3, #0
   86160:	d0fb      	beq.n	8615a <_fstat_r+0x16>
   86162:	602b      	str	r3, [r5, #0]
   86164:	bd38      	pop	{r3, r4, r5, pc}
   86166:	bf00      	nop
   86168:	20078dd4 	.word	0x20078dd4

0008616c <_isatty_r>:
   8616c:	b538      	push	{r3, r4, r5, lr}
   8616e:	4c07      	ldr	r4, [pc, #28]	; (8618c <_isatty_r+0x20>)
   86170:	2300      	movs	r3, #0
   86172:	4605      	mov	r5, r0
   86174:	4608      	mov	r0, r1
   86176:	6023      	str	r3, [r4, #0]
   86178:	f7fc fbd2 	bl	82920 <_isatty>
   8617c:	1c43      	adds	r3, r0, #1
   8617e:	d000      	beq.n	86182 <_isatty_r+0x16>
   86180:	bd38      	pop	{r3, r4, r5, pc}
   86182:	6823      	ldr	r3, [r4, #0]
   86184:	2b00      	cmp	r3, #0
   86186:	d0fb      	beq.n	86180 <_isatty_r+0x14>
   86188:	602b      	str	r3, [r5, #0]
   8618a:	bd38      	pop	{r3, r4, r5, pc}
   8618c:	20078dd4 	.word	0x20078dd4

00086190 <_lseek_r>:
   86190:	b570      	push	{r4, r5, r6, lr}
   86192:	4c08      	ldr	r4, [pc, #32]	; (861b4 <_lseek_r+0x24>)
   86194:	4606      	mov	r6, r0
   86196:	2500      	movs	r5, #0
   86198:	4608      	mov	r0, r1
   8619a:	4611      	mov	r1, r2
   8619c:	461a      	mov	r2, r3
   8619e:	6025      	str	r5, [r4, #0]
   861a0:	f7fc fbc0 	bl	82924 <_lseek>
   861a4:	1c43      	adds	r3, r0, #1
   861a6:	d000      	beq.n	861aa <_lseek_r+0x1a>
   861a8:	bd70      	pop	{r4, r5, r6, pc}
   861aa:	6823      	ldr	r3, [r4, #0]
   861ac:	2b00      	cmp	r3, #0
   861ae:	d0fb      	beq.n	861a8 <_lseek_r+0x18>
   861b0:	6033      	str	r3, [r6, #0]
   861b2:	bd70      	pop	{r4, r5, r6, pc}
   861b4:	20078dd4 	.word	0x20078dd4

000861b8 <_read_r>:
   861b8:	b570      	push	{r4, r5, r6, lr}
   861ba:	4c08      	ldr	r4, [pc, #32]	; (861dc <_read_r+0x24>)
   861bc:	4606      	mov	r6, r0
   861be:	2500      	movs	r5, #0
   861c0:	4608      	mov	r0, r1
   861c2:	4611      	mov	r1, r2
   861c4:	461a      	mov	r2, r3
   861c6:	6025      	str	r5, [r4, #0]
   861c8:	f7f9 fff4 	bl	801b4 <_read>
   861cc:	1c43      	adds	r3, r0, #1
   861ce:	d000      	beq.n	861d2 <_read_r+0x1a>
   861d0:	bd70      	pop	{r4, r5, r6, pc}
   861d2:	6823      	ldr	r3, [r4, #0]
   861d4:	2b00      	cmp	r3, #0
   861d6:	d0fb      	beq.n	861d0 <_read_r+0x18>
   861d8:	6033      	str	r3, [r6, #0]
   861da:	bd70      	pop	{r4, r5, r6, pc}
   861dc:	20078dd4 	.word	0x20078dd4

000861e0 <__aeabi_uldivmod>:
   861e0:	b953      	cbnz	r3, 861f8 <__aeabi_uldivmod+0x18>
   861e2:	b94a      	cbnz	r2, 861f8 <__aeabi_uldivmod+0x18>
   861e4:	2900      	cmp	r1, #0
   861e6:	bf08      	it	eq
   861e8:	2800      	cmpeq	r0, #0
   861ea:	bf1c      	itt	ne
   861ec:	f04f 31ff 	movne.w	r1, #4294967295
   861f0:	f04f 30ff 	movne.w	r0, #4294967295
   861f4:	f000 b83c 	b.w	86270 <__aeabi_idiv0>
   861f8:	b082      	sub	sp, #8
   861fa:	46ec      	mov	ip, sp
   861fc:	e92d 5000 	stmdb	sp!, {ip, lr}
   86200:	f000 f81e 	bl	86240 <__gnu_uldivmod_helper>
   86204:	f8dd e004 	ldr.w	lr, [sp, #4]
   86208:	b002      	add	sp, #8
   8620a:	bc0c      	pop	{r2, r3}
   8620c:	4770      	bx	lr
   8620e:	bf00      	nop

00086210 <__gnu_ldivmod_helper>:
   86210:	e92d 41f0 	stmdb	sp!, {r4, r5, r6, r7, r8, lr}
   86214:	9c06      	ldr	r4, [sp, #24]
   86216:	4690      	mov	r8, r2
   86218:	4606      	mov	r6, r0
   8621a:	460f      	mov	r7, r1
   8621c:	461d      	mov	r5, r3
   8621e:	f000 f829 	bl	86274 <__divdi3>
   86222:	fb08 fc01 	mul.w	ip, r8, r1
   86226:	fba8 2300 	umull	r2, r3, r8, r0
   8622a:	fb00 c505 	mla	r5, r0, r5, ip
   8622e:	1ab2      	subs	r2, r6, r2
   86230:	442b      	add	r3, r5
   86232:	eb67 0303 	sbc.w	r3, r7, r3
   86236:	4686      	mov	lr, r0
   86238:	e9c4 2300 	strd	r2, r3, [r4]
   8623c:	e8bd 81f0 	ldmia.w	sp!, {r4, r5, r6, r7, r8, pc}

00086240 <__gnu_uldivmod_helper>:
   86240:	e92d 43f8 	stmdb	sp!, {r3, r4, r5, r6, r7, r8, r9, lr}
   86244:	9e08      	ldr	r6, [sp, #32]
   86246:	4617      	mov	r7, r2
   86248:	4680      	mov	r8, r0
   8624a:	4689      	mov	r9, r1
   8624c:	461d      	mov	r5, r3
   8624e:	f000 f967 	bl	86520 <__udivdi3>
   86252:	fb00 f305 	mul.w	r3, r0, r5
   86256:	fba0 4507 	umull	r4, r5, r0, r7
   8625a:	fb07 3701 	mla	r7, r7, r1, r3
   8625e:	ebb8 0404 	subs.w	r4, r8, r4
   86262:	443d      	add	r5, r7
   86264:	eb69 0505 	sbc.w	r5, r9, r5
   86268:	e9c6 4500 	strd	r4, r5, [r6]
   8626c:	e8bd 83f8 	ldmia.w	sp!, {r3, r4, r5, r6, r7, r8, r9, pc}

00086270 <__aeabi_idiv0>:
   86270:	4770      	bx	lr
   86272:	bf00      	nop

00086274 <__divdi3>:
   86274:	2900      	cmp	r1, #0
   86276:	e92d 43f0 	stmdb	sp!, {r4, r5, r6, r7, r8, r9, lr}
   8627a:	f2c0 80a8 	blt.w	863ce <__divdi3+0x15a>
   8627e:	2600      	movs	r6, #0
   86280:	2b00      	cmp	r3, #0
   86282:	f2c0 809e 	blt.w	863c2 <__divdi3+0x14e>
   86286:	4681      	mov	r9, r0
   86288:	468e      	mov	lr, r1
   8628a:	4690      	mov	r8, r2
   8628c:	469c      	mov	ip, r3
   8628e:	4617      	mov	r7, r2
   86290:	4604      	mov	r4, r0
   86292:	460d      	mov	r5, r1
   86294:	2b00      	cmp	r3, #0
   86296:	d13d      	bne.n	86314 <__divdi3+0xa0>
   86298:	428a      	cmp	r2, r1
   8629a:	d959      	bls.n	86350 <__divdi3+0xdc>
   8629c:	fab2 f382 	clz	r3, r2
   862a0:	b13b      	cbz	r3, 862b2 <__divdi3+0x3e>
   862a2:	f1c3 0220 	rsb	r2, r3, #32
   862a6:	409d      	lsls	r5, r3
   862a8:	fa20 f202 	lsr.w	r2, r0, r2
   862ac:	409f      	lsls	r7, r3
   862ae:	4315      	orrs	r5, r2
   862b0:	409c      	lsls	r4, r3
   862b2:	0c39      	lsrs	r1, r7, #16
   862b4:	fbb5 f0f1 	udiv	r0, r5, r1
   862b8:	fa1f fe87 	uxth.w	lr, r7
   862bc:	fb01 5510 	mls	r5, r1, r0, r5
   862c0:	fb0e f300 	mul.w	r3, lr, r0
   862c4:	0c22      	lsrs	r2, r4, #16
   862c6:	ea42 4505 	orr.w	r5, r2, r5, lsl #16
   862ca:	42ab      	cmp	r3, r5
   862cc:	d909      	bls.n	862e2 <__divdi3+0x6e>
   862ce:	19ed      	adds	r5, r5, r7
   862d0:	f100 32ff 	add.w	r2, r0, #4294967295
   862d4:	f080 810b 	bcs.w	864ee <__divdi3+0x27a>
   862d8:	42ab      	cmp	r3, r5
   862da:	f240 8108 	bls.w	864ee <__divdi3+0x27a>
   862de:	3802      	subs	r0, #2
   862e0:	443d      	add	r5, r7
   862e2:	1aed      	subs	r5, r5, r3
   862e4:	fbb5 f3f1 	udiv	r3, r5, r1
   862e8:	fb01 5513 	mls	r5, r1, r3, r5
   862ec:	fb0e fe03 	mul.w	lr, lr, r3
   862f0:	b2a4      	uxth	r4, r4
   862f2:	ea44 4505 	orr.w	r5, r4, r5, lsl #16
   862f6:	45ae      	cmp	lr, r5
   862f8:	d908      	bls.n	8630c <__divdi3+0x98>
   862fa:	19ed      	adds	r5, r5, r7
   862fc:	f103 32ff 	add.w	r2, r3, #4294967295
   86300:	f080 80f7 	bcs.w	864f2 <__divdi3+0x27e>
   86304:	45ae      	cmp	lr, r5
   86306:	f240 80f4 	bls.w	864f2 <__divdi3+0x27e>
   8630a:	3b02      	subs	r3, #2
   8630c:	ea43 4300 	orr.w	r3, r3, r0, lsl #16
   86310:	2200      	movs	r2, #0
   86312:	e003      	b.n	8631c <__divdi3+0xa8>
   86314:	428b      	cmp	r3, r1
   86316:	d90f      	bls.n	86338 <__divdi3+0xc4>
   86318:	2200      	movs	r2, #0
   8631a:	4613      	mov	r3, r2
   8631c:	1c34      	adds	r4, r6, #0
   8631e:	bf18      	it	ne
   86320:	2401      	movne	r4, #1
   86322:	4260      	negs	r0, r4
   86324:	f04f 0500 	mov.w	r5, #0
   86328:	eb65 0145 	sbc.w	r1, r5, r5, lsl #1
   8632c:	4058      	eors	r0, r3
   8632e:	4051      	eors	r1, r2
   86330:	1900      	adds	r0, r0, r4
   86332:	4169      	adcs	r1, r5
   86334:	e8bd 83f0 	ldmia.w	sp!, {r4, r5, r6, r7, r8, r9, pc}
   86338:	fab3 f283 	clz	r2, r3
   8633c:	2a00      	cmp	r2, #0
   8633e:	f040 8089 	bne.w	86454 <__divdi3+0x1e0>
   86342:	428b      	cmp	r3, r1
   86344:	d302      	bcc.n	8634c <__divdi3+0xd8>
   86346:	4580      	cmp	r8, r0
   86348:	f200 80e2 	bhi.w	86510 <__divdi3+0x29c>
   8634c:	2301      	movs	r3, #1
   8634e:	e7e5      	b.n	8631c <__divdi3+0xa8>
   86350:	b912      	cbnz	r2, 86358 <__divdi3+0xe4>
   86352:	2301      	movs	r3, #1
   86354:	fbb3 f7f2 	udiv	r7, r3, r2
   86358:	fab7 f887 	clz	r8, r7
   8635c:	f1b8 0f00 	cmp.w	r8, #0
   86360:	d13b      	bne.n	863da <__divdi3+0x166>
   86362:	1bed      	subs	r5, r5, r7
   86364:	ea4f 4c17 	mov.w	ip, r7, lsr #16
   86368:	fa1f fe87 	uxth.w	lr, r7
   8636c:	2201      	movs	r2, #1
   8636e:	fbb5 f0fc 	udiv	r0, r5, ip
   86372:	fb0c 5510 	mls	r5, ip, r0, r5
   86376:	fb0e f300 	mul.w	r3, lr, r0
   8637a:	0c21      	lsrs	r1, r4, #16
   8637c:	ea41 4505 	orr.w	r5, r1, r5, lsl #16
   86380:	42ab      	cmp	r3, r5
   86382:	d907      	bls.n	86394 <__divdi3+0x120>
   86384:	19ed      	adds	r5, r5, r7
   86386:	f100 31ff 	add.w	r1, r0, #4294967295
   8638a:	d202      	bcs.n	86392 <__divdi3+0x11e>
   8638c:	42ab      	cmp	r3, r5
   8638e:	f200 80c3 	bhi.w	86518 <__divdi3+0x2a4>
   86392:	4608      	mov	r0, r1
   86394:	1aed      	subs	r5, r5, r3
   86396:	fbb5 f3fc 	udiv	r3, r5, ip
   8639a:	fb0c 5513 	mls	r5, ip, r3, r5
   8639e:	fb0e fe03 	mul.w	lr, lr, r3
   863a2:	b2a4      	uxth	r4, r4
   863a4:	ea44 4505 	orr.w	r5, r4, r5, lsl #16
   863a8:	45ae      	cmp	lr, r5
   863aa:	d907      	bls.n	863bc <__divdi3+0x148>
   863ac:	19ed      	adds	r5, r5, r7
   863ae:	f103 31ff 	add.w	r1, r3, #4294967295
   863b2:	d202      	bcs.n	863ba <__divdi3+0x146>
   863b4:	45ae      	cmp	lr, r5
   863b6:	f200 80ad 	bhi.w	86514 <__divdi3+0x2a0>
   863ba:	460b      	mov	r3, r1
   863bc:	ea43 4300 	orr.w	r3, r3, r0, lsl #16
   863c0:	e7ac      	b.n	8631c <__divdi3+0xa8>
   863c2:	4252      	negs	r2, r2
   863c4:	ea6f 0606 	mvn.w	r6, r6
   863c8:	eb63 0343 	sbc.w	r3, r3, r3, lsl #1
   863cc:	e75b      	b.n	86286 <__divdi3+0x12>
   863ce:	4240      	negs	r0, r0
   863d0:	eb61 0141 	sbc.w	r1, r1, r1, lsl #1
   863d4:	f04f 36ff 	mov.w	r6, #4294967295
   863d8:	e752      	b.n	86280 <__divdi3+0xc>
   863da:	fa07 f708 	lsl.w	r7, r7, r8
   863de:	f1c8 0220 	rsb	r2, r8, #32
   863e2:	fa25 f302 	lsr.w	r3, r5, r2
   863e6:	ea4f 4c17 	mov.w	ip, r7, lsr #16
   863ea:	fbb3 f1fc 	udiv	r1, r3, ip
   863ee:	fa1f fe87 	uxth.w	lr, r7
   863f2:	fb0c 3311 	mls	r3, ip, r1, r3
   863f6:	fa24 f202 	lsr.w	r2, r4, r2
   863fa:	fa05 f508 	lsl.w	r5, r5, r8
   863fe:	fb0e f901 	mul.w	r9, lr, r1
   86402:	432a      	orrs	r2, r5
   86404:	0c10      	lsrs	r0, r2, #16
   86406:	ea40 4303 	orr.w	r3, r0, r3, lsl #16
   8640a:	4599      	cmp	r9, r3
   8640c:	fa04 f408 	lsl.w	r4, r4, r8
   86410:	d907      	bls.n	86422 <__divdi3+0x1ae>
   86412:	19db      	adds	r3, r3, r7
   86414:	f101 30ff 	add.w	r0, r1, #4294967295
   86418:	d278      	bcs.n	8650c <__divdi3+0x298>
   8641a:	4599      	cmp	r9, r3
   8641c:	d976      	bls.n	8650c <__divdi3+0x298>
   8641e:	3902      	subs	r1, #2
   86420:	443b      	add	r3, r7
   86422:	ebc9 0303 	rsb	r3, r9, r3
   86426:	fbb3 f0fc 	udiv	r0, r3, ip
   8642a:	fb0c 3310 	mls	r3, ip, r0, r3
   8642e:	fb0e f500 	mul.w	r5, lr, r0
   86432:	b292      	uxth	r2, r2
   86434:	ea42 4303 	orr.w	r3, r2, r3, lsl #16
   86438:	429d      	cmp	r5, r3
   8643a:	d907      	bls.n	8644c <__divdi3+0x1d8>
   8643c:	19db      	adds	r3, r3, r7
   8643e:	f100 32ff 	add.w	r2, r0, #4294967295
   86442:	d25f      	bcs.n	86504 <__divdi3+0x290>
   86444:	429d      	cmp	r5, r3
   86446:	d95d      	bls.n	86504 <__divdi3+0x290>
   86448:	3802      	subs	r0, #2
   8644a:	443b      	add	r3, r7
   8644c:	1b5d      	subs	r5, r3, r5
   8644e:	ea40 4201 	orr.w	r2, r0, r1, lsl #16
   86452:	e78c      	b.n	8636e <__divdi3+0xfa>
   86454:	f1c2 0320 	rsb	r3, r2, #32
   86458:	fa28 f103 	lsr.w	r1, r8, r3
   8645c:	fa0c fc02 	lsl.w	ip, ip, r2
   86460:	ea41 0c0c 	orr.w	ip, r1, ip
   86464:	ea4f 401c 	mov.w	r0, ip, lsr #16
   86468:	fa2e f103 	lsr.w	r1, lr, r3
   8646c:	fbb1 f5f0 	udiv	r5, r1, r0
   86470:	fa1f f78c 	uxth.w	r7, ip
   86474:	fb00 1115 	mls	r1, r0, r5, r1
   86478:	fa29 f303 	lsr.w	r3, r9, r3
   8647c:	fa0e fe02 	lsl.w	lr, lr, r2
   86480:	fb07 f905 	mul.w	r9, r7, r5
   86484:	ea43 0e0e 	orr.w	lr, r3, lr
   86488:	ea4f 431e 	mov.w	r3, lr, lsr #16
   8648c:	ea43 4101 	orr.w	r1, r3, r1, lsl #16
   86490:	4589      	cmp	r9, r1
   86492:	fa08 f802 	lsl.w	r8, r8, r2
   86496:	d908      	bls.n	864aa <__divdi3+0x236>
   86498:	eb11 010c 	adds.w	r1, r1, ip
   8649c:	f105 33ff 	add.w	r3, r5, #4294967295
   864a0:	d232      	bcs.n	86508 <__divdi3+0x294>
   864a2:	4589      	cmp	r9, r1
   864a4:	d930      	bls.n	86508 <__divdi3+0x294>
   864a6:	3d02      	subs	r5, #2
   864a8:	4461      	add	r1, ip
   864aa:	ebc9 0101 	rsb	r1, r9, r1
   864ae:	fbb1 f3f0 	udiv	r3, r1, r0
   864b2:	fb00 1113 	mls	r1, r0, r3, r1
   864b6:	fb07 f703 	mul.w	r7, r7, r3
   864ba:	fa1f fe8e 	uxth.w	lr, lr
   864be:	ea4e 4e01 	orr.w	lr, lr, r1, lsl #16
   864c2:	4577      	cmp	r7, lr
   864c4:	d908      	bls.n	864d8 <__divdi3+0x264>
   864c6:	eb1e 0e0c 	adds.w	lr, lr, ip
   864ca:	f103 31ff 	add.w	r1, r3, #4294967295
   864ce:	d217      	bcs.n	86500 <__divdi3+0x28c>
   864d0:	4577      	cmp	r7, lr
   864d2:	d915      	bls.n	86500 <__divdi3+0x28c>
   864d4:	3b02      	subs	r3, #2
   864d6:	44e6      	add	lr, ip
   864d8:	ea43 4305 	orr.w	r3, r3, r5, lsl #16
   864dc:	fba3 8908 	umull	r8, r9, r3, r8
   864e0:	ebc7 0e0e 	rsb	lr, r7, lr
   864e4:	45ce      	cmp	lr, r9
   864e6:	d309      	bcc.n	864fc <__divdi3+0x288>
   864e8:	d005      	beq.n	864f6 <__divdi3+0x282>
   864ea:	2200      	movs	r2, #0
   864ec:	e716      	b.n	8631c <__divdi3+0xa8>
   864ee:	4610      	mov	r0, r2
   864f0:	e6f7      	b.n	862e2 <__divdi3+0x6e>
   864f2:	4613      	mov	r3, r2
   864f4:	e70a      	b.n	8630c <__divdi3+0x98>
   864f6:	4094      	lsls	r4, r2
   864f8:	4544      	cmp	r4, r8
   864fa:	d2f6      	bcs.n	864ea <__divdi3+0x276>
   864fc:	3b01      	subs	r3, #1
   864fe:	e7f4      	b.n	864ea <__divdi3+0x276>
   86500:	460b      	mov	r3, r1
   86502:	e7e9      	b.n	864d8 <__divdi3+0x264>
   86504:	4610      	mov	r0, r2
   86506:	e7a1      	b.n	8644c <__divdi3+0x1d8>
   86508:	461d      	mov	r5, r3
   8650a:	e7ce      	b.n	864aa <__divdi3+0x236>
   8650c:	4601      	mov	r1, r0
   8650e:	e788      	b.n	86422 <__divdi3+0x1ae>
   86510:	4613      	mov	r3, r2
   86512:	e703      	b.n	8631c <__divdi3+0xa8>
   86514:	3b02      	subs	r3, #2
   86516:	e751      	b.n	863bc <__divdi3+0x148>
   86518:	3802      	subs	r0, #2
   8651a:	443d      	add	r5, r7
   8651c:	e73a      	b.n	86394 <__divdi3+0x120>
   8651e:	bf00      	nop

00086520 <__udivdi3>:
   86520:	e92d 43f0 	stmdb	sp!, {r4, r5, r6, r7, r8, r9, lr}
   86524:	2b00      	cmp	r3, #0
   86526:	d144      	bne.n	865b2 <__udivdi3+0x92>
   86528:	428a      	cmp	r2, r1
   8652a:	4615      	mov	r5, r2
   8652c:	4604      	mov	r4, r0
   8652e:	d94f      	bls.n	865d0 <__udivdi3+0xb0>
   86530:	fab2 f782 	clz	r7, r2
   86534:	460e      	mov	r6, r1
   86536:	b14f      	cbz	r7, 8654c <__udivdi3+0x2c>
   86538:	f1c7 0320 	rsb	r3, r7, #32
   8653c:	40b9      	lsls	r1, r7
   8653e:	fa20 f603 	lsr.w	r6, r0, r3
   86542:	fa02 f507 	lsl.w	r5, r2, r7
   86546:	430e      	orrs	r6, r1
   86548:	fa00 f407 	lsl.w	r4, r0, r7
   8654c:	0c2f      	lsrs	r7, r5, #16
   8654e:	fbb6 f0f7 	udiv	r0, r6, r7
   86552:	fa1f fe85 	uxth.w	lr, r5
   86556:	fb07 6210 	mls	r2, r7, r0, r6
   8655a:	fb0e f100 	mul.w	r1, lr, r0
   8655e:	0c26      	lsrs	r6, r4, #16
   86560:	ea46 4302 	orr.w	r3, r6, r2, lsl #16
   86564:	4299      	cmp	r1, r3
   86566:	d909      	bls.n	8657c <__udivdi3+0x5c>
   86568:	195b      	adds	r3, r3, r5
   8656a:	f100 32ff 	add.w	r2, r0, #4294967295
   8656e:	f080 80ee 	bcs.w	8674e <__udivdi3+0x22e>
   86572:	4299      	cmp	r1, r3
   86574:	f240 80eb 	bls.w	8674e <__udivdi3+0x22e>
   86578:	3802      	subs	r0, #2
   8657a:	442b      	add	r3, r5
   8657c:	1a59      	subs	r1, r3, r1
   8657e:	fbb1 f3f7 	udiv	r3, r1, r7
   86582:	fb07 1113 	mls	r1, r7, r3, r1
   86586:	fb0e fe03 	mul.w	lr, lr, r3
   8658a:	b2a4      	uxth	r4, r4
   8658c:	ea44 4101 	orr.w	r1, r4, r1, lsl #16
   86590:	458e      	cmp	lr, r1
   86592:	d908      	bls.n	865a6 <__udivdi3+0x86>
   86594:	1949      	adds	r1, r1, r5
   86596:	f103 32ff 	add.w	r2, r3, #4294967295
   8659a:	f080 80da 	bcs.w	86752 <__udivdi3+0x232>
   8659e:	458e      	cmp	lr, r1
   865a0:	f240 80d7 	bls.w	86752 <__udivdi3+0x232>
   865a4:	3b02      	subs	r3, #2
   865a6:	ea43 4000 	orr.w	r0, r3, r0, lsl #16
   865aa:	2600      	movs	r6, #0
   865ac:	4631      	mov	r1, r6
   865ae:	e8bd 83f0 	ldmia.w	sp!, {r4, r5, r6, r7, r8, r9, pc}
   865b2:	428b      	cmp	r3, r1
   865b4:	d847      	bhi.n	86646 <__udivdi3+0x126>
   865b6:	fab3 f683 	clz	r6, r3
   865ba:	2e00      	cmp	r6, #0
   865bc:	d148      	bne.n	86650 <__udivdi3+0x130>
   865be:	428b      	cmp	r3, r1
   865c0:	d302      	bcc.n	865c8 <__udivdi3+0xa8>
   865c2:	4282      	cmp	r2, r0
   865c4:	f200 80cf 	bhi.w	86766 <__udivdi3+0x246>
   865c8:	2001      	movs	r0, #1
   865ca:	4631      	mov	r1, r6
   865cc:	e8bd 83f0 	ldmia.w	sp!, {r4, r5, r6, r7, r8, r9, pc}
   865d0:	b912      	cbnz	r2, 865d8 <__udivdi3+0xb8>
   865d2:	2501      	movs	r5, #1
   865d4:	fbb5 f5f2 	udiv	r5, r5, r2
   865d8:	fab5 fc85 	clz	ip, r5
   865dc:	f1bc 0f00 	cmp.w	ip, #0
   865e0:	d178      	bne.n	866d4 <__udivdi3+0x1b4>
   865e2:	1b49      	subs	r1, r1, r5
   865e4:	0c2f      	lsrs	r7, r5, #16
   865e6:	fa1f fe85 	uxth.w	lr, r5
   865ea:	2601      	movs	r6, #1
   865ec:	fbb1 f0f7 	udiv	r0, r1, r7
   865f0:	fb07 1110 	mls	r1, r7, r0, r1
   865f4:	fb0e f200 	mul.w	r2, lr, r0
   865f8:	0c23      	lsrs	r3, r4, #16
   865fa:	ea43 4101 	orr.w	r1, r3, r1, lsl #16
   865fe:	428a      	cmp	r2, r1
   86600:	d907      	bls.n	86612 <__udivdi3+0xf2>
   86602:	1949      	adds	r1, r1, r5
   86604:	f100 33ff 	add.w	r3, r0, #4294967295
   86608:	d202      	bcs.n	86610 <__udivdi3+0xf0>
   8660a:	428a      	cmp	r2, r1
   8660c:	f200 80bc 	bhi.w	86788 <__udivdi3+0x268>
   86610:	4618      	mov	r0, r3
   86612:	1a89      	subs	r1, r1, r2
   86614:	fbb1 f3f7 	udiv	r3, r1, r7
   86618:	fb07 1113 	mls	r1, r7, r3, r1
   8661c:	fb0e fe03 	mul.w	lr, lr, r3
   86620:	b2a4      	uxth	r4, r4
   86622:	ea44 4201 	orr.w	r2, r4, r1, lsl #16
   86626:	4596      	cmp	lr, r2
   86628:	d908      	bls.n	8663c <__udivdi3+0x11c>
   8662a:	1952      	adds	r2, r2, r5
   8662c:	f103 31ff 	add.w	r1, r3, #4294967295
   86630:	f080 8091 	bcs.w	86756 <__udivdi3+0x236>
   86634:	4596      	cmp	lr, r2
   86636:	f240 808e 	bls.w	86756 <__udivdi3+0x236>
   8663a:	3b02      	subs	r3, #2
   8663c:	ea43 4000 	orr.w	r0, r3, r0, lsl #16
   86640:	4631      	mov	r1, r6
   86642:	e8bd 83f0 	ldmia.w	sp!, {r4, r5, r6, r7, r8, r9, pc}
   86646:	2600      	movs	r6, #0
   86648:	4630      	mov	r0, r6
   8664a:	4631      	mov	r1, r6
   8664c:	e8bd 83f0 	ldmia.w	sp!, {r4, r5, r6, r7, r8, r9, pc}
   86650:	f1c6 0420 	rsb	r4, r6, #32
   86654:	fa22 f504 	lsr.w	r5, r2, r4
   86658:	40b3      	lsls	r3, r6
   8665a:	432b      	orrs	r3, r5
   8665c:	fa21 f704 	lsr.w	r7, r1, r4
   86660:	ea4f 4813 	mov.w	r8, r3, lsr #16
   86664:	fbb7 fcf8 	udiv	ip, r7, r8
   86668:	fa1f f983 	uxth.w	r9, r3
   8666c:	fb08 771c 	mls	r7, r8, ip, r7
   86670:	fa20 fe04 	lsr.w	lr, r0, r4
   86674:	fa01 f506 	lsl.w	r5, r1, r6
   86678:	fb09 f40c 	mul.w	r4, r9, ip
   8667c:	ea4e 0505 	orr.w	r5, lr, r5
   86680:	ea4f 4e15 	mov.w	lr, r5, lsr #16
   86684:	ea4e 4707 	orr.w	r7, lr, r7, lsl #16
   86688:	42bc      	cmp	r4, r7
   8668a:	fa02 f206 	lsl.w	r2, r2, r6
   8668e:	d904      	bls.n	8669a <__udivdi3+0x17a>
   86690:	18ff      	adds	r7, r7, r3
   86692:	f10c 31ff 	add.w	r1, ip, #4294967295
   86696:	d368      	bcc.n	8676a <__udivdi3+0x24a>
   86698:	468c      	mov	ip, r1
   8669a:	1b3f      	subs	r7, r7, r4
   8669c:	fbb7 f4f8 	udiv	r4, r7, r8
   866a0:	fb08 7714 	mls	r7, r8, r4, r7
   866a4:	fb09 f904 	mul.w	r9, r9, r4
   866a8:	b2ad      	uxth	r5, r5
   866aa:	ea45 4107 	orr.w	r1, r5, r7, lsl #16
   866ae:	4589      	cmp	r9, r1
   866b0:	d904      	bls.n	866bc <__udivdi3+0x19c>
   866b2:	18c9      	adds	r1, r1, r3
   866b4:	f104 35ff 	add.w	r5, r4, #4294967295
   866b8:	d35d      	bcc.n	86776 <__udivdi3+0x256>
   866ba:	462c      	mov	r4, r5
   866bc:	ea44 440c 	orr.w	r4, r4, ip, lsl #16
   866c0:	fba4 2302 	umull	r2, r3, r4, r2
   866c4:	ebc9 0101 	rsb	r1, r9, r1
   866c8:	4299      	cmp	r1, r3
   866ca:	d349      	bcc.n	86760 <__udivdi3+0x240>
   866cc:	d045      	beq.n	8675a <__udivdi3+0x23a>
   866ce:	4620      	mov	r0, r4
   866d0:	2600      	movs	r6, #0
   866d2:	e76b      	b.n	865ac <__udivdi3+0x8c>
   866d4:	f1cc 0420 	rsb	r4, ip, #32
   866d8:	fa05 f50c 	lsl.w	r5, r5, ip
   866dc:	fa21 f304 	lsr.w	r3, r1, r4
   866e0:	0c2a      	lsrs	r2, r5, #16
   866e2:	fbb3 f6f2 	udiv	r6, r3, r2
   866e6:	fa1f fe85 	uxth.w	lr, r5
   866ea:	fb02 3816 	mls	r8, r2, r6, r3
   866ee:	fa20 f704 	lsr.w	r7, r0, r4
   866f2:	fa01 f10c 	lsl.w	r1, r1, ip
   866f6:	fb0e f906 	mul.w	r9, lr, r6
   866fa:	430f      	orrs	r7, r1
   866fc:	0c3c      	lsrs	r4, r7, #16
   866fe:	ea44 4308 	orr.w	r3, r4, r8, lsl #16
   86702:	4599      	cmp	r9, r3
   86704:	fa00 f40c 	lsl.w	r4, r0, ip
   86708:	d907      	bls.n	8671a <__udivdi3+0x1fa>
   8670a:	195b      	adds	r3, r3, r5
   8670c:	f106 31ff 	add.w	r1, r6, #4294967295
   86710:	d238      	bcs.n	86784 <__udivdi3+0x264>
   86712:	4599      	cmp	r9, r3
   86714:	d936      	bls.n	86784 <__udivdi3+0x264>
   86716:	3e02      	subs	r6, #2
   86718:	442b      	add	r3, r5
   8671a:	ebc9 0303 	rsb	r3, r9, r3
   8671e:	fbb3 f0f2 	udiv	r0, r3, r2
   86722:	fb02 3310 	mls	r3, r2, r0, r3
   86726:	fb0e f100 	mul.w	r1, lr, r0
   8672a:	b2bf      	uxth	r7, r7
   8672c:	ea47 4303 	orr.w	r3, r7, r3, lsl #16
   86730:	4299      	cmp	r1, r3
   86732:	d907      	bls.n	86744 <__udivdi3+0x224>
   86734:	195b      	adds	r3, r3, r5
   86736:	f100 37ff 	add.w	r7, r0, #4294967295
   8673a:	d221      	bcs.n	86780 <__udivdi3+0x260>
   8673c:	4299      	cmp	r1, r3
   8673e:	d91f      	bls.n	86780 <__udivdi3+0x260>
   86740:	3802      	subs	r0, #2
   86742:	442b      	add	r3, r5
   86744:	4617      	mov	r7, r2
   86746:	1a59      	subs	r1, r3, r1
   86748:	ea40 4606 	orr.w	r6, r0, r6, lsl #16
   8674c:	e74e      	b.n	865ec <__udivdi3+0xcc>
   8674e:	4610      	mov	r0, r2
   86750:	e714      	b.n	8657c <__udivdi3+0x5c>
   86752:	4613      	mov	r3, r2
   86754:	e727      	b.n	865a6 <__udivdi3+0x86>
   86756:	460b      	mov	r3, r1
   86758:	e770      	b.n	8663c <__udivdi3+0x11c>
   8675a:	40b0      	lsls	r0, r6
   8675c:	4290      	cmp	r0, r2
   8675e:	d2b6      	bcs.n	866ce <__udivdi3+0x1ae>
   86760:	1e60      	subs	r0, r4, #1
   86762:	2600      	movs	r6, #0
   86764:	e722      	b.n	865ac <__udivdi3+0x8c>
   86766:	4630      	mov	r0, r6
   86768:	e720      	b.n	865ac <__udivdi3+0x8c>
   8676a:	42bc      	cmp	r4, r7
   8676c:	d994      	bls.n	86698 <__udivdi3+0x178>
   8676e:	f1ac 0c02 	sub.w	ip, ip, #2
   86772:	441f      	add	r7, r3
   86774:	e791      	b.n	8669a <__udivdi3+0x17a>
   86776:	4589      	cmp	r9, r1
   86778:	d99f      	bls.n	866ba <__udivdi3+0x19a>
   8677a:	3c02      	subs	r4, #2
   8677c:	4419      	add	r1, r3
   8677e:	e79d      	b.n	866bc <__udivdi3+0x19c>
   86780:	4638      	mov	r0, r7
   86782:	e7df      	b.n	86744 <__udivdi3+0x224>
   86784:	460e      	mov	r6, r1
   86786:	e7c8      	b.n	8671a <__udivdi3+0x1fa>
   86788:	3802      	subs	r0, #2
   8678a:	4429      	add	r1, r5
   8678c:	e741      	b.n	86612 <__udivdi3+0xf2>
   8678e:	bf00      	nop
   86790:	00000001 	.word	0x00000001
   86794:	00000002 	.word	0x00000002
   86798:	00000004 	.word	0x00000004
   8679c:	00000008 	.word	0x00000008
   867a0:	00000010 	.word	0x00000010
   867a4:	00000020 	.word	0x00000020
   867a8:	00000040 	.word	0x00000040
   867ac:	00000080 	.word	0x00000080
   867b0:	00000100 	.word	0x00000100
   867b4:	00000200 	.word	0x00000200
   867b8:	00000400 	.word	0x00000400
   867bc:	656c6449 	.word	0x656c6449
   867c0:	00000000 	.word	0x00000000
   867c4:	006d6f43 	.word	0x006d6f43
   867c8:	75676552 	.word	0x75676552
   867cc:	6574616c 	.word	0x6574616c
   867d0:	00000000 	.word	0x00000000
   867d4:	09097325 	.word	0x09097325
   867d8:	25096325 	.word	0x25096325
   867dc:	75250975 	.word	0x75250975
   867e0:	0d752509 	.word	0x0d752509
   867e4:	0000000a 	.word	0x0000000a
   867e8:	454c4449 	.word	0x454c4449
   867ec:	00000000 	.word	0x00000000
   867f0:	00000a0d 	.word	0x00000a0d
   867f4:	20726d54 	.word	0x20726d54
   867f8:	00637653 	.word	0x00637653
   867fc:	00000043 	.word	0x00000043

00086800 <_global_impure_ptr>:
   86800:	20070148 33323130 37363534 62613938     H.. 0123456789ab
   86810:	66656463 6a696867 6e6d6c6b 7271706f     cdefghijklmnopqr
   86820:	76757473 7a797877 00000000              stuvwxyz....

0008682c <zeroes.6869>:
   8682c:	30303030 30303030 30303030 30303030     0000000000000000
   8683c:	33323130 37363534 42413938 46454443     0123456789ABCDEF
   8684c:	00000000 33323130 37363534 62613938     ....0123456789ab
   8685c:	66656463 00000000 6c756e28 0000296c     cdef....(null)..

0008686c <blanks.6868>:
   8686c:	20202020 20202020 20202020 20202020                     

0008687c <_ctype_>:
   8687c:	20202000 20202020 28282020 20282828     .         ((((( 
   8688c:	20202020 20202020 20202020 20202020                     
   8689c:	10108820 10101010 10101010 10101010      ...............
   868ac:	04040410 04040404 10040404 10101010     ................
   868bc:	41411010 41414141 01010101 01010101     ..AAAAAA........
   868cc:	01010101 01010101 01010101 10101010     ................
   868dc:	42421010 42424242 02020202 02020202     ..BBBBBB........
   868ec:	02020202 02020202 02020202 10101010     ................
   868fc:	00000020 00000000 00000000 00000000      ...............
	...

00086980 <_init>:
   86980:	b5f8      	push	{r3, r4, r5, r6, r7, lr}
   86982:	bf00      	nop
   86984:	bcf8      	pop	{r3, r4, r5, r6, r7}
   86986:	bc08      	pop	{r3}
   86988:	469e      	mov	lr, r3
   8698a:	4770      	bx	lr

0008698c <__init_array_start>:
   8698c:	000847cd 	.word	0x000847cd

00086990 <__frame_dummy_init_array_entry>:
   86990:	00080119                                ....

00086994 <_fini>:
   86994:	b5f8      	push	{r3, r4, r5, r6, r7, lr}
   86996:	bf00      	nop
   86998:	bcf8      	pop	{r3, r4, r5, r6, r7}
   8699a:	bc08      	pop	{r3}
   8699c:	469e      	mov	lr, r3
   8699e:	4770      	bx	lr

000869a0 <__fini_array_start>:
   869a0:	000800f5 	.word	0x000800f5

Disassembly of section .relocate:

20070000 <SystemInit>:
__no_inline
RAMFUNC
void SystemInit(void)
{
	/* Set FWS according to SYS_BOARD_MCKR configuration */
	EFC0->EEFC_FMR = EEFC_FMR_FWS(4);
20070000:	f44f 6380 	mov.w	r3, #1024	; 0x400
20070004:	4a20      	ldr	r2, [pc, #128]	; (20070088 <SystemInit+0x88>)
20070006:	6013      	str	r3, [r2, #0]
	EFC1->EEFC_FMR = EEFC_FMR_FWS(4);
20070008:	f502 7200 	add.w	r2, r2, #512	; 0x200
2007000c:	6013      	str	r3, [r2, #0]

	/* Initialize main oscillator */
	if (!(PMC->CKGR_MOR & CKGR_MOR_MOSCSEL)) {
2007000e:	4b1f      	ldr	r3, [pc, #124]	; (2007008c <SystemInit+0x8c>)
20070010:	6a1b      	ldr	r3, [r3, #32]
20070012:	f013 7f80 	tst.w	r3, #16777216	; 0x1000000
20070016:	d107      	bne.n	20070028 <SystemInit+0x28>
		PMC->CKGR_MOR = SYS_CKGR_MOR_KEY_VALUE | SYS_BOARD_OSCOUNT | 
20070018:	4a1d      	ldr	r2, [pc, #116]	; (20070090 <SystemInit+0x90>)
2007001a:	4b1c      	ldr	r3, [pc, #112]	; (2007008c <SystemInit+0x8c>)
2007001c:	621a      	str	r2, [r3, #32]
			                     CKGR_MOR_MOSCRCEN | CKGR_MOR_MOSCXTEN;
		while (!(PMC->PMC_SR & PMC_SR_MOSCXTS)) {
2007001e:	461a      	mov	r2, r3
20070020:	6e93      	ldr	r3, [r2, #104]	; 0x68
20070022:	f013 0f01 	tst.w	r3, #1
20070026:	d0fb      	beq.n	20070020 <SystemInit+0x20>
		}
	}

	/* Switch to 3-20MHz Xtal oscillator */
	PMC->CKGR_MOR = SYS_CKGR_MOR_KEY_VALUE | SYS_BOARD_OSCOUNT | 
20070028:	4a1a      	ldr	r2, [pc, #104]	; (20070094 <SystemInit+0x94>)
2007002a:	4b18      	ldr	r3, [pc, #96]	; (2007008c <SystemInit+0x8c>)
2007002c:	621a      	str	r2, [r3, #32]
	                           CKGR_MOR_MOSCRCEN | CKGR_MOR_MOSCXTEN | CKGR_MOR_MOSCSEL;

	while (!(PMC->PMC_SR & PMC_SR_MOSCSELS)) {
2007002e:	461a      	mov	r2, r3
20070030:	6e93      	ldr	r3, [r2, #104]	; 0x68
20070032:	f413 3f80 	tst.w	r3, #65536	; 0x10000
20070036:	d0fb      	beq.n	20070030 <SystemInit+0x30>
	}
 	PMC->PMC_MCKR = (PMC->PMC_MCKR & ~(uint32_t)PMC_MCKR_CSS_Msk) | 
20070038:	4a14      	ldr	r2, [pc, #80]	; (2007008c <SystemInit+0x8c>)
2007003a:	6b13      	ldr	r3, [r2, #48]	; 0x30
2007003c:	f023 0303 	bic.w	r3, r3, #3
20070040:	f043 0301 	orr.w	r3, r3, #1
20070044:	6313      	str	r3, [r2, #48]	; 0x30
		                     PMC_MCKR_CSS_MAIN_CLK;
	while (!(PMC->PMC_SR & PMC_SR_MCKRDY)) {
20070046:	6e93      	ldr	r3, [r2, #104]	; 0x68
20070048:	f013 0f08 	tst.w	r3, #8
2007004c:	d0fb      	beq.n	20070046 <SystemInit+0x46>
	}

	/* Initialize PLLA */
	PMC->CKGR_PLLAR = SYS_BOARD_PLLAR;
2007004e:	4a12      	ldr	r2, [pc, #72]	; (20070098 <SystemInit+0x98>)
20070050:	4b0e      	ldr	r3, [pc, #56]	; (2007008c <SystemInit+0x8c>)
20070052:	629a      	str	r2, [r3, #40]	; 0x28
	while (!(PMC->PMC_SR & PMC_SR_LOCKA)) {
20070054:	461a      	mov	r2, r3
20070056:	6e93      	ldr	r3, [r2, #104]	; 0x68
20070058:	f013 0f02 	tst.w	r3, #2
2007005c:	d0fb      	beq.n	20070056 <SystemInit+0x56>
	}

	/* Switch to main clock */
	PMC->PMC_MCKR = (SYS_BOARD_MCKR & ~PMC_MCKR_CSS_Msk) | PMC_MCKR_CSS_MAIN_CLK;
2007005e:	2211      	movs	r2, #17
20070060:	4b0a      	ldr	r3, [pc, #40]	; (2007008c <SystemInit+0x8c>)
20070062:	631a      	str	r2, [r3, #48]	; 0x30
	while (!(PMC->PMC_SR & PMC_SR_MCKRDY)) {
20070064:	461a      	mov	r2, r3
20070066:	6e93      	ldr	r3, [r2, #104]	; 0x68
20070068:	f013 0f08 	tst.w	r3, #8
2007006c:	d0fb      	beq.n	20070066 <SystemInit+0x66>
	}

	/* Switch to PLLA */
	PMC->PMC_MCKR = SYS_BOARD_MCKR;
2007006e:	2212      	movs	r2, #18
20070070:	4b06      	ldr	r3, [pc, #24]	; (2007008c <SystemInit+0x8c>)
20070072:	631a      	str	r2, [r3, #48]	; 0x30
	while (!(PMC->PMC_SR & PMC_SR_MCKRDY)) {
20070074:	461a      	mov	r2, r3
20070076:	6e93      	ldr	r3, [r2, #104]	; 0x68
20070078:	f013 0f08 	tst.w	r3, #8
2007007c:	d0fb      	beq.n	20070076 <SystemInit+0x76>
	}

	SystemCoreClock = CHIP_FREQ_CPU_MAX;
2007007e:	4a07      	ldr	r2, [pc, #28]	; (2007009c <SystemInit+0x9c>)
20070080:	4b07      	ldr	r3, [pc, #28]	; (200700a0 <SystemInit+0xa0>)
20070082:	601a      	str	r2, [r3, #0]
20070084:	4770      	bx	lr
20070086:	bf00      	nop
20070088:	400e0a00 	.word	0x400e0a00
2007008c:	400e0600 	.word	0x400e0600
20070090:	00370809 	.word	0x00370809
20070094:	01370809 	.word	0x01370809
20070098:	200d3f01 	.word	0x200d3f01
2007009c:	0501bd00 	.word	0x0501bd00
200700a0:	20070144 	.word	0x20070144

200700a4 <system_init_flash>:
__no_inline
RAMFUNC
void system_init_flash(uint32_t ul_clk)
{
	/* Set FWS for embedded Flash access according to operating frequency */
	if (ul_clk < CHIP_FREQ_FWS_0) {
200700a4:	4b1b      	ldr	r3, [pc, #108]	; (20070114 <system_init_flash+0x70>)
200700a6:	4298      	cmp	r0, r3
200700a8:	d806      	bhi.n	200700b8 <system_init_flash+0x14>
		EFC0->EEFC_FMR = EEFC_FMR_FWS(0);
200700aa:	2300      	movs	r3, #0
200700ac:	4a1a      	ldr	r2, [pc, #104]	; (20070118 <system_init_flash+0x74>)
200700ae:	6013      	str	r3, [r2, #0]
		EFC1->EEFC_FMR = EEFC_FMR_FWS(0);
200700b0:	f502 7200 	add.w	r2, r2, #512	; 0x200
200700b4:	6013      	str	r3, [r2, #0]
200700b6:	4770      	bx	lr
	} else if (ul_clk < CHIP_FREQ_FWS_1) {
200700b8:	4b18      	ldr	r3, [pc, #96]	; (2007011c <system_init_flash+0x78>)
200700ba:	4298      	cmp	r0, r3
200700bc:	d807      	bhi.n	200700ce <system_init_flash+0x2a>
		EFC0->EEFC_FMR = EEFC_FMR_FWS(1);
200700be:	f44f 7380 	mov.w	r3, #256	; 0x100
200700c2:	4a15      	ldr	r2, [pc, #84]	; (20070118 <system_init_flash+0x74>)
200700c4:	6013      	str	r3, [r2, #0]
		EFC1->EEFC_FMR = EEFC_FMR_FWS(1);
200700c6:	f502 7200 	add.w	r2, r2, #512	; 0x200
200700ca:	6013      	str	r3, [r2, #0]
200700cc:	4770      	bx	lr
	} else if (ul_clk < CHIP_FREQ_FWS_2) {
200700ce:	4b14      	ldr	r3, [pc, #80]	; (20070120 <system_init_flash+0x7c>)
200700d0:	4298      	cmp	r0, r3
200700d2:	d807      	bhi.n	200700e4 <system_init_flash+0x40>
		EFC0->EEFC_FMR = EEFC_FMR_FWS(2);
200700d4:	f44f 7300 	mov.w	r3, #512	; 0x200
200700d8:	4a0f      	ldr	r2, [pc, #60]	; (20070118 <system_init_flash+0x74>)
200700da:	6013      	str	r3, [r2, #0]
		EFC1->EEFC_FMR = EEFC_FMR_FWS(2);
200700dc:	f502 7200 	add.w	r2, r2, #512	; 0x200
200700e0:	6013      	str	r3, [r2, #0]
200700e2:	4770      	bx	lr
	} else if (ul_clk < CHIP_FREQ_FWS_3) {
200700e4:	4b0f      	ldr	r3, [pc, #60]	; (20070124 <system_init_flash+0x80>)
200700e6:	4298      	cmp	r0, r3
200700e8:	d807      	bhi.n	200700fa <system_init_flash+0x56>
		EFC0->EEFC_FMR = EEFC_FMR_FWS(3);
200700ea:	f44f 7340 	mov.w	r3, #768	; 0x300
200700ee:	4a0a      	ldr	r2, [pc, #40]	; (20070118 <system_init_flash+0x74>)
200700f0:	6013      	str	r3, [r2, #0]
		EFC1->EEFC_FMR = EEFC_FMR_FWS(3);
200700f2:	f502 7200 	add.w	r2, r2, #512	; 0x200
200700f6:	6013      	str	r3, [r2, #0]
200700f8:	4770      	bx	lr
	} else if (ul_clk < CHIP_FREQ_FWS_4) {
200700fa:	4b0b      	ldr	r3, [pc, #44]	; (20070128 <system_init_flash+0x84>)
200700fc:	4298      	cmp	r0, r3
		EFC0->EEFC_FMR = EEFC_FMR_FWS(4);
200700fe:	bf94      	ite	ls
20070100:	f44f 6380 	movls.w	r3, #1024	; 0x400
		EFC1->EEFC_FMR = EEFC_FMR_FWS(4);	
	} else {
		EFC0->EEFC_FMR = EEFC_FMR_FWS(5);
20070104:	f44f 63a0 	movhi.w	r3, #1280	; 0x500
20070108:	4a03      	ldr	r2, [pc, #12]	; (20070118 <system_init_flash+0x74>)
2007010a:	6013      	str	r3, [r2, #0]
		EFC1->EEFC_FMR = EEFC_FMR_FWS(5);
2007010c:	f502 7200 	add.w	r2, r2, #512	; 0x200
20070110:	6013      	str	r3, [r2, #0]
20070112:	4770      	bx	lr
20070114:	0121eabf 	.word	0x0121eabf
20070118:	400e0a00 	.word	0x400e0a00
2007011c:	02faf07f 	.word	0x02faf07f
20070120:	03d08fff 	.word	0x03d08fff
20070124:	04c4b3ff 	.word	0x04c4b3ff
20070128:	055d4a7f 	.word	0x055d4a7f

2007012c <p_adc_distance>:
2007012c:	20070a6c                                l.. 

20070130 <sync>:
20070130:	00000001                                ....

20070134 <timer>:
20070134:	029a0032                                         2.

20070136 <dac_value>:
20070136:	aaaa029a                                         ..

20070138 <uxCriticalNesting>:
20070138:	aaaaaaaa                                ....

2007013c <xFreeBytesRemaining>:
2007013c:	00008000                                ....

20070140 <xNextTaskUnblockTime>:
20070140:	0001ffff                                         ..

20070142 <g_interrupt_enabled>:
20070142:	09000001                                         ..

20070144 <SystemCoreClock>:
20070144:	003d0900                                ..=.

20070148 <impure_data>:
20070148:	00000000 20070434 2007049c 20070504     ....4.. ... ... 
	...
2007017c:	000867fc 00000000 00000000 00000000     .g..............
	...
200701f0:	00000001 00000000 abcd330e e66d1234     .........3..4.m.
20070200:	0005deec 0000000b 00000000 00000000     ................
	...

20070570 <_impure_ptr>:
20070570:	20070148                                H.. 

20070574 <__ctype_ptr__>:
20070574:	0008687c                                |h..

20070578 <lc_ctype_charset>:
20070578:	49435341 00000049 00000000 00000000     ASCII...........
	...

20070598 <__mb_cur_max>:
20070598:	00000001                                ....

2007059c <__malloc_av_>:
	...
200705a4:	2007059c 2007059c 200705a4 200705a4     ... ... ... ... 
200705b4:	200705ac 200705ac 200705b4 200705b4     ... ... ... ... 
200705c4:	200705bc 200705bc 200705c4 200705c4     ... ... ... ... 
200705d4:	200705cc 200705cc 200705d4 200705d4     ... ... ... ... 
200705e4:	200705dc 200705dc 200705e4 200705e4     ... ... ... ... 
200705f4:	200705ec 200705ec 200705f4 200705f4     ... ... ... ... 
20070604:	200705fc 200705fc 20070604 20070604     ... ... ... ... 
20070614:	2007060c 2007060c 20070614 20070614     ... ... ... ... 
20070624:	2007061c 2007061c 20070624 20070624     ... ... $.. $.. 
20070634:	2007062c 2007062c 20070634 20070634     ,.. ,.. 4.. 4.. 
20070644:	2007063c 2007063c 20070644 20070644     <.. <.. D.. D.. 
20070654:	2007064c 2007064c 20070654 20070654     L.. L.. T.. T.. 
20070664:	2007065c 2007065c 20070664 20070664     \.. \.. d.. d.. 
20070674:	2007066c 2007066c 20070674 20070674     l.. l.. t.. t.. 
20070684:	2007067c 2007067c 20070684 20070684     |.. |.. ... ... 
20070694:	2007068c 2007068c 20070694 20070694     ... ... ... ... 
200706a4:	2007069c 2007069c 200706a4 200706a4     ... ... ... ... 
200706b4:	200706ac 200706ac 200706b4 200706b4     ... ... ... ... 
200706c4:	200706bc 200706bc 200706c4 200706c4     ... ... ... ... 
200706d4:	200706cc 200706cc 200706d4 200706d4     ... ... ... ... 
200706e4:	200706dc 200706dc 200706e4 200706e4     ... ... ... ... 
200706f4:	200706ec 200706ec 200706f4 200706f4     ... ... ... ... 
20070704:	200706fc 200706fc 20070704 20070704     ... ... ... ... 
20070714:	2007070c 2007070c 20070714 20070714     ... ... ... ... 
20070724:	2007071c 2007071c 20070724 20070724     ... ... $.. $.. 
20070734:	2007072c 2007072c 20070734 20070734     ,.. ,.. 4.. 4.. 
20070744:	2007073c 2007073c 20070744 20070744     <.. <.. D.. D.. 
20070754:	2007074c 2007074c 20070754 20070754     L.. L.. T.. T.. 
20070764:	2007075c 2007075c 20070764 20070764     \.. \.. d.. d.. 
20070774:	2007076c 2007076c 20070774 20070774     l.. l.. t.. t.. 
20070784:	2007077c 2007077c 20070784 20070784     |.. |.. ... ... 
20070794:	2007078c 2007078c 20070794 20070794     ... ... ... ... 
200707a4:	2007079c 2007079c 200707a4 200707a4     ... ... ... ... 
200707b4:	200707ac 200707ac 200707b4 200707b4     ... ... ... ... 
200707c4:	200707bc 200707bc 200707c4 200707c4     ... ... ... ... 
200707d4:	200707cc 200707cc 200707d4 200707d4     ... ... ... ... 
200707e4:	200707dc 200707dc 200707e4 200707e4     ... ... ... ... 
200707f4:	200707ec 200707ec 200707f4 200707f4     ... ... ... ... 
20070804:	200707fc 200707fc 20070804 20070804     ... ... ... ... 
20070814:	2007080c 2007080c 20070814 20070814     ... ... ... ... 
20070824:	2007081c 2007081c 20070824 20070824     ... ... $.. $.. 
20070834:	2007082c 2007082c 20070834 20070834     ,.. ,.. 4.. 4.. 
20070844:	2007083c 2007083c 20070844 20070844     <.. <.. D.. D.. 
20070854:	2007084c 2007084c 20070854 20070854     L.. L.. T.. T.. 
20070864:	2007085c 2007085c 20070864 20070864     \.. \.. d.. d.. 
20070874:	2007086c 2007086c 20070874 20070874     l.. l.. t.. t.. 
20070884:	2007087c 2007087c 20070884 20070884     |.. |.. ... ... 
20070894:	2007088c 2007088c 20070894 20070894     ... ... ... ... 
200708a4:	2007089c 2007089c 200708a4 200708a4     ... ... ... ... 
200708b4:	200708ac 200708ac 200708b4 200708b4     ... ... ... ... 
200708c4:	200708bc 200708bc 200708c4 200708c4     ... ... ... ... 
200708d4:	200708cc 200708cc 200708d4 200708d4     ... ... ... ... 
200708e4:	200708dc 200708dc 200708e4 200708e4     ... ... ... ... 
200708f4:	200708ec 200708ec 200708f4 200708f4     ... ... ... ... 
20070904:	200708fc 200708fc 20070904 20070904     ... ... ... ... 
20070914:	2007090c 2007090c 20070914 20070914     ... ... ... ... 
20070924:	2007091c 2007091c 20070924 20070924     ... ... $.. $.. 
20070934:	2007092c 2007092c 20070934 20070934     ,.. ,.. 4.. 4.. 
20070944:	2007093c 2007093c 20070944 20070944     <.. <.. D.. D.. 
20070954:	2007094c 2007094c 20070954 20070954     L.. L.. T.. T.. 
20070964:	2007095c 2007095c 20070964 20070964     \.. \.. d.. d.. 
20070974:	2007096c 2007096c 20070974 20070974     l.. l.. t.. t.. 
20070984:	2007097c 2007097c 20070984 20070984     |.. |.. ... ... 
20070994:	2007098c 2007098c 20070994 20070994     ... ... ... ... 

200709a4 <__malloc_trim_threshold>:
200709a4:	00020000                                ....

200709a8 <__malloc_sbrk_base>:
200709a8:	ffffffff                                ....

200709ac <__wctomb>:
200709ac:	00085fb5                                ._..
